ARM GAS  C:\Users\clay0\AppData\Local\Temp\ccOe5A6H.s 			page 1


   1              		.cpu cortex-m4
   2              		.arch armv7e-m
   3              		.fpu fpv4-sp-d16
   4              		.eabi_attribute 27, 1
   5              		.eabi_attribute 28, 1
   6              		.eabi_attribute 20, 1
   7              		.eabi_attribute 21, 1
   8              		.eabi_attribute 23, 3
   9              		.eabi_attribute 24, 1
  10              		.eabi_attribute 25, 1
  11              		.eabi_attribute 26, 1
  12              		.eabi_attribute 30, 2
  13              		.eabi_attribute 34, 1
  14              		.eabi_attribute 18, 4
  15              		.file	"blink.c"
  16              		.text
  17              	.Ltext0:
  18              		.cfi_sections	.debug_frame
  19              		.section	.text.blink_init,"ax",%progbits
  20              		.align	1
  21              		.p2align 2,,3
  22              		.global	blink_init
  23              		.syntax unified
  24              		.thumb
  25              		.thumb_func
  27              	blink_init:
  28              	.LFB132:
  29              		.file 1 "Core/blink.c"
   1:Core/blink.c  **** #include "main.h"
   2:Core/blink.c  **** #include "clock.h"
   3:Core/blink.c  **** 
   4:Core/blink.c  **** void blink_init(void)
   5:Core/blink.c  **** {
  30              		.loc 1 5 1 view -0
  31              		.cfi_startproc
  32              		@ args = 0, pretend = 0, frame = 0
  33              		@ frame_needed = 0, uses_anonymous_args = 0
  34              		@ link register save eliminated.
   6:Core/blink.c  ****     RCC->AHB1ENR	|= RCC_AHB1ENR_GPIOCEN;
  35              		.loc 1 6 5 view .LVU1
  36              		.loc 1 6 18 is_stmt 0 view .LVU2
  37 0000 0749     		ldr	r1, .L3
   7:Core/blink.c  ****     GPIOC->MODER	|= GPIO_MODER_MODER13_0;
  38              		.loc 1 7 18 view .LVU3
  39 0002 084B     		ldr	r3, .L3+4
   6:Core/blink.c  ****     RCC->AHB1ENR	|= RCC_AHB1ENR_GPIOCEN;
  40              		.loc 1 6 18 view .LVU4
  41 0004 0A6B     		ldr	r2, [r1, #48]
  42 0006 42F00402 		orr	r2, r2, #4
  43 000a 0A63     		str	r2, [r1, #48]
  44              		.loc 1 7 5 is_stmt 1 view .LVU5
  45              		.loc 1 7 18 is_stmt 0 view .LVU6
  46 000c 1A68     		ldr	r2, [r3]
  47 000e 42F08062 		orr	r2, r2, #67108864
  48 0012 1A60     		str	r2, [r3]
   8:Core/blink.c  ****     SET_BIT(GPIOC->BSRR, GPIO_BSRR_BS13);
  49              		.loc 1 8 5 is_stmt 1 view .LVU7
ARM GAS  C:\Users\clay0\AppData\Local\Temp\ccOe5A6H.s 			page 2


  50 0014 9A69     		ldr	r2, [r3, #24]
  51 0016 42F40052 		orr	r2, r2, #8192
  52 001a 9A61     		str	r2, [r3, #24]
   9:Core/blink.c  **** }
  53              		.loc 1 9 1 is_stmt 0 view .LVU8
  54 001c 7047     		bx	lr
  55              	.L4:
  56 001e 00BF     		.align	2
  57              	.L3:
  58 0020 00380240 		.word	1073887232
  59 0024 00080240 		.word	1073874944
  60              		.cfi_endproc
  61              	.LFE132:
  63              		.section	.text.blink_run,"ax",%progbits
  64              		.align	1
  65              		.p2align 2,,3
  66              		.global	blink_run
  67              		.syntax unified
  68              		.thumb
  69              		.thumb_func
  71              	blink_run:
  72              	.LVL0:
  73              	.LFB133:
  10:Core/blink.c  **** 
  11:Core/blink.c  **** void blink_run(uint32_t ms)
  12:Core/blink.c  **** {
  74              		.loc 1 12 1 is_stmt 1 view -0
  75              		.cfi_startproc
  76              		@ args = 0, pretend = 0, frame = 0
  77              		@ frame_needed = 0, uses_anonymous_args = 0
  13:Core/blink.c  ****     SET_BIT(GPIOC->BSRR, GPIO_BSRR_BR13);
  78              		.loc 1 13 5 view .LVU10
  12:Core/blink.c  ****     SET_BIT(GPIOC->BSRR, GPIO_BSRR_BR13);
  79              		.loc 1 12 1 is_stmt 0 view .LVU11
  80 0000 38B5     		push	{r3, r4, r5, lr}
  81              	.LCFI0:
  82              		.cfi_def_cfa_offset 16
  83              		.cfi_offset 3, -16
  84              		.cfi_offset 4, -12
  85              		.cfi_offset 5, -8
  86              		.cfi_offset 14, -4
  87              		.loc 1 13 5 view .LVU12
  88 0002 084C     		ldr	r4, .L7
  89 0004 A369     		ldr	r3, [r4, #24]
  90 0006 43F00053 		orr	r3, r3, #536870912
  91 000a A361     		str	r3, [r4, #24]
  14:Core/blink.c  ****     delay_ms(ms);
  92              		.loc 1 14 5 is_stmt 1 view .LVU13
  12:Core/blink.c  ****     SET_BIT(GPIOC->BSRR, GPIO_BSRR_BR13);
  93              		.loc 1 12 1 is_stmt 0 view .LVU14
  94 000c 0546     		mov	r5, r0
  95              		.loc 1 14 5 view .LVU15
  96 000e FFF7FEFF 		bl	delay_ms
  97              	.LVL1:
  15:Core/blink.c  ****     SET_BIT(GPIOC->BSRR, GPIO_BSRR_BS13);
  98              		.loc 1 15 5 is_stmt 1 view .LVU16
  99 0012 A369     		ldr	r3, [r4, #24]
ARM GAS  C:\Users\clay0\AppData\Local\Temp\ccOe5A6H.s 			page 3


 100 0014 43F40053 		orr	r3, r3, #8192
  16:Core/blink.c  ****     delay_ms(ms);
 101              		.loc 1 16 5 is_stmt 0 view .LVU17
 102 0018 2846     		mov	r0, r5
  15:Core/blink.c  ****     SET_BIT(GPIOC->BSRR, GPIO_BSRR_BS13);
 103              		.loc 1 15 5 view .LVU18
 104 001a A361     		str	r3, [r4, #24]
 105              		.loc 1 16 5 is_stmt 1 view .LVU19
  17:Core/blink.c  **** }...
 106              		.loc 1 17 1 is_stmt 0 view .LVU20
 107 001c BDE83840 		pop	{r3, r4, r5, lr}
 108              	.LCFI1:
 109              		.cfi_restore 14
 110              		.cfi_restore 5
 111              		.cfi_restore 4
 112              		.cfi_restore 3
 113              		.cfi_def_cfa_offset 0
 114              	.LVL2:
  16:Core/blink.c  ****     delay_ms(ms);
 115              		.loc 1 16 5 view .LVU21
 116 0020 FFF7FEBF 		b	delay_ms
 117              	.LVL3:
 118              	.L8:
  16:Core/blink.c  ****     delay_ms(ms);
 119              		.loc 1 16 5 view .LVU22
 120              		.align	2
 121              	.L7:
 122 0024 00080240 		.word	1073874944
 123              		.cfi_endproc
 124              	.LFE133:
 126              		.text
 127              	.Letext0:
 128              		.file 2 "d:\\gcc arm\\10 2021.10\\arm-none-eabi\\include\\machine\\_default_types.h"
 129              		.file 3 "d:\\gcc arm\\10 2021.10\\arm-none-eabi\\include\\sys\\_stdint.h"
 130              		.file 4 "CMSIS/Device/ST/STM32F4xx/Include/stm32f401xc.h"
 131              		.file 5 "Core/clock.h"
ARM GAS  C:\Users\clay0\AppData\Local\Temp\ccOe5A6H.s 			page 4

