ARM GAS  C:\Users\clay0\AppData\Local\Temp\ccGAFW9z.s 			page 1


   1              		.cpu cortex-m4
   2              		.arch armv7e-m
   3              		.fpu fpv4-sp-d16
   4              		.eabi_attribute 27, 1
   5              		.eabi_attribute 28, 1
   6              		.eabi_attribute 20, 1
   7              		.eabi_attribute 21, 1
   8              		.eabi_attribute 23, 3
   9              		.eabi_attribute 24, 1
  10              		.eabi_attribute 25, 1
  11              		.eabi_attribute 26, 1
  12              		.eabi_attribute 30, 6
  13              		.eabi_attribute 34, 1
  14              		.eabi_attribute 18, 4
  15              		.file	"clock.c"
  16              		.text
  17              	.Ltext0:
  18              		.cfi_sections	.debug_frame
  19              		.global	ticks
  20              		.section	.bss.ticks,"aw",%nobits
  21              		.align	2
  24              	ticks:
  25 0000 00000000 		.space	4
  26              		.section	.text.SysTick_Handler,"ax",%progbits
  27              		.align	1
  28              		.global	SysTick_Handler
  29              		.syntax unified
  30              		.thumb
  31              		.thumb_func
  33              	SysTick_Handler:
  34              	.LFB135:
  35              		.file 1 "Core/clock.c"
   1:Core/clock.c  **** #include <stdint.h>
   2:Core/clock.c  **** #include "main.h"
   3:Core/clock.c  **** #include "clock.h"
   4:Core/clock.c  **** 
   5:Core/clock.c  **** extern uint32_t SystemCoreClock;
   6:Core/clock.c  **** volatile uint32_t  ticks = 0;
   7:Core/clock.c  **** 
   8:Core/clock.c  **** void  SysTick_Handler(void)
   9:Core/clock.c  **** {
  36              		.loc 1 9 1
  37              		.cfi_startproc
  38              		@ args = 0, pretend = 0, frame = 0
  39              		@ frame_needed = 1, uses_anonymous_args = 0
  40              		@ link register save eliminated.
  41 0000 80B4     		push	{r7}
  42              	.LCFI0:
  43              		.cfi_def_cfa_offset 4
  44              		.cfi_offset 7, -4
  45 0002 00AF     		add	r7, sp, #0
  46              	.LCFI1:
  47              		.cfi_def_cfa_register 7
  10:Core/clock.c  **** 	ticks++;
  48              		.loc 1 10 7
  49 0004 044B     		ldr	r3, .L2
  50 0006 1B68     		ldr	r3, [r3]
ARM GAS  C:\Users\clay0\AppData\Local\Temp\ccGAFW9z.s 			page 2


  51 0008 0133     		adds	r3, r3, #1
  52 000a 034A     		ldr	r2, .L2
  53 000c 1360     		str	r3, [r2]
  11:Core/clock.c  **** }
  54              		.loc 1 11 1
  55 000e 00BF     		nop
  56 0010 BD46     		mov	sp, r7
  57              	.LCFI2:
  58              		.cfi_def_cfa_register 13
  59              		@ sp needed
  60 0012 5DF8047B 		ldr	r7, [sp], #4
  61              	.LCFI3:
  62              		.cfi_restore 7
  63              		.cfi_def_cfa_offset 0
  64 0016 7047     		bx	lr
  65              	.L3:
  66              		.align	2
  67              	.L2:
  68 0018 00000000 		.word	ticks
  69              		.cfi_endproc
  70              	.LFE135:
  72              		.section	.text.delay_ms,"ax",%progbits
  73              		.align	1
  74              		.global	delay_ms
  75              		.syntax unified
  76              		.thumb
  77              		.thumb_func
  79              	delay_ms:
  80              	.LFB136:
  12:Core/clock.c  **** 
  13:Core/clock.c  **** void delay_ms(uint32_t ms)
  14:Core/clock.c  **** {
  81              		.loc 1 14 1
  82              		.cfi_startproc
  83              		@ args = 0, pretend = 0, frame = 16
  84              		@ frame_needed = 1, uses_anonymous_args = 0
  85              		@ link register save eliminated.
  86 0000 80B4     		push	{r7}
  87              	.LCFI4:
  88              		.cfi_def_cfa_offset 4
  89              		.cfi_offset 7, -4
  90 0002 85B0     		sub	sp, sp, #20
  91              	.LCFI5:
  92              		.cfi_def_cfa_offset 24
  93 0004 00AF     		add	r7, sp, #0
  94              	.LCFI6:
  95              		.cfi_def_cfa_register 7
  96 0006 7860     		str	r0, [r7, #4]
  15:Core/clock.c  **** 	uint32_t started = ticks;
  97              		.loc 1 15 11
  98 0008 084B     		ldr	r3, .L6
  99 000a 1B68     		ldr	r3, [r3]
 100 000c FB60     		str	r3, [r7, #12]
  16:Core/clock.c  **** 	while((ticks-started)<=ms);
 101              		.loc 1 16 7
 102 000e 00BF     		nop
 103              	.L5:
ARM GAS  C:\Users\clay0\AppData\Local\Temp\ccGAFW9z.s 			page 3


 104              		.loc 1 16 14 discriminator 1
 105 0010 064B     		ldr	r3, .L6
 106 0012 1A68     		ldr	r2, [r3]
 107 0014 FB68     		ldr	r3, [r7, #12]
 108 0016 D31A     		subs	r3, r2, r3
 109              		.loc 1 16 7 discriminator 1
 110 0018 7A68     		ldr	r2, [r7, #4]
 111 001a 9A42     		cmp	r2, r3
 112 001c F8D2     		bcs	.L5
  17:Core/clock.c  **** }...
 113              		.loc 1 17 1
 114 001e 00BF     		nop
 115 0020 00BF     		nop
 116 0022 1437     		adds	r7, r7, #20
 117              	.LCFI7:
 118              		.cfi_def_cfa_offset 4
 119 0024 BD46     		mov	sp, r7
 120              	.LCFI8:
 121              		.cfi_def_cfa_register 13
 122              		@ sp needed
 123 0026 5DF8047B 		ldr	r7, [sp], #4
 124              	.LCFI9:
 125              		.cfi_restore 7
 126              		.cfi_def_cfa_offset 0
 127 002a 7047     		bx	lr
 128              	.L7:
 129              		.align	2
 130              	.L6:
 131 002c 00000000 		.word	ticks
 132              		.cfi_endproc
 133              	.LFE136:
 135              		.text
 136              	.Letext0:
 137              		.file 2 "d:\\gcc arm\\10 2021.10\\arm-none-eabi\\include\\machine\\_default_types.h"
 138              		.file 3 "d:\\gcc arm\\10 2021.10\\arm-none-eabi\\include\\sys\\_stdint.h"
ARM GAS  C:\Users\clay0\AppData\Local\Temp\ccGAFW9z.s 			page 4

