ARM GAS  C:\Users\clay0\AppData\Local\Temp\ccvKv5Cc.s 			page 1


   1              		.cpu cortex-m4
   2              		.arch armv7e-m
   3              		.fpu fpv4-sp-d16
   4              		.eabi_attribute 27, 1
   5              		.eabi_attribute 28, 1
   6              		.eabi_attribute 20, 1
   7              		.eabi_attribute 21, 1
   8              		.eabi_attribute 23, 3
   9              		.eabi_attribute 24, 1
  10              		.eabi_attribute 25, 1
  11              		.eabi_attribute 26, 1
  12              		.eabi_attribute 30, 2
  13              		.eabi_attribute 34, 1
  14              		.eabi_attribute 18, 4
  15              		.file	"coap.c"
  16              		.text
  17              	.Ltext0:
  18              		.cfi_sections	.debug_frame
  19              		.section	.text.coap_parseHeader,"ax",%progbits
  20              		.align	1
  21              		.p2align 2,,3
  22              		.global	coap_parseHeader
  23              		.syntax unified
  24              		.thumb
  25              		.thumb_func
  27              	coap_parseHeader:
  28              	.LVL0:
  29              	.LFB3:
  30              		.file 1 "coapLIB/coap.c"
   1:coapLIB/coap.c **** #include <stdio.h>
   2:coapLIB/coap.c **** #include <stdlib.h>
   3:coapLIB/coap.c **** #include <stdint.h>
   4:coapLIB/coap.c **** #include <stdbool.h>
   5:coapLIB/coap.c **** #include <string.h>
   6:coapLIB/coap.c **** #include <stddef.h>
   7:coapLIB/coap.c **** #include "coap.h"
   8:coapLIB/coap.c **** 
   9:coapLIB/coap.c **** extern void endpoint_setup(void);
  10:coapLIB/coap.c **** extern const coap_endpoint_t endpoints[];
  11:coapLIB/coap.c **** 
  12:coapLIB/coap.c **** #ifdef DEBUG
  13:coapLIB/coap.c **** void coap_dumpHeader(coap_header_t *hdr)
  14:coapLIB/coap.c **** {
  15:coapLIB/coap.c ****     printf("Header:\n");
  16:coapLIB/coap.c ****     printf("  ver  0x%02X\n", hdr->ver);
  17:coapLIB/coap.c ****     printf("  t    0x%02X\n", hdr->t);
  18:coapLIB/coap.c ****     printf("  tkl  0x%02X\n", hdr->tkl);
  19:coapLIB/coap.c ****     printf("  code 0x%02X\n", hdr->code);
  20:coapLIB/coap.c ****     printf("  id   0x%02X%02X\n", hdr->id[0], hdr->id[1]);
  21:coapLIB/coap.c **** }
  22:coapLIB/coap.c **** #endif
  23:coapLIB/coap.c **** 
  24:coapLIB/coap.c **** #ifdef DEBUG
  25:coapLIB/coap.c **** void coap_dump(const uint8_t *buf, size_t buflen, bool bare)
  26:coapLIB/coap.c **** {
  27:coapLIB/coap.c ****     if (bare)
  28:coapLIB/coap.c ****     {
ARM GAS  C:\Users\clay0\AppData\Local\Temp\ccvKv5Cc.s 			page 2


  29:coapLIB/coap.c ****         while(buflen--)
  30:coapLIB/coap.c ****             printf("%02X%s", *buf++, (buflen > 0) ? " " : "");
  31:coapLIB/coap.c ****     }
  32:coapLIB/coap.c ****     else
  33:coapLIB/coap.c ****     {
  34:coapLIB/coap.c ****         printf("Dump: ");
  35:coapLIB/coap.c ****         while(buflen--)
  36:coapLIB/coap.c ****             printf("%02X%s", *buf++, (buflen > 0) ? " " : "");
  37:coapLIB/coap.c ****         printf("\n");
  38:coapLIB/coap.c ****     }
  39:coapLIB/coap.c **** }
  40:coapLIB/coap.c **** #endif
  41:coapLIB/coap.c **** 
  42:coapLIB/coap.c **** int coap_parseHeader(coap_header_t *hdr, const uint8_t *buf, size_t buflen)
  43:coapLIB/coap.c **** {
  31              		.loc 1 43 1 view -0
  32              		.cfi_startproc
  33              		@ args = 0, pretend = 0, frame = 0
  34              		@ frame_needed = 0, uses_anonymous_args = 0
  35              		@ link register save eliminated.
  44:coapLIB/coap.c ****     if (buflen < 4)
  36              		.loc 1 44 8 is_stmt 0 view .LVU1
  37 0000 032A     		cmp	r2, #3
  43:coapLIB/coap.c ****     if (buflen < 4)
  38              		.loc 1 43 1 view .LVU2
  39 0002 0346     		mov	r3, r0
  40              		.loc 1 44 5 is_stmt 1 view .LVU3
  41              		.loc 1 44 8 is_stmt 0 view .LVU4
  42 0004 16D9     		bls	.L3
  45:coapLIB/coap.c ****         return COAP_ERR_HEADER_TOO_SHORT;
  46:coapLIB/coap.c ****     hdr->ver = (buf[0] & 0xC0) >> 6;
  43              		.loc 1 46 5 is_stmt 1 view .LVU5
  44              		.loc 1 46 32 is_stmt 0 view .LVU6
  45 0006 0A78     		ldrb	r2, [r1]	@ zero_extendqisi2
  46              	.LVL1:
  47              		.loc 1 46 32 view .LVU7
  48 0008 9209     		lsrs	r2, r2, #6
  47:coapLIB/coap.c ****     if (hdr->ver != 1)
  49              		.loc 1 47 8 view .LVU8
  50 000a 012A     		cmp	r2, #1
  46:coapLIB/coap.c ****     if (hdr->ver != 1)
  51              		.loc 1 46 14 view .LVU9
  52 000c 0270     		strb	r2, [r0]
  53              		.loc 1 47 5 is_stmt 1 view .LVU10
  54              		.loc 1 47 8 is_stmt 0 view .LVU11
  55 000e 0FD1     		bne	.L4
  56              	.LVL2:
  57              	.LBB17:
  58              	.LBI17:
  42:coapLIB/coap.c **** {
  59              		.loc 1 42 5 is_stmt 1 view .LVU12
  60              	.LBB18:
  48:coapLIB/coap.c ****         return COAP_ERR_VERSION_NOT_1;
  49:coapLIB/coap.c ****     hdr->t = (buf[0] & 0x30) >> 4;
  61              		.loc 1 49 5 view .LVU13
  62              		.loc 1 49 30 is_stmt 0 view .LVU14
  63 0010 0A78     		ldrb	r2, [r1]	@ zero_extendqisi2
ARM GAS  C:\Users\clay0\AppData\Local\Temp\ccvKv5Cc.s 			page 3


  64 0012 C2F30112 		ubfx	r2, r2, #4, #2
  65              		.loc 1 49 12 view .LVU15
  66 0016 5A70     		strb	r2, [r3, #1]
  50:coapLIB/coap.c ****     hdr->tkl = buf[0] & 0x0F;
  67              		.loc 1 50 5 is_stmt 1 view .LVU16
  68              		.loc 1 50 23 is_stmt 0 view .LVU17
  69 0018 0A78     		ldrb	r2, [r1]	@ zero_extendqisi2
  70 001a 02F00F02 		and	r2, r2, #15
  71              		.loc 1 50 14 view .LVU18
  72 001e 9A70     		strb	r2, [r3, #2]
  51:coapLIB/coap.c ****     hdr->code = buf[1];
  73              		.loc 1 51 5 is_stmt 1 view .LVU19
  74              		.loc 1 51 15 is_stmt 0 view .LVU20
  75 0020 4A78     		ldrb	r2, [r1, #1]	@ zero_extendqisi2
  76 0022 DA70     		strb	r2, [r3, #3]
  52:coapLIB/coap.c ****     hdr->id[0] = buf[2];
  77              		.loc 1 52 5 is_stmt 1 view .LVU21
  78              		.loc 1 52 16 is_stmt 0 view .LVU22
  79 0024 8A78     		ldrb	r2, [r1, #2]	@ zero_extendqisi2
  80 0026 1A71     		strb	r2, [r3, #4]
  53:coapLIB/coap.c ****     hdr->id[1] = buf[3];
  81              		.loc 1 53 5 is_stmt 1 view .LVU23
  82              		.loc 1 53 16 is_stmt 0 view .LVU24
  83 0028 CA78     		ldrb	r2, [r1, #3]	@ zero_extendqisi2
  84 002a 5A71     		strb	r2, [r3, #5]
  54:coapLIB/coap.c ****     return 0;
  85              		.loc 1 54 5 is_stmt 1 view .LVU25
  86              	.LVL3:
  53:coapLIB/coap.c ****     hdr->id[1] = buf[3];
  87              		.loc 1 53 16 is_stmt 0 view .LVU26
  88 002c 0020     		movs	r0, #0
  89              	.LVL4:
  53:coapLIB/coap.c ****     hdr->id[1] = buf[3];
  90              		.loc 1 53 16 view .LVU27
  91 002e 7047     		bx	lr
  92              	.LVL5:
  93              	.L4:
  53:coapLIB/coap.c ****     hdr->id[1] = buf[3];
  94              		.loc 1 53 16 view .LVU28
  95              	.LBE18:
  96              	.LBE17:
  48:coapLIB/coap.c ****     hdr->t = (buf[0] & 0x30) >> 4;
  97              		.loc 1 48 16 view .LVU29
  98 0030 0220     		movs	r0, #2
  99              	.LVL6:
  55:coapLIB/coap.c **** }
 100              		.loc 1 55 1 view .LVU30
 101 0032 7047     		bx	lr
 102              	.LVL7:
 103              	.L3:
  45:coapLIB/coap.c ****     hdr->ver = (buf[0] & 0xC0) >> 6;
 104              		.loc 1 45 16 view .LVU31
 105 0034 0120     		movs	r0, #1
 106              	.LVL8:
  45:coapLIB/coap.c ****     hdr->ver = (buf[0] & 0xC0) >> 6;
 107              		.loc 1 45 16 view .LVU32
 108 0036 7047     		bx	lr
ARM GAS  C:\Users\clay0\AppData\Local\Temp\ccvKv5Cc.s 			page 4


 109              		.cfi_endproc
 110              	.LFE3:
 112              		.section	.text.coap_parseToken,"ax",%progbits
 113              		.align	1
 114              		.p2align 2,,3
 115              		.global	coap_parseToken
 116              		.syntax unified
 117              		.thumb
 118              		.thumb_func
 120              	coap_parseToken:
 121              	.LVL9:
 122              	.LFB4:
  56:coapLIB/coap.c **** 
  57:coapLIB/coap.c **** int coap_parseToken(coap_buffer_t *tokbuf, const coap_header_t *hdr, const uint8_t *buf, size_t buf
  58:coapLIB/coap.c **** {
 123              		.loc 1 58 1 is_stmt 1 view -0
 124              		.cfi_startproc
 125              		@ args = 0, pretend = 0, frame = 0
 126              		@ frame_needed = 0, uses_anonymous_args = 0
 127              		@ link register save eliminated.
  59:coapLIB/coap.c ****     if (hdr->tkl == 0)
 128              		.loc 1 59 5 view .LVU34
 129              		.loc 1 59 12 is_stmt 0 view .LVU35
 130 0000 8978     		ldrb	r1, [r1, #2]	@ zero_extendqisi2
 131              	.LVL10:
 132              		.loc 1 59 8 view .LVU36
 133 0002 61B1     		cbz	r1, .L11
  60:coapLIB/coap.c ****     {
  61:coapLIB/coap.c ****         tokbuf->p = NULL;
  62:coapLIB/coap.c ****         tokbuf->len = 0;
  63:coapLIB/coap.c ****         return 0;
  64:coapLIB/coap.c ****     }
  65:coapLIB/coap.c ****     else
  66:coapLIB/coap.c ****     if (hdr->tkl <= 8)
 134              		.loc 1 66 5 is_stmt 1 view .LVU37
 135              		.loc 1 66 8 is_stmt 0 view .LVU38
 136 0004 0829     		cmp	r1, #8
 137 0006 08D8     		bhi	.L10
  67:coapLIB/coap.c ****     {
  68:coapLIB/coap.c ****         if (4U + hdr->tkl > buflen)
 138              		.loc 1 68 9 is_stmt 1 view .LVU39
 139              		.loc 1 68 16 is_stmt 0 view .LVU40
 140 0008 01F1040C 		add	ip, r1, #4
 141              		.loc 1 68 12 view .LVU41
 142 000c 9C45     		cmp	ip, r3
 143 000e 04D8     		bhi	.L10
  69:coapLIB/coap.c ****             return COAP_ERR_TOKEN_TOO_SHORT;   // tok bigger than packet
  70:coapLIB/coap.c ****         tokbuf->p = buf+4;  // past header
 144              		.loc 1 70 9 is_stmt 1 view .LVU42
 145              		.loc 1 70 24 is_stmt 0 view .LVU43
 146 0010 0432     		adds	r2, r2, #4
 147              	.LVL11:
  71:coapLIB/coap.c ****         tokbuf->len = hdr->tkl;
 148              		.loc 1 71 21 view .LVU44
 149 0012 C0E90021 		strd	r2, r1, [r0]
  72:coapLIB/coap.c ****         return 0;
 150              		.loc 1 72 9 is_stmt 1 view .LVU45
ARM GAS  C:\Users\clay0\AppData\Local\Temp\ccvKv5Cc.s 			page 5


 151              		.loc 1 72 16 is_stmt 0 view .LVU46
 152 0016 0020     		movs	r0, #0
 153              	.LVL12:
 154              		.loc 1 72 16 view .LVU47
 155 0018 7047     		bx	lr
 156              	.LVL13:
 157              	.L10:
  73:coapLIB/coap.c ****     }
  74:coapLIB/coap.c ****     else
  75:coapLIB/coap.c ****     {
  76:coapLIB/coap.c ****         // invalid size
  77:coapLIB/coap.c ****         return COAP_ERR_TOKEN_TOO_SHORT;
 158              		.loc 1 77 16 view .LVU48
 159 001a 0320     		movs	r0, #3
 160              	.LVL14:
  78:coapLIB/coap.c ****     }
  79:coapLIB/coap.c **** }
 161              		.loc 1 79 1 view .LVU49
 162 001c 7047     		bx	lr
 163              	.LVL15:
 164              	.L11:
  61:coapLIB/coap.c ****         tokbuf->len = 0;
 165              		.loc 1 61 9 is_stmt 1 view .LVU50
  62:coapLIB/coap.c ****         return 0;
 166              		.loc 1 62 21 is_stmt 0 view .LVU51
 167 001e C0E90011 		strd	r1, r1, [r0]
  63:coapLIB/coap.c ****     }
 168              		.loc 1 63 9 is_stmt 1 view .LVU52
  63:coapLIB/coap.c ****     }
 169              		.loc 1 63 16 is_stmt 0 view .LVU53
 170 0022 0846     		mov	r0, r1
 171              	.LVL16:
  63:coapLIB/coap.c ****     }
 172              		.loc 1 63 16 view .LVU54
 173 0024 7047     		bx	lr
 174              		.cfi_endproc
 175              	.LFE4:
 177 0026 00BF     		.section	.text.coap_parseOption,"ax",%progbits
 178              		.align	1
 179              		.p2align 2,,3
 180              		.global	coap_parseOption
 181              		.syntax unified
 182              		.thumb
 183              		.thumb_func
 185              	coap_parseOption:
 186              	.LVL17:
 187              	.LFB5:
  80:coapLIB/coap.c **** 
  81:coapLIB/coap.c **** // advances p
  82:coapLIB/coap.c **** int coap_parseOption(coap_option_t *option, uint16_t *running_delta, const uint8_t **buf, size_t bu
  83:coapLIB/coap.c **** {
 188              		.loc 1 83 1 is_stmt 1 view -0
 189              		.cfi_startproc
 190              		@ args = 0, pretend = 0, frame = 0
 191              		@ frame_needed = 0, uses_anonymous_args = 0
  84:coapLIB/coap.c ****     const uint8_t *p = *buf;
 192              		.loc 1 84 5 view .LVU56
ARM GAS  C:\Users\clay0\AppData\Local\Temp\ccvKv5Cc.s 			page 6


  85:coapLIB/coap.c ****     uint8_t headlen = 1;
 193              		.loc 1 85 5 view .LVU57
  86:coapLIB/coap.c ****     uint16_t len, delta;
 194              		.loc 1 86 5 view .LVU58
  87:coapLIB/coap.c **** 
  88:coapLIB/coap.c ****     if (buflen < headlen) // too small
 195              		.loc 1 88 5 view .LVU59
 196              		.loc 1 88 8 is_stmt 0 view .LVU60
 197 0000 002B     		cmp	r3, #0
 198 0002 49D0     		beq	.L20
  83:coapLIB/coap.c ****     const uint8_t *p = *buf;
 199              		.loc 1 83 1 view .LVU61
 200 0004 2DE9F041 		push	{r4, r5, r6, r7, r8, lr}
 201              	.LCFI0:
 202              		.cfi_def_cfa_offset 24
 203              		.cfi_offset 4, -24
 204              		.cfi_offset 5, -20
 205              		.cfi_offset 6, -16
 206              		.cfi_offset 7, -12
 207              		.cfi_offset 8, -8
 208              		.cfi_offset 14, -4
  84:coapLIB/coap.c ****     uint8_t headlen = 1;
 209              		.loc 1 84 20 view .LVU62
 210 0008 1668     		ldr	r6, [r2]
  89:coapLIB/coap.c ****         return COAP_ERR_OPTION_TOO_SHORT_FOR_HEADER;
  90:coapLIB/coap.c **** 
  91:coapLIB/coap.c ****     delta = (p[0] & 0xF0) >> 4;
 211              		.loc 1 91 5 is_stmt 1 view .LVU63
 212              		.loc 1 91 15 is_stmt 0 view .LVU64
 213 000a 96F800C0 		ldrb	ip, [r6]	@ zero_extendqisi2
 214              		.loc 1 91 27 view .LVU65
 215 000e 4FEA1C14 		lsr	r4, ip, #4
 216              	.LVL18:
  92:coapLIB/coap.c ****     len = p[0] & 0x0F;
 217              		.loc 1 92 5 is_stmt 1 view .LVU66
  93:coapLIB/coap.c **** 
  94:coapLIB/coap.c ****     // These are untested and may be buggy
  95:coapLIB/coap.c ****     if (delta == 13)
 218              		.loc 1 95 8 is_stmt 0 view .LVU67
 219 0012 0D2C     		cmp	r4, #13
 220 0014 0CF00F0E 		and	lr, ip, #15
 221              	.LVL19:
 222              		.loc 1 95 5 is_stmt 1 view .LVU68
 223              		.loc 1 95 8 is_stmt 0 view .LVU69
 224 0018 23D0     		beq	.L32
  96:coapLIB/coap.c ****     {
  97:coapLIB/coap.c ****         headlen++;
  98:coapLIB/coap.c ****         if (buflen < headlen)
  99:coapLIB/coap.c ****             return COAP_ERR_OPTION_TOO_SHORT_FOR_HEADER;
 100:coapLIB/coap.c ****         delta = p[1] + 13;
 101:coapLIB/coap.c ****         p++;
 102:coapLIB/coap.c ****     }
 103:coapLIB/coap.c ****     else
 104:coapLIB/coap.c ****     if (delta == 14)
 225              		.loc 1 104 8 view .LVU70
 226 001a 0E2C     		cmp	r4, #14
  91:coapLIB/coap.c ****     len = p[0] & 0x0F;
ARM GAS  C:\Users\clay0\AppData\Local\Temp\ccvKv5Cc.s 			page 7


 227              		.loc 1 91 11 view .LVU71
 228 001c A5B2     		uxth	r5, r4
 229              		.loc 1 104 5 is_stmt 1 view .LVU72
 230              		.loc 1 104 8 is_stmt 0 view .LVU73
 231 001e 3DD0     		beq	.L33
 105:coapLIB/coap.c ****     {
 106:coapLIB/coap.c ****         headlen += 2;
 107:coapLIB/coap.c ****         if (buflen < headlen)
 108:coapLIB/coap.c ****             return COAP_ERR_OPTION_TOO_SHORT_FOR_HEADER;
 109:coapLIB/coap.c ****         delta = ((p[1] << 8) | p[2]) + 269;
 110:coapLIB/coap.c ****         p+=2;
 111:coapLIB/coap.c ****     }
 112:coapLIB/coap.c ****     else
 113:coapLIB/coap.c ****     if (delta == 15)
 232              		.loc 1 113 5 is_stmt 1 view .LVU74
 233              		.loc 1 113 8 is_stmt 0 view .LVU75
 234 0020 0F2D     		cmp	r5, #15
 235 0022 57D0     		beq	.L23
 236 0024 B446     		mov	ip, r6
 237 0026 4FF00308 		mov	r8, #3
 238 002a 0224     		movs	r4, #2
 239              	.LVL20:
 240              	.L15:
 114:coapLIB/coap.c ****         return COAP_ERR_OPTION_DELTA_INVALID;
 115:coapLIB/coap.c **** 
 116:coapLIB/coap.c ****     if (len == 13)
 241              		.loc 1 116 5 is_stmt 1 view .LVU76
 242              		.loc 1 116 8 is_stmt 0 view .LVU77
 243 002c BEF10D0F 		cmp	lr, #13
 244 0030 25D0     		beq	.L34
 245              	.L17:
 117:coapLIB/coap.c ****     {
 118:coapLIB/coap.c ****         headlen++;
 119:coapLIB/coap.c ****         if (buflen < headlen)
 120:coapLIB/coap.c ****             return COAP_ERR_OPTION_TOO_SHORT_FOR_HEADER;
 121:coapLIB/coap.c ****         len = p[1] + 13;
 122:coapLIB/coap.c ****         p++;
 123:coapLIB/coap.c ****     }
 124:coapLIB/coap.c ****     else
 125:coapLIB/coap.c ****     if (len == 14)
 246              		.loc 1 125 8 view .LVU78
 247 0032 BEF10E0F 		cmp	lr, #14
  92:coapLIB/coap.c **** 
 248              		.loc 1 92 9 view .LVU79
 249 0036 1FFA8EF7 		uxth	r7, lr
 250              		.loc 1 125 5 is_stmt 1 view .LVU80
 251              		.loc 1 125 8 is_stmt 0 view .LVU81
 252 003a 40D0     		beq	.L35
 126:coapLIB/coap.c ****     {
 127:coapLIB/coap.c ****         headlen += 2;
 128:coapLIB/coap.c ****         if (buflen < headlen)
 129:coapLIB/coap.c ****             return COAP_ERR_OPTION_TOO_SHORT_FOR_HEADER;
 130:coapLIB/coap.c ****         len = ((p[1] << 8) | p[2]) + 269;
 131:coapLIB/coap.c ****         p+=2;
 132:coapLIB/coap.c ****     }
 133:coapLIB/coap.c ****     else
 134:coapLIB/coap.c ****     if (len == 15)
ARM GAS  C:\Users\clay0\AppData\Local\Temp\ccvKv5Cc.s 			page 8


 253              		.loc 1 134 5 is_stmt 1 view .LVU82
 254              		.loc 1 134 8 is_stmt 0 view .LVU83
 255 003c 0F2F     		cmp	r7, #15
 256 003e 4BD0     		beq	.L26
 257              	.LVL21:
 258              	.L18:
 135:coapLIB/coap.c ****         return COAP_ERR_OPTION_LEN_INVALID;
 136:coapLIB/coap.c **** 
 137:coapLIB/coap.c ****     if ((p + 1 + len) > (*buf + buflen))
 259              		.loc 1 137 5 is_stmt 1 view .LVU84
 260              		.loc 1 137 16 is_stmt 0 view .LVU85
 261 0040 7C1C     		adds	r4, r7, #1
 262              		.loc 1 137 31 view .LVU86
 263 0042 3344     		add	r3, r3, r6
 264              	.LVL22:
 265              		.loc 1 137 16 view .LVU87
 266 0044 6444     		add	r4, r4, ip
 267              		.loc 1 137 8 view .LVU88
 268 0046 9C42     		cmp	r4, r3
 269 0048 23D8     		bhi	.L27
 270              	.L36:
 138:coapLIB/coap.c ****         return COAP_ERR_OPTION_TOO_BIG;
 139:coapLIB/coap.c **** 
 140:coapLIB/coap.c ****     //printf("option num=%d\n", delta + *running_delta);
 141:coapLIB/coap.c ****     option->num = delta + *running_delta;
 271              		.loc 1 141 5 is_stmt 1 view .LVU89
 272              		.loc 1 141 27 is_stmt 0 view .LVU90
 273 004a 0E88     		ldrh	r6, [r1]
 142:coapLIB/coap.c ****     option->buf.p = p+1;
 143:coapLIB/coap.c ****     option->buf.len = len;
 274              		.loc 1 143 21 view .LVU91
 275 004c 8760     		str	r7, [r0, #8]
 142:coapLIB/coap.c ****     option->buf.p = p+1;
 276              		.loc 1 142 22 view .LVU92
 277 004e 0CF10103 		add	r3, ip, #1
 142:coapLIB/coap.c ****     option->buf.p = p+1;
 278              		.loc 1 142 19 view .LVU93
 279 0052 4360     		str	r3, [r0, #4]
 141:coapLIB/coap.c ****     option->buf.p = p+1;
 280              		.loc 1 141 25 view .LVU94
 281 0054 AB19     		adds	r3, r5, r6
 141:coapLIB/coap.c ****     option->buf.p = p+1;
 282              		.loc 1 141 17 view .LVU95
 283 0056 0370     		strb	r3, [r0]
 142:coapLIB/coap.c ****     option->buf.p = p+1;
 284              		.loc 1 142 5 is_stmt 1 view .LVU96
 285              		.loc 1 143 5 view .LVU97
 144:coapLIB/coap.c ****     //coap_dump(p+1, len, false);
 145:coapLIB/coap.c **** 
 146:coapLIB/coap.c ****     // advance buf
 147:coapLIB/coap.c ****     *buf = p + 1 + len;
 286              		.loc 1 147 5 view .LVU98
 287              		.loc 1 147 10 is_stmt 0 view .LVU99
 288 0058 1460     		str	r4, [r2]
 148:coapLIB/coap.c ****     *running_delta += delta;
 289              		.loc 1 148 5 is_stmt 1 view .LVU100
 149:coapLIB/coap.c **** 
ARM GAS  C:\Users\clay0\AppData\Local\Temp\ccvKv5Cc.s 			page 9


 150:coapLIB/coap.c ****     return 0;
 290              		.loc 1 150 12 is_stmt 0 view .LVU101
 291 005a 0020     		movs	r0, #0
 292              	.LVL23:
 148:coapLIB/coap.c ****     *running_delta += delta;
 293              		.loc 1 148 20 view .LVU102
 294 005c 0B80     		strh	r3, [r1]	@ movhi
 295              		.loc 1 150 5 is_stmt 1 view .LVU103
 296              	.LVL24:
 297              	.L12:
 151:coapLIB/coap.c **** }
 298              		.loc 1 151 1 is_stmt 0 view .LVU104
 299 005e BDE8F081 		pop	{r4, r5, r6, r7, r8, pc}
 300              	.LVL25:
 301              	.L32:
  97:coapLIB/coap.c ****         if (buflen < headlen)
 302              		.loc 1 97 9 is_stmt 1 view .LVU105
  98:coapLIB/coap.c ****             return COAP_ERR_OPTION_TOO_SHORT_FOR_HEADER;
 303              		.loc 1 98 9 view .LVU106
  98:coapLIB/coap.c ****             return COAP_ERR_OPTION_TOO_SHORT_FOR_HEADER;
 304              		.loc 1 98 12 is_stmt 0 view .LVU107
 305 0062 012B     		cmp	r3, #1
 306 0064 28D0     		beq	.L25
 100:coapLIB/coap.c ****         p++;
 307              		.loc 1 100 9 is_stmt 1 view .LVU108
 100:coapLIB/coap.c ****         p++;
 308              		.loc 1 100 18 is_stmt 0 view .LVU109
 309 0066 B446     		mov	ip, r6
 116:coapLIB/coap.c ****     {
 310              		.loc 1 116 8 view .LVU110
 311 0068 BEF10D0F 		cmp	lr, #13
 100:coapLIB/coap.c ****         p++;
 312              		.loc 1 100 18 view .LVU111
 313 006c 1CF8015F 		ldrb	r5, [ip, #1]!	@ zero_extendqisi2
 314 0070 4FF00408 		mov	r8, #4
 100:coapLIB/coap.c ****         p++;
 315              		.loc 1 100 15 view .LVU112
 316 0074 05F10D05 		add	r5, r5, #13
 317              	.LVL26:
 101:coapLIB/coap.c ****     }
 318              		.loc 1 101 9 is_stmt 1 view .LVU113
 101:coapLIB/coap.c ****     }
 319              		.loc 1 101 9 is_stmt 0 view .LVU114
 320 0078 4FF00304 		mov	r4, #3
 321              	.LVL27:
 116:coapLIB/coap.c ****     {
 322              		.loc 1 116 5 is_stmt 1 view .LVU115
 116:coapLIB/coap.c ****     {
 323              		.loc 1 116 8 is_stmt 0 view .LVU116
 324 007c D9D1     		bne	.L17
 325              	.L34:
 118:coapLIB/coap.c ****         if (buflen < headlen)
 326              		.loc 1 118 9 is_stmt 1 view .LVU117
 119:coapLIB/coap.c ****             return COAP_ERR_OPTION_TOO_SHORT_FOR_HEADER;
 327              		.loc 1 119 9 view .LVU118
 119:coapLIB/coap.c ****             return COAP_ERR_OPTION_TOO_SHORT_FOR_HEADER;
 328              		.loc 1 119 12 is_stmt 0 view .LVU119
ARM GAS  C:\Users\clay0\AppData\Local\Temp\ccvKv5Cc.s 			page 10


 329 007e A342     		cmp	r3, r4
 330 0080 1AD3     		bcc	.L25
 121:coapLIB/coap.c ****         p++;
 331              		.loc 1 121 9 is_stmt 1 view .LVU120
 121:coapLIB/coap.c ****         p++;
 332              		.loc 1 121 16 is_stmt 0 view .LVU121
 333 0082 1CF8017F 		ldrb	r7, [ip, #1]!	@ zero_extendqisi2
 334              	.LVL28:
 121:coapLIB/coap.c ****         p++;
 335              		.loc 1 121 13 view .LVU122
 336 0086 0D37     		adds	r7, r7, #13
 337              	.LVL29:
 122:coapLIB/coap.c ****     }
 338              		.loc 1 122 9 is_stmt 1 view .LVU123
 137:coapLIB/coap.c ****         return COAP_ERR_OPTION_TOO_BIG;
 339              		.loc 1 137 5 view .LVU124
 137:coapLIB/coap.c ****         return COAP_ERR_OPTION_TOO_BIG;
 340              		.loc 1 137 16 is_stmt 0 view .LVU125
 341 0088 7C1C     		adds	r4, r7, #1
 137:coapLIB/coap.c ****         return COAP_ERR_OPTION_TOO_BIG;
 342              		.loc 1 137 31 view .LVU126
 343 008a 3344     		add	r3, r3, r6
 344              	.LVL30:
 137:coapLIB/coap.c ****         return COAP_ERR_OPTION_TOO_BIG;
 345              		.loc 1 137 16 view .LVU127
 346 008c 6444     		add	r4, r4, ip
 137:coapLIB/coap.c ****         return COAP_ERR_OPTION_TOO_BIG;
 347              		.loc 1 137 8 view .LVU128
 348 008e 9C42     		cmp	r4, r3
 349 0090 DBD9     		bls	.L36
 350              	.L27:
 138:coapLIB/coap.c **** 
 351              		.loc 1 138 16 view .LVU129
 352 0092 0720     		movs	r0, #7
 353              	.LVL31:
 354              		.loc 1 151 1 view .LVU130
 355 0094 BDE8F081 		pop	{r4, r5, r6, r7, r8, pc}
 356              	.LVL32:
 357              	.L20:
 358              	.LCFI1:
 359              		.cfi_def_cfa_offset 0
 360              		.cfi_restore 4
 361              		.cfi_restore 5
 362              		.cfi_restore 6
 363              		.cfi_restore 7
 364              		.cfi_restore 8
 365              		.cfi_restore 14
  89:coapLIB/coap.c **** 
 366              		.loc 1 89 16 view .LVU131
 367 0098 0420     		movs	r0, #4
 368              	.LVL33:
 369              		.loc 1 151 1 view .LVU132
 370 009a 7047     		bx	lr
 371              	.LVL34:
 372              	.L33:
 373              	.LCFI2:
 374              		.cfi_def_cfa_offset 24
ARM GAS  C:\Users\clay0\AppData\Local\Temp\ccvKv5Cc.s 			page 11


 375              		.cfi_offset 4, -24
 376              		.cfi_offset 5, -20
 377              		.cfi_offset 6, -16
 378              		.cfi_offset 7, -12
 379              		.cfi_offset 8, -8
 380              		.cfi_offset 14, -4
 106:coapLIB/coap.c ****         if (buflen < headlen)
 381              		.loc 1 106 9 is_stmt 1 view .LVU133
 107:coapLIB/coap.c ****             return COAP_ERR_OPTION_TOO_SHORT_FOR_HEADER;
 382              		.loc 1 107 9 view .LVU134
 107:coapLIB/coap.c ****             return COAP_ERR_OPTION_TOO_SHORT_FOR_HEADER;
 383              		.loc 1 107 12 is_stmt 0 view .LVU135
 384 009c 022B     		cmp	r3, #2
 385 009e 0BD9     		bls	.L25
 109:coapLIB/coap.c ****         p+=2;
 386              		.loc 1 109 9 is_stmt 1 view .LVU136
 109:coapLIB/coap.c ****         p+=2;
 387              		.loc 1 109 15 is_stmt 0 view .LVU137
 388 00a0 B6F80150 		ldrh	r5, [r6, #1]	@ unaligned
 389 00a4 6DBA     		rev16	r5, r5
 390 00a6 05F20D15 		addw	r5, r5, #269
 391 00aa ADB2     		uxth	r5, r5
 392              	.LVL35:
 110:coapLIB/coap.c ****     }
 393              		.loc 1 110 9 is_stmt 1 view .LVU138
 110:coapLIB/coap.c ****     }
 394              		.loc 1 110 10 is_stmt 0 view .LVU139
 395 00ac 06F1020C 		add	ip, r6, #2
 396              	.LVL36:
 110:coapLIB/coap.c ****     }
 397              		.loc 1 110 10 view .LVU140
 398 00b0 4FF00508 		mov	r8, #5
 399 00b4 0424     		movs	r4, #4
 400 00b6 B9E7     		b	.L15
 401              	.LVL37:
 402              	.L25:
  89:coapLIB/coap.c **** 
 403              		.loc 1 89 16 view .LVU141
 404 00b8 0420     		movs	r0, #4
 405              	.LVL38:
 406              		.loc 1 151 1 view .LVU142
 407 00ba BDE8F081 		pop	{r4, r5, r6, r7, r8, pc}
 408              	.LVL39:
 409              	.L35:
 127:coapLIB/coap.c ****         if (buflen < headlen)
 410              		.loc 1 127 9 is_stmt 1 view .LVU143
 128:coapLIB/coap.c ****             return COAP_ERR_OPTION_TOO_SHORT_FOR_HEADER;
 411              		.loc 1 128 9 view .LVU144
 128:coapLIB/coap.c ****             return COAP_ERR_OPTION_TOO_SHORT_FOR_HEADER;
 412              		.loc 1 128 12 is_stmt 0 view .LVU145
 413 00be 4345     		cmp	r3, r8
 414 00c0 FAD3     		bcc	.L25
 130:coapLIB/coap.c ****         p+=2;
 415              		.loc 1 130 9 is_stmt 1 view .LVU146
 130:coapLIB/coap.c ****         p+=2;
 416              		.loc 1 130 13 is_stmt 0 view .LVU147
 417 00c2 BCF80170 		ldrh	r7, [ip, #1]	@ unaligned
ARM GAS  C:\Users\clay0\AppData\Local\Temp\ccvKv5Cc.s 			page 12


 418 00c6 7FBA     		rev16	r7, r7
 419 00c8 07F20D17 		addw	r7, r7, #269
 131:coapLIB/coap.c ****     }
 420              		.loc 1 131 10 view .LVU148
 421 00cc 0CF1020C 		add	ip, ip, #2
 422              	.LVL40:
 130:coapLIB/coap.c ****         p+=2;
 423              		.loc 1 130 13 view .LVU149
 424 00d0 BFB2     		uxth	r7, r7
 425              	.LVL41:
 131:coapLIB/coap.c ****     }
 426              		.loc 1 131 9 is_stmt 1 view .LVU150
 131:coapLIB/coap.c ****     }
 427              		.loc 1 131 9 is_stmt 0 view .LVU151
 428 00d2 B5E7     		b	.L18
 429              	.LVL42:
 430              	.L23:
 114:coapLIB/coap.c **** 
 431              		.loc 1 114 16 view .LVU152
 432 00d4 0B20     		movs	r0, #11
 433              	.LVL43:
 114:coapLIB/coap.c **** 
 434              		.loc 1 114 16 view .LVU153
 435 00d6 C2E7     		b	.L12
 436              	.LVL44:
 437              	.L26:
 135:coapLIB/coap.c **** 
 438              		.loc 1 135 16 view .LVU154
 439 00d8 0820     		movs	r0, #8
 440              	.LVL45:
 135:coapLIB/coap.c **** 
 441              		.loc 1 135 16 view .LVU155
 442 00da C0E7     		b	.L12
 443              		.cfi_endproc
 444              	.LFE5:
 446              		.section	.text.coap_parseOptionsAndPayload,"ax",%progbits
 447              		.align	1
 448              		.p2align 2,,3
 449              		.global	coap_parseOptionsAndPayload
 450              		.syntax unified
 451              		.thumb
 452              		.thumb_func
 454              	coap_parseOptionsAndPayload:
 455              	.LVL46:
 456              	.LFB6:
 152:coapLIB/coap.c **** 
 153:coapLIB/coap.c **** // http://tools.ietf.org/html/rfc7252#section-3.1
 154:coapLIB/coap.c **** int coap_parseOptionsAndPayload(coap_option_t *options, uint8_t *numOptions, coap_buffer_t *payload
 155:coapLIB/coap.c **** {
 457              		.loc 1 155 1 is_stmt 1 view -0
 458              		.cfi_startproc
 459              		@ args = 8, pretend = 0, frame = 0
 460              		@ frame_needed = 0, uses_anonymous_args = 0
 156:coapLIB/coap.c ****     size_t optionIndex = 0;
 461              		.loc 1 156 5 view .LVU157
 157:coapLIB/coap.c ****     uint16_t delta = 0;
 462              		.loc 1 157 5 view .LVU158
ARM GAS  C:\Users\clay0\AppData\Local\Temp\ccvKv5Cc.s 			page 13


 158:coapLIB/coap.c ****     const uint8_t *p = buf + 4 + hdr->tkl;
 463              		.loc 1 158 5 view .LVU159
 155:coapLIB/coap.c ****     size_t optionIndex = 0;
 464              		.loc 1 155 1 is_stmt 0 view .LVU160
 465 0000 2DE9F047 		push	{r4, r5, r6, r7, r8, r9, r10, lr}
 466              	.LCFI3:
 467              		.cfi_def_cfa_offset 32
 468              		.cfi_offset 4, -32
 469              		.cfi_offset 5, -28
 470              		.cfi_offset 6, -24
 471              		.cfi_offset 7, -20
 472              		.cfi_offset 8, -16
 473              		.cfi_offset 9, -12
 474              		.cfi_offset 10, -8
 475              		.cfi_offset 14, -4
 476              		.loc 1 158 37 view .LVU161
 477 0004 9B78     		ldrb	r3, [r3, #2]	@ zero_extendqisi2
 478              	.LVL47:
 155:coapLIB/coap.c ****     size_t optionIndex = 0;
 479              		.loc 1 155 1 view .LVU162
 480 0006 089C     		ldr	r4, [sp, #32]
 481 0008 099D     		ldr	r5, [sp, #36]
 482              		.loc 1 158 32 view .LVU163
 483 000a 0433     		adds	r3, r3, #4
 484 000c 2344     		add	r3, r3, r4
 485              	.LVL48:
 159:coapLIB/coap.c ****     const uint8_t *end = buf + buflen;
 486              		.loc 1 159 5 is_stmt 1 view .LVU164
 487              		.loc 1 159 20 is_stmt 0 view .LVU165
 488 000e 2C44     		add	r4, r4, r5
 489              	.LVL49:
 160:coapLIB/coap.c ****     int rc;
 490              		.loc 1 160 5 is_stmt 1 view .LVU166
 161:coapLIB/coap.c ****     if (p > end)
 491              		.loc 1 161 5 view .LVU167
 492              		.loc 1 161 8 is_stmt 0 view .LVU168
 493 0010 A342     		cmp	r3, r4
 494 0012 00F28680 		bhi	.L51
 162:coapLIB/coap.c ****         return COAP_ERR_OPTION_OVERRUNS_PACKET;   // out of bounds
 163:coapLIB/coap.c **** 
 164:coapLIB/coap.c ****     //coap_dump(p, end - p);
 165:coapLIB/coap.c **** 
 166:coapLIB/coap.c ****     // 0xFF is payload marker
 167:coapLIB/coap.c ****     while((optionIndex < *numOptions) && (p < end) && (*p != 0xFF))
 495              		.loc 1 167 10 is_stmt 1 view .LVU169
 496              		.loc 1 167 26 is_stmt 0 view .LVU170
 497 0016 0F78     		ldrb	r7, [r1]	@ zero_extendqisi2
 498              		.loc 1 167 10 view .LVU171
 499 0018 002F     		cmp	r7, #0
 500 001a 72D0     		beq	.L39
 501              		.loc 1 167 39 view .LVU172
 502 001c A342     		cmp	r3, r4
 503 001e 28BF     		it	cs
 504 0020 0027     		movcs	r7, #0
 505 0022 6ED2     		bcs	.L39
 157:coapLIB/coap.c ****     const uint8_t *p = buf + 4 + hdr->tkl;
 506              		.loc 1 157 14 view .LVU173
ARM GAS  C:\Users\clay0\AppData\Local\Temp\ccvKv5Cc.s 			page 14


 507 0024 4FF00008 		mov	r8, #0
 508 0028 8646     		mov	lr, r0
 156:coapLIB/coap.c ****     uint16_t delta = 0;
 509              		.loc 1 156 12 view .LVU174
 510 002a 4746     		mov	r7, r8
 511 002c 26E0     		b	.L48
 512              	.LVL50:
 513              	.L41:
 514              	.LBB21:
 515              	.LBB22:
 104:coapLIB/coap.c ****     {
 516              		.loc 1 104 8 view .LVU175
 517 002e 0E2D     		cmp	r5, #14
  91:coapLIB/coap.c ****     len = p[0] & 0x0F;
 518              		.loc 1 91 11 view .LVU176
 519 0030 1FFA85FC 		uxth	ip, r5
 104:coapLIB/coap.c ****     {
 520              		.loc 1 104 5 is_stmt 1 view .LVU177
 104:coapLIB/coap.c ****     {
 521              		.loc 1 104 8 is_stmt 0 view .LVU178
 522 0034 4AD0     		beq	.L66
 113:coapLIB/coap.c ****         return COAP_ERR_OPTION_DELTA_INVALID;
 523              		.loc 1 113 5 is_stmt 1 view .LVU179
 113:coapLIB/coap.c ****         return COAP_ERR_OPTION_DELTA_INVALID;
 524              		.loc 1 113 8 is_stmt 0 view .LVU180
 525 0036 BCF10F0F 		cmp	ip, #15
 526 003a 6ED0     		beq	.L55
 527 003c 4FF0030A 		mov	r10, #3
 528 0040 0225     		movs	r5, #2
 529              	.LVL51:
 530              	.L42:
 116:coapLIB/coap.c ****     {
 531              		.loc 1 116 5 is_stmt 1 view .LVU181
 116:coapLIB/coap.c ****     {
 532              		.loc 1 116 8 is_stmt 0 view .LVU182
 533 0042 0D28     		cmp	r0, #13
 534 0044 32D0     		beq	.L67
 535              	.L44:
 125:coapLIB/coap.c ****     {
 536              		.loc 1 125 8 view .LVU183
 537 0046 0E28     		cmp	r0, #14
  92:coapLIB/coap.c **** 
 538              		.loc 1 92 9 view .LVU184
 539 0048 86B2     		uxth	r6, r0
 125:coapLIB/coap.c ****     {
 540              		.loc 1 125 5 is_stmt 1 view .LVU185
 125:coapLIB/coap.c ****     {
 541              		.loc 1 125 8 is_stmt 0 view .LVU186
 542 004a 4FD0     		beq	.L68
 134:coapLIB/coap.c ****         return COAP_ERR_OPTION_LEN_INVALID;
 543              		.loc 1 134 5 is_stmt 1 view .LVU187
 134:coapLIB/coap.c ****         return COAP_ERR_OPTION_LEN_INVALID;
 544              		.loc 1 134 8 is_stmt 0 view .LVU188
 545 004c 0F2E     		cmp	r6, #15
 546 004e 66D0     		beq	.L58
 547 0050 1D46     		mov	r5, r3
 548              	.LVL52:
ARM GAS  C:\Users\clay0\AppData\Local\Temp\ccvKv5Cc.s 			page 15


 549              	.L45:
 137:coapLIB/coap.c ****         return COAP_ERR_OPTION_TOO_BIG;
 550              		.loc 1 137 5 is_stmt 1 view .LVU189
 137:coapLIB/coap.c ****         return COAP_ERR_OPTION_TOO_BIG;
 551              		.loc 1 137 16 is_stmt 0 view .LVU190
 552 0052 731C     		adds	r3, r6, #1
 553 0054 2B44     		add	r3, r3, r5
 137:coapLIB/coap.c ****         return COAP_ERR_OPTION_TOO_BIG;
 554              		.loc 1 137 8 view .LVU191
 555 0056 9C42     		cmp	r4, r3
 556 0058 32D3     		bcc	.L59
 557              	.L69:
 141:coapLIB/coap.c ****     option->buf.p = p+1;
 558              		.loc 1 141 5 is_stmt 1 view .LVU192
 142:coapLIB/coap.c ****     option->buf.len = len;
 559              		.loc 1 142 22 is_stmt 0 view .LVU193
 560 005a 0135     		adds	r5, r5, #1
 561              	.LVL53:
 143:coapLIB/coap.c ****     //coap_dump(p+1, len, false);
 562              		.loc 1 143 21 view .LVU194
 563 005c CEE90156 		strd	r5, r6, [lr, #4]
 141:coapLIB/coap.c ****     option->buf.p = p+1;
 564              		.loc 1 141 25 view .LVU195
 565 0060 0CEB0800 		add	r0, ip, r8
 141:coapLIB/coap.c ****     option->buf.p = p+1;
 566              		.loc 1 141 17 view .LVU196
 567 0064 8EF80000 		strb	r0, [lr]
 142:coapLIB/coap.c ****     option->buf.len = len;
 568              		.loc 1 142 5 is_stmt 1 view .LVU197
 147:coapLIB/coap.c ****     *running_delta += delta;
 569              		.loc 1 147 5 view .LVU198
 570              	.LVL54:
 148:coapLIB/coap.c **** 
 571              		.loc 1 148 5 view .LVU199
 572              	.LBE22:
 573              	.LBE21:
 574              		.loc 1 167 26 is_stmt 0 view .LVU200
 575 0068 0D78     		ldrb	r5, [r1]	@ zero_extendqisi2
 576              	.LVL55:
 168:coapLIB/coap.c ****     {
 169:coapLIB/coap.c ****         if (0 != (rc = coap_parseOption(&options[optionIndex], &delta, &p, end-p)))
 170:coapLIB/coap.c ****             return rc;
 171:coapLIB/coap.c ****         optionIndex++;
 577              		.loc 1 171 20 view .LVU201
 578 006a 0137     		adds	r7, r7, #1
 579              	.LVL56:
 167:coapLIB/coap.c ****     {
 580              		.loc 1 167 10 view .LVU202
 581 006c BD42     		cmp	r5, r7
 582              	.LBB28:
 583              	.LBB23:
 148:coapLIB/coap.c **** 
 584              		.loc 1 148 20 view .LVU203
 585 006e 1FFA80F8 		uxth	r8, r0
 586              	.LVL57:
 150:coapLIB/coap.c **** }
 587              		.loc 1 150 5 is_stmt 1 view .LVU204
ARM GAS  C:\Users\clay0\AppData\Local\Temp\ccvKv5Cc.s 			page 16


 150:coapLIB/coap.c **** }
 588              		.loc 1 150 5 is_stmt 0 view .LVU205
 589              	.LBE23:
 590              	.LBE28:
 591              		.loc 1 171 9 is_stmt 1 view .LVU206
 167:coapLIB/coap.c ****     {
 592              		.loc 1 167 10 view .LVU207
 593 0072 45D9     		bls	.L65
 167:coapLIB/coap.c ****     {
 594              		.loc 1 167 39 is_stmt 0 discriminator 1 view .LVU208
 595 0074 9C42     		cmp	r4, r3
 596 0076 0EF10C0E 		add	lr, lr, #12
 597 007a 41D9     		bls	.L65
 598              	.LVL58:
 599              	.L48:
 167:coapLIB/coap.c ****     {
 600              		.loc 1 167 56 discriminator 2 view .LVU209
 601 007c 1878     		ldrb	r0, [r3]	@ zero_extendqisi2
 167:coapLIB/coap.c ****     {
 602              		.loc 1 167 52 discriminator 2 view .LVU210
 603 007e FF28     		cmp	r0, #255
 604 0080 3ED0     		beq	.L65
 169:coapLIB/coap.c ****             return rc;
 605              		.loc 1 169 9 is_stmt 1 view .LVU211
 606              	.LVL59:
 607              	.LBB29:
 608              	.LBI21:
  82:coapLIB/coap.c **** {
 609              		.loc 1 82 5 view .LVU212
 610              	.LBB24:
  84:coapLIB/coap.c ****     uint8_t headlen = 1;
 611              		.loc 1 84 5 view .LVU213
  85:coapLIB/coap.c ****     uint16_t len, delta;
 612              		.loc 1 85 5 view .LVU214
  86:coapLIB/coap.c **** 
 613              		.loc 1 86 5 view .LVU215
  88:coapLIB/coap.c ****         return COAP_ERR_OPTION_TOO_SHORT_FOR_HEADER;
 614              		.loc 1 88 5 view .LVU216
  88:coapLIB/coap.c ****         return COAP_ERR_OPTION_TOO_SHORT_FOR_HEADER;
 615              		.loc 1 88 8 is_stmt 0 view .LVU217
 616 0082 B4EB0309 		subs	r9, r4, r3
 617              	.LVL60:
  88:coapLIB/coap.c ****         return COAP_ERR_OPTION_TOO_SHORT_FOR_HEADER;
 618              		.loc 1 88 8 view .LVU218
 619 0086 1ED0     		beq	.L57
  91:coapLIB/coap.c ****     len = p[0] & 0x0F;
 620              		.loc 1 91 5 is_stmt 1 view .LVU219
  91:coapLIB/coap.c ****     len = p[0] & 0x0F;
 621              		.loc 1 91 27 is_stmt 0 view .LVU220
 622 0088 0509     		lsrs	r5, r0, #4
 623              	.LVL61:
  92:coapLIB/coap.c **** 
 624              		.loc 1 92 5 is_stmt 1 view .LVU221
  95:coapLIB/coap.c ****     {
 625              		.loc 1 95 8 is_stmt 0 view .LVU222
 626 008a 0D2D     		cmp	r5, #13
 627 008c 00F00F00 		and	r0, r0, #15
ARM GAS  C:\Users\clay0\AppData\Local\Temp\ccvKv5Cc.s 			page 17


 628              	.LVL62:
  95:coapLIB/coap.c ****     {
 629              		.loc 1 95 5 is_stmt 1 view .LVU223
  95:coapLIB/coap.c ****     {
 630              		.loc 1 95 8 is_stmt 0 view .LVU224
 631 0090 CDD1     		bne	.L41
  97:coapLIB/coap.c ****         if (buflen < headlen)
 632              		.loc 1 97 9 is_stmt 1 view .LVU225
 633              	.LVL63:
  98:coapLIB/coap.c ****             return COAP_ERR_OPTION_TOO_SHORT_FOR_HEADER;
 634              		.loc 1 98 9 view .LVU226
  98:coapLIB/coap.c ****             return COAP_ERR_OPTION_TOO_SHORT_FOR_HEADER;
 635              		.loc 1 98 12 is_stmt 0 view .LVU227
 636 0092 B9F1010F 		cmp	r9, #1
 637 0096 16D0     		beq	.L57
 100:coapLIB/coap.c ****         p++;
 638              		.loc 1 100 9 is_stmt 1 view .LVU228
 100:coapLIB/coap.c ****         p++;
 639              		.loc 1 100 18 is_stmt 0 view .LVU229
 640 0098 13F801CF 		ldrb	ip, [r3, #1]!	@ zero_extendqisi2
 641              	.LVL64:
 116:coapLIB/coap.c ****     {
 642              		.loc 1 116 8 view .LVU230
 643 009c 0D28     		cmp	r0, #13
 100:coapLIB/coap.c ****         p++;
 644              		.loc 1 100 15 view .LVU231
 645 009e 0CF10D0C 		add	ip, ip, #13
 646              	.LVL65:
 101:coapLIB/coap.c ****     }
 647              		.loc 1 101 9 is_stmt 1 view .LVU232
 101:coapLIB/coap.c ****     }
 648              		.loc 1 101 9 is_stmt 0 view .LVU233
 649 00a2 4FF0040A 		mov	r10, #4
 650 00a6 4FF00305 		mov	r5, #3
 651              	.LVL66:
 116:coapLIB/coap.c ****     {
 652              		.loc 1 116 5 is_stmt 1 view .LVU234
 116:coapLIB/coap.c ****     {
 653              		.loc 1 116 8 is_stmt 0 view .LVU235
 654 00aa CCD1     		bne	.L44
 655              	.LVL67:
 656              	.L67:
 118:coapLIB/coap.c ****         if (buflen < headlen)
 657              		.loc 1 118 9 is_stmt 1 view .LVU236
 119:coapLIB/coap.c ****             return COAP_ERR_OPTION_TOO_SHORT_FOR_HEADER;
 658              		.loc 1 119 9 view .LVU237
 119:coapLIB/coap.c ****             return COAP_ERR_OPTION_TOO_SHORT_FOR_HEADER;
 659              		.loc 1 119 12 is_stmt 0 view .LVU238
 660 00ac A945     		cmp	r9, r5
 661 00ae 0AD3     		bcc	.L57
 121:coapLIB/coap.c ****         p++;
 662              		.loc 1 121 9 is_stmt 1 view .LVU239
 121:coapLIB/coap.c ****         p++;
 663              		.loc 1 121 16 is_stmt 0 view .LVU240
 664 00b0 1D46     		mov	r5, r3
 665 00b2 15F8016F 		ldrb	r6, [r5, #1]!	@ zero_extendqisi2
 121:coapLIB/coap.c ****         p++;
ARM GAS  C:\Users\clay0\AppData\Local\Temp\ccvKv5Cc.s 			page 18


 666              		.loc 1 121 13 view .LVU241
 667 00b6 0D36     		adds	r6, r6, #13
 668              	.LVL68:
 122:coapLIB/coap.c ****     }
 669              		.loc 1 122 9 is_stmt 1 view .LVU242
 137:coapLIB/coap.c ****         return COAP_ERR_OPTION_TOO_BIG;
 670              		.loc 1 137 5 view .LVU243
 137:coapLIB/coap.c ****         return COAP_ERR_OPTION_TOO_BIG;
 671              		.loc 1 137 16 is_stmt 0 view .LVU244
 672 00b8 731C     		adds	r3, r6, #1
 673 00ba 2B44     		add	r3, r3, r5
 137:coapLIB/coap.c ****         return COAP_ERR_OPTION_TOO_BIG;
 674              		.loc 1 137 8 view .LVU245
 675 00bc 9C42     		cmp	r4, r3
 676 00be CCD2     		bcs	.L69
 677              	.L59:
 138:coapLIB/coap.c **** 
 678              		.loc 1 138 16 view .LVU246
 679 00c0 0720     		movs	r0, #7
 680              	.LVL69:
 138:coapLIB/coap.c **** 
 681              		.loc 1 138 16 view .LVU247
 682              	.LBE24:
 683              	.LBE29:
 172:coapLIB/coap.c ****     }
 173:coapLIB/coap.c ****     *numOptions = optionIndex;
 174:coapLIB/coap.c **** 
 175:coapLIB/coap.c ****     if (p+1 < end && *p == 0xFF)  // payload marker
 176:coapLIB/coap.c ****     {
 177:coapLIB/coap.c ****         payload->p = p+1;
 178:coapLIB/coap.c ****         payload->len = end-(p+1);
 179:coapLIB/coap.c ****     }
 180:coapLIB/coap.c ****     else
 181:coapLIB/coap.c ****     {
 182:coapLIB/coap.c ****         payload->p = NULL;
 183:coapLIB/coap.c ****         payload->len = 0;
 184:coapLIB/coap.c ****     }
 185:coapLIB/coap.c **** 
 186:coapLIB/coap.c ****     return 0;
 187:coapLIB/coap.c **** }
 684              		.loc 1 187 1 view .LVU248
 685 00c2 BDE8F087 		pop	{r4, r5, r6, r7, r8, r9, r10, pc}
 686              	.LVL70:
 687              	.L57:
 688              	.LBB30:
 689              	.LBB25:
  89:coapLIB/coap.c **** 
 690              		.loc 1 89 16 view .LVU249
 691 00c6 0420     		movs	r0, #4
 692              	.LVL71:
 693              	.L37:
  89:coapLIB/coap.c **** 
 694              		.loc 1 89 16 view .LVU250
 695              	.LBE25:
 696              	.LBE30:
 697              		.loc 1 187 1 view .LVU251
 698 00c8 BDE8F087 		pop	{r4, r5, r6, r7, r8, r9, r10, pc}
ARM GAS  C:\Users\clay0\AppData\Local\Temp\ccvKv5Cc.s 			page 19


 699              	.LVL72:
 700              	.L66:
 701              	.LBB31:
 702              	.LBB26:
 106:coapLIB/coap.c ****         if (buflen < headlen)
 703              		.loc 1 106 9 is_stmt 1 view .LVU252
 107:coapLIB/coap.c ****             return COAP_ERR_OPTION_TOO_SHORT_FOR_HEADER;
 704              		.loc 1 107 9 view .LVU253
 107:coapLIB/coap.c ****             return COAP_ERR_OPTION_TOO_SHORT_FOR_HEADER;
 705              		.loc 1 107 12 is_stmt 0 view .LVU254
 706 00cc B9F1020F 		cmp	r9, #2
 707 00d0 F9D9     		bls	.L57
 109:coapLIB/coap.c ****         p+=2;
 708              		.loc 1 109 9 is_stmt 1 view .LVU255
 109:coapLIB/coap.c ****         p+=2;
 709              		.loc 1 109 15 is_stmt 0 view .LVU256
 710 00d2 B3F801C0 		ldrh	ip, [r3, #1]	@ unaligned
 711 00d6 9CFA9CFC 		rev16	ip, ip
 712 00da 0CF20D1C 		addw	ip, ip, #269
 110:coapLIB/coap.c ****     }
 713              		.loc 1 110 10 view .LVU257
 714 00de 0233     		adds	r3, r3, #2
 715              	.LVL73:
 109:coapLIB/coap.c ****         p+=2;
 716              		.loc 1 109 15 view .LVU258
 717 00e0 1FFA8CFC 		uxth	ip, ip
 718              	.LVL74:
 110:coapLIB/coap.c ****     }
 719              		.loc 1 110 9 is_stmt 1 view .LVU259
 110:coapLIB/coap.c ****     }
 720              		.loc 1 110 9 is_stmt 0 view .LVU260
 721 00e4 4FF0050A 		mov	r10, #5
 722 00e8 0425     		movs	r5, #4
 723 00ea AAE7     		b	.L42
 724              	.LVL75:
 725              	.L68:
 127:coapLIB/coap.c ****         if (buflen < headlen)
 726              		.loc 1 127 9 is_stmt 1 view .LVU261
 128:coapLIB/coap.c ****             return COAP_ERR_OPTION_TOO_SHORT_FOR_HEADER;
 727              		.loc 1 128 9 view .LVU262
 128:coapLIB/coap.c ****             return COAP_ERR_OPTION_TOO_SHORT_FOR_HEADER;
 728              		.loc 1 128 12 is_stmt 0 view .LVU263
 729 00ec D145     		cmp	r9, r10
 730 00ee EAD3     		bcc	.L57
 130:coapLIB/coap.c ****         p+=2;
 731              		.loc 1 130 9 is_stmt 1 view .LVU264
 130:coapLIB/coap.c ****         p+=2;
 732              		.loc 1 130 13 is_stmt 0 view .LVU265
 733 00f0 B3F80160 		ldrh	r6, [r3, #1]	@ unaligned
 734 00f4 76BA     		rev16	r6, r6
 735 00f6 06F20D16 		addw	r6, r6, #269
 131:coapLIB/coap.c ****     }
 736              		.loc 1 131 10 view .LVU266
 737 00fa 9D1C     		adds	r5, r3, #2
 130:coapLIB/coap.c ****         p+=2;
 738              		.loc 1 130 13 view .LVU267
 739 00fc B6B2     		uxth	r6, r6
ARM GAS  C:\Users\clay0\AppData\Local\Temp\ccvKv5Cc.s 			page 20


 740              	.LVL76:
 131:coapLIB/coap.c ****     }
 741              		.loc 1 131 9 is_stmt 1 view .LVU268
 131:coapLIB/coap.c ****     }
 742              		.loc 1 131 9 is_stmt 0 view .LVU269
 743 00fe A8E7     		b	.L45
 744              	.LVL77:
 745              	.L65:
 131:coapLIB/coap.c ****     }
 746              		.loc 1 131 9 view .LVU270
 747              	.LBE26:
 748              	.LBE31:
 173:coapLIB/coap.c **** 
 749              		.loc 1 173 17 view .LVU271
 750 0100 FFB2     		uxtb	r7, r7
 751              	.LVL78:
 752              	.L39:
 173:coapLIB/coap.c **** 
 753              		.loc 1 173 5 is_stmt 1 view .LVU272
 173:coapLIB/coap.c **** 
 754              		.loc 1 173 17 is_stmt 0 view .LVU273
 755 0102 0F70     		strb	r7, [r1]
 175:coapLIB/coap.c ****     {
 756              		.loc 1 175 5 is_stmt 1 view .LVU274
 175:coapLIB/coap.c ****     {
 757              		.loc 1 175 10 is_stmt 0 view .LVU275
 758 0104 591C     		adds	r1, r3, #1
 759              	.LVL79:
 175:coapLIB/coap.c ****     {
 760              		.loc 1 175 8 view .LVU276
 761 0106 A142     		cmp	r1, r4
 762 0108 02D2     		bcs	.L50
 175:coapLIB/coap.c ****     {
 763              		.loc 1 175 19 discriminator 1 view .LVU277
 764 010a 1B78     		ldrb	r3, [r3]	@ zero_extendqisi2
 765              	.LVL80:
 175:coapLIB/coap.c ****     {
 766              		.loc 1 175 19 discriminator 1 view .LVU278
 767 010c FF2B     		cmp	r3, #255
 768 010e 0AD0     		beq	.L70
 769              	.L50:
 182:coapLIB/coap.c ****         payload->len = 0;
 770              		.loc 1 182 9 is_stmt 1 view .LVU279
 182:coapLIB/coap.c ****         payload->len = 0;
 771              		.loc 1 182 20 is_stmt 0 view .LVU280
 772 0110 0020     		movs	r0, #0
 183:coapLIB/coap.c ****     }
 773              		.loc 1 183 22 view .LVU281
 774 0112 C2E90000 		strd	r0, r0, [r2]
 775              		.loc 1 187 1 view .LVU282
 776 0116 BDE8F087 		pop	{r4, r5, r6, r7, r8, r9, r10, pc}
 777              	.LVL81:
 778              	.L55:
 779              	.LBB32:
 780              	.LBB27:
 114:coapLIB/coap.c **** 
 781              		.loc 1 114 16 view .LVU283
ARM GAS  C:\Users\clay0\AppData\Local\Temp\ccvKv5Cc.s 			page 21


 782 011a 0B20     		movs	r0, #11
 783              	.LVL82:
 114:coapLIB/coap.c **** 
 784              		.loc 1 114 16 view .LVU284
 785 011c D4E7     		b	.L37
 786              	.LVL83:
 787              	.L58:
 135:coapLIB/coap.c **** 
 788              		.loc 1 135 16 view .LVU285
 789 011e 0820     		movs	r0, #8
 790              	.LVL84:
 135:coapLIB/coap.c **** 
 791              		.loc 1 135 16 view .LVU286
 792 0120 D2E7     		b	.L37
 793              	.LVL85:
 794              	.L51:
 135:coapLIB/coap.c **** 
 795              		.loc 1 135 16 view .LVU287
 796              	.LBE27:
 797              	.LBE32:
 162:coapLIB/coap.c **** 
 798              		.loc 1 162 16 view .LVU288
 799 0122 0620     		movs	r0, #6
 800              	.LVL86:
 162:coapLIB/coap.c **** 
 801              		.loc 1 162 16 view .LVU289
 802 0124 D0E7     		b	.L37
 803              	.LVL87:
 804              	.L70:
 177:coapLIB/coap.c ****         payload->len = end-(p+1);
 805              		.loc 1 177 9 is_stmt 1 view .LVU290
 178:coapLIB/coap.c ****     }
 806              		.loc 1 178 27 is_stmt 0 view .LVU291
 807 0126 641A     		subs	r4, r4, r1
 808              	.LVL88:
 178:coapLIB/coap.c ****     }
 809              		.loc 1 178 22 view .LVU292
 810 0128 C2E90014 		strd	r1, r4, [r2]
 186:coapLIB/coap.c **** }
 811              		.loc 1 186 12 view .LVU293
 812 012c 0020     		movs	r0, #0
 178:coapLIB/coap.c ****     }
 813              		.loc 1 178 22 view .LVU294
 814 012e CBE7     		b	.L37
 815              		.cfi_endproc
 816              	.LFE6:
 818              		.section	.text.coap_parse,"ax",%progbits
 819              		.align	1
 820              		.p2align 2,,3
 821              		.global	coap_parse
 822              		.syntax unified
 823              		.thumb
 824              		.thumb_func
 826              	coap_parse:
 827              	.LVL89:
 828              	.LFB7:
 188:coapLIB/coap.c **** 
ARM GAS  C:\Users\clay0\AppData\Local\Temp\ccvKv5Cc.s 			page 22


 189:coapLIB/coap.c **** #ifdef DEBUG
 190:coapLIB/coap.c **** void coap_dumpOptions(coap_option_t *opts, size_t numopt)
 191:coapLIB/coap.c **** {
 192:coapLIB/coap.c ****     size_t i;
 193:coapLIB/coap.c ****     printf(" Options:\n");
 194:coapLIB/coap.c ****     for (i=0;i<numopt;i++)
 195:coapLIB/coap.c ****     {
 196:coapLIB/coap.c ****         printf("  0x%02X [ ", opts[i].num);
 197:coapLIB/coap.c ****         coap_dump(opts[i].buf.p, opts[i].buf.len, true);
 198:coapLIB/coap.c ****         printf(" ]\n");
 199:coapLIB/coap.c ****     }
 200:coapLIB/coap.c **** }
 201:coapLIB/coap.c **** #endif
 202:coapLIB/coap.c **** 
 203:coapLIB/coap.c **** #ifdef DEBUG
 204:coapLIB/coap.c **** void coap_dumpPacket(coap_packet_t *pkt)
 205:coapLIB/coap.c **** {
 206:coapLIB/coap.c ****     coap_dumpHeader(&pkt->hdr);
 207:coapLIB/coap.c ****     coap_dumpOptions(pkt->opts, pkt->numopts);
 208:coapLIB/coap.c ****     printf("Payload: ");
 209:coapLIB/coap.c ****     coap_dump(pkt->payload.p, pkt->payload.len, true);
 210:coapLIB/coap.c ****     printf("\n");
 211:coapLIB/coap.c **** }
 212:coapLIB/coap.c **** #endif
 213:coapLIB/coap.c **** 
 214:coapLIB/coap.c **** int coap_parse(coap_packet_t *pkt, const uint8_t *buf, size_t buflen)
 215:coapLIB/coap.c **** {
 829              		.loc 1 215 1 is_stmt 1 view -0
 830              		.cfi_startproc
 831              		@ args = 0, pretend = 0, frame = 0
 832              		@ frame_needed = 0, uses_anonymous_args = 0
 216:coapLIB/coap.c ****     int rc;
 833              		.loc 1 216 5 view .LVU296
 217:coapLIB/coap.c **** 
 218:coapLIB/coap.c ****     // coap_dump(buf, buflen, false);
 219:coapLIB/coap.c **** 
 220:coapLIB/coap.c ****     if (0 != (rc = coap_parseHeader(&pkt->hdr, buf, buflen)))
 834              		.loc 1 220 5 view .LVU297
 835              	.LBB39:
 836              	.LBI39:
  42:coapLIB/coap.c **** {
 837              		.loc 1 42 5 view .LVU298
 838              	.LBB40:
  44:coapLIB/coap.c ****         return COAP_ERR_HEADER_TOO_SHORT;
 839              		.loc 1 44 5 view .LVU299
  44:coapLIB/coap.c ****         return COAP_ERR_HEADER_TOO_SHORT;
 840              		.loc 1 44 8 is_stmt 0 view .LVU300
 841 0000 032A     		cmp	r2, #3
 842 0002 34D9     		bls	.L75
  46:coapLIB/coap.c ****     if (hdr->ver != 1)
 843              		.loc 1 46 5 is_stmt 1 view .LVU301
  46:coapLIB/coap.c ****     if (hdr->ver != 1)
 844              		.loc 1 46 32 is_stmt 0 view .LVU302
 845 0004 0B78     		ldrb	r3, [r1]	@ zero_extendqisi2
 846 0006 9B09     		lsrs	r3, r3, #6
  47:coapLIB/coap.c ****         return COAP_ERR_VERSION_NOT_1;
 847              		.loc 1 47 8 view .LVU303
ARM GAS  C:\Users\clay0\AppData\Local\Temp\ccvKv5Cc.s 			page 23


 848 0008 012B     		cmp	r3, #1
  46:coapLIB/coap.c ****     if (hdr->ver != 1)
 849              		.loc 1 46 14 view .LVU304
 850 000a 0370     		strb	r3, [r0]
  47:coapLIB/coap.c ****         return COAP_ERR_VERSION_NOT_1;
 851              		.loc 1 47 5 is_stmt 1 view .LVU305
  47:coapLIB/coap.c ****         return COAP_ERR_VERSION_NOT_1;
 852              		.loc 1 47 8 is_stmt 0 view .LVU306
 853 000c 2DD1     		bne	.L76
 854              	.LVL90:
 855              	.LBB41:
 856              	.LBI41:
  42:coapLIB/coap.c **** {
 857              		.loc 1 42 5 is_stmt 1 view .LVU307
 858              	.LBB42:
  49:coapLIB/coap.c ****     hdr->tkl = buf[0] & 0x0F;
 859              		.loc 1 49 5 view .LVU308
 860              	.LBE42:
 861              	.LBE41:
 862              	.LBE40:
 863              	.LBE39:
 215:coapLIB/coap.c ****     int rc;
 864              		.loc 1 215 1 is_stmt 0 view .LVU309
 865 000e 10B5     		push	{r4, lr}
 866              	.LCFI4:
 867              		.cfi_def_cfa_offset 8
 868              		.cfi_offset 4, -8
 869              		.cfi_offset 14, -4
 870              	.LBB48:
 871              	.LBB45:
 872              	.LBB44:
 873              	.LBB43:
  49:coapLIB/coap.c ****     hdr->tkl = buf[0] & 0x0F;
 874              		.loc 1 49 30 view .LVU310
 875 0010 0B78     		ldrb	r3, [r1]	@ zero_extendqisi2
 876 0012 C3F30113 		ubfx	r3, r3, #4, #2
  49:coapLIB/coap.c ****     hdr->tkl = buf[0] & 0x0F;
 877              		.loc 1 49 12 view .LVU311
 878 0016 4370     		strb	r3, [r0, #1]
  50:coapLIB/coap.c ****     hdr->code = buf[1];
 879              		.loc 1 50 5 is_stmt 1 view .LVU312
  50:coapLIB/coap.c ****     hdr->code = buf[1];
 880              		.loc 1 50 23 is_stmt 0 view .LVU313
 881 0018 0B78     		ldrb	r3, [r1]	@ zero_extendqisi2
 882 001a 03F00F03 		and	r3, r3, #15
  50:coapLIB/coap.c ****     hdr->code = buf[1];
 883              		.loc 1 50 14 view .LVU314
 884 001e 8370     		strb	r3, [r0, #2]
  51:coapLIB/coap.c ****     hdr->id[0] = buf[2];
 885              		.loc 1 51 5 is_stmt 1 view .LVU315
  51:coapLIB/coap.c ****     hdr->id[0] = buf[2];
 886              		.loc 1 51 15 is_stmt 0 view .LVU316
 887 0020 91F801C0 		ldrb	ip, [r1, #1]	@ zero_extendqisi2
 888 0024 80F803C0 		strb	ip, [r0, #3]
  52:coapLIB/coap.c ****     hdr->id[1] = buf[3];
 889              		.loc 1 52 5 is_stmt 1 view .LVU317
  52:coapLIB/coap.c ****     hdr->id[1] = buf[3];
ARM GAS  C:\Users\clay0\AppData\Local\Temp\ccvKv5Cc.s 			page 24


 890              		.loc 1 52 16 is_stmt 0 view .LVU318
 891 0028 91F802C0 		ldrb	ip, [r1, #2]	@ zero_extendqisi2
 892 002c 80F804C0 		strb	ip, [r0, #4]
  53:coapLIB/coap.c ****     return 0;
 893              		.loc 1 53 5 is_stmt 1 view .LVU319
  53:coapLIB/coap.c ****     return 0;
 894              		.loc 1 53 16 is_stmt 0 view .LVU320
 895 0030 91F803C0 		ldrb	ip, [r1, #3]	@ zero_extendqisi2
 896 0034 80F805C0 		strb	ip, [r0, #5]
  54:coapLIB/coap.c **** }
 897              		.loc 1 54 5 is_stmt 1 view .LVU321
 898              	.LVL91:
  54:coapLIB/coap.c **** }
 899              		.loc 1 54 5 is_stmt 0 view .LVU322
 900              	.LBE43:
 901              	.LBE44:
 902              	.LBE45:
 903              	.LBE48:
 221:coapLIB/coap.c ****         return rc;
 222:coapLIB/coap.c **** //    coap_dumpHeader(&hdr);
 223:coapLIB/coap.c ****     if (0 != (rc = coap_parseToken(&pkt->tok, &pkt->hdr, buf, buflen)))
 904              		.loc 1 223 5 is_stmt 1 view .LVU323
 905              	.LBB49:
 906              	.LBI49:
  57:coapLIB/coap.c **** {
 907              		.loc 1 57 5 view .LVU324
 908              	.LBB50:
  59:coapLIB/coap.c ****     {
 909              		.loc 1 59 5 view .LVU325
 910              	.LBE50:
 911              	.LBE49:
 215:coapLIB/coap.c ****     int rc;
 912              		.loc 1 215 1 is_stmt 0 view .LVU326
 913 0038 82B0     		sub	sp, sp, #8
 914              	.LCFI5:
 915              		.cfi_def_cfa_offset 16
 916              	.LBB53:
 917              	.LBB51:
  59:coapLIB/coap.c ****     {
 918              		.loc 1 59 8 view .LVU327
 919 003a E3B1     		cbz	r3, .L83
  66:coapLIB/coap.c ****     {
 920              		.loc 1 66 5 is_stmt 1 view .LVU328
  66:coapLIB/coap.c ****     {
 921              		.loc 1 66 8 is_stmt 0 view .LVU329
 922 003c 082B     		cmp	r3, #8
 923 003e 18D8     		bhi	.L78
  68:coapLIB/coap.c ****             return COAP_ERR_TOKEN_TOO_SHORT;   // tok bigger than packet
 924              		.loc 1 68 9 is_stmt 1 view .LVU330
  68:coapLIB/coap.c ****             return COAP_ERR_TOKEN_TOO_SHORT;   // tok bigger than packet
 925              		.loc 1 68 16 is_stmt 0 view .LVU331
 926 0040 03F1040C 		add	ip, r3, #4
  68:coapLIB/coap.c ****             return COAP_ERR_TOKEN_TOO_SHORT;   // tok bigger than packet
 927              		.loc 1 68 12 view .LVU332
 928 0044 6245     		cmp	r2, ip
 929 0046 14D3     		bcc	.L78
  70:coapLIB/coap.c ****         tokbuf->len = hdr->tkl;
ARM GAS  C:\Users\clay0\AppData\Local\Temp\ccvKv5Cc.s 			page 25


 930              		.loc 1 70 9 is_stmt 1 view .LVU333
  70:coapLIB/coap.c ****         tokbuf->len = hdr->tkl;
 931              		.loc 1 70 24 is_stmt 0 view .LVU334
 932 0048 0C1D     		adds	r4, r1, #4
  68:coapLIB/coap.c ****             return COAP_ERR_TOKEN_TOO_SHORT;   // tok bigger than packet
 933              		.loc 1 68 21 view .LVU335
 934 004a C0E90243 		strd	r4, r3, [r0, #8]
  72:coapLIB/coap.c ****     }
 935              		.loc 1 72 9 is_stmt 1 view .LVU336
 936              	.LVL92:
 937              	.L74:
  72:coapLIB/coap.c ****     }
 938              		.loc 1 72 9 is_stmt 0 view .LVU337
 939              	.LBE51:
 940              	.LBE53:
 224:coapLIB/coap.c ****         return rc;
 225:coapLIB/coap.c ****     pkt->numopts = MAXOPT;
 941              		.loc 1 225 5 is_stmt 1 view .LVU338
 942              		.loc 1 225 18 is_stmt 0 view .LVU339
 943 004e 1023     		movs	r3, #16
 944 0050 0374     		strb	r3, [r0, #16]
 226:coapLIB/coap.c ****     if (0 != (rc = coap_parseOptionsAndPayload(pkt->opts, &(pkt->numopts), &(pkt->payload), &pkt->h
 945              		.loc 1 226 5 is_stmt 1 view .LVU340
 946              		.loc 1 226 20 is_stmt 0 view .LVU341
 947 0052 CDE90012 		strd	r1, r2, [sp]
 948 0056 0346     		mov	r3, r0
 949 0058 00F1D402 		add	r2, r0, #212
 950              	.LVL93:
 951              		.loc 1 226 20 view .LVU342
 952 005c 00F11001 		add	r1, r0, #16
 953              	.LVL94:
 954              		.loc 1 226 20 view .LVU343
 955 0060 1430     		adds	r0, r0, #20
 956              	.LVL95:
 957              		.loc 1 226 20 view .LVU344
 958 0062 FFF7FEFF 		bl	coap_parseOptionsAndPayload
 959              	.LVL96:
 960              	.L71:
 227:coapLIB/coap.c ****         return rc;
 228:coapLIB/coap.c **** //    coap_dumpOptions(opts, numopt);
 229:coapLIB/coap.c ****     return 0;
 230:coapLIB/coap.c **** }
 961              		.loc 1 230 1 view .LVU345
 962 0066 02B0     		add	sp, sp, #8
 963              	.LCFI6:
 964              		.cfi_def_cfa_offset 8
 965              		@ sp needed
 966 0068 10BD     		pop	{r4, pc}
 967              	.LVL97:
 968              	.L76:
 969              	.LCFI7:
 970              		.cfi_def_cfa_offset 0
 971              		.cfi_restore 4
 972              		.cfi_restore 14
 973              	.LBB54:
 974              	.LBB46:
  48:coapLIB/coap.c ****     hdr->t = (buf[0] & 0x30) >> 4;
ARM GAS  C:\Users\clay0\AppData\Local\Temp\ccvKv5Cc.s 			page 26


 975              		.loc 1 48 16 view .LVU346
 976 006a 0220     		movs	r0, #2
 977              	.LVL98:
  48:coapLIB/coap.c ****     hdr->t = (buf[0] & 0x30) >> 4;
 978              		.loc 1 48 16 view .LVU347
 979              	.LBE46:
 980              	.LBE54:
 981              		.loc 1 230 1 view .LVU348
 982 006c 7047     		bx	lr
 983              	.LVL99:
 984              	.L75:
 985              	.LBB55:
 986              	.LBB47:
  45:coapLIB/coap.c ****     hdr->ver = (buf[0] & 0xC0) >> 6;
 987              		.loc 1 45 16 view .LVU349
 988 006e 0120     		movs	r0, #1
 989              	.LVL100:
  45:coapLIB/coap.c ****     hdr->ver = (buf[0] & 0xC0) >> 6;
 990              		.loc 1 45 16 view .LVU350
 991 0070 7047     		bx	lr
 992              	.LVL101:
 993              	.L78:
 994              	.LCFI8:
 995              		.cfi_def_cfa_offset 16
 996              		.cfi_offset 4, -8
 997              		.cfi_offset 14, -4
  45:coapLIB/coap.c ****     hdr->ver = (buf[0] & 0xC0) >> 6;
 998              		.loc 1 45 16 view .LVU351
 999              	.LBE47:
 1000              	.LBE55:
 1001              	.LBB56:
 1002              	.LBB52:
 1003 0072 0320     		movs	r0, #3
 1004              	.LVL102:
  45:coapLIB/coap.c ****     hdr->ver = (buf[0] & 0xC0) >> 6;
 1005              		.loc 1 45 16 view .LVU352
 1006 0074 F7E7     		b	.L71
 1007              	.LVL103:
 1008              	.L83:
  61:coapLIB/coap.c ****         tokbuf->len = 0;
 1009              		.loc 1 61 9 is_stmt 1 view .LVU353
  62:coapLIB/coap.c ****         return 0;
 1010              		.loc 1 62 21 is_stmt 0 view .LVU354
 1011 0076 C0E90233 		strd	r3, r3, [r0, #8]
  63:coapLIB/coap.c ****     }
 1012              		.loc 1 63 9 is_stmt 1 view .LVU355
 1013              	.LVL104:
  63:coapLIB/coap.c ****     }
 1014              		.loc 1 63 9 is_stmt 0 view .LVU356
 1015 007a E8E7     		b	.L74
 1016              	.LBE52:
 1017              	.LBE56:
 1018              		.cfi_endproc
 1019              	.LFE7:
 1021              		.section	.text.coap_findOptions,"ax",%progbits
 1022              		.align	1
 1023              		.p2align 2,,3
ARM GAS  C:\Users\clay0\AppData\Local\Temp\ccvKv5Cc.s 			page 27


 1024              		.global	coap_findOptions
 1025              		.syntax unified
 1026              		.thumb
 1027              		.thumb_func
 1029              	coap_findOptions:
 1030              	.LVL105:
 1031              	.LFB8:
 231:coapLIB/coap.c **** 
 232:coapLIB/coap.c **** // options are always stored consecutively, so can return a block with same option num
 233:coapLIB/coap.c **** const coap_option_t *coap_findOptions(const coap_packet_t *pkt, uint8_t num, uint8_t *count)
 234:coapLIB/coap.c **** {
 1032              		.loc 1 234 1 is_stmt 1 view -0
 1033              		.cfi_startproc
 1034              		@ args = 0, pretend = 0, frame = 0
 1035              		@ frame_needed = 0, uses_anonymous_args = 0
 235:coapLIB/coap.c ****     // FIXME, options is always sorted, can find faster than this
 236:coapLIB/coap.c ****     size_t i;
 1036              		.loc 1 236 5 view .LVU358
 237:coapLIB/coap.c ****     const coap_option_t *first = NULL;
 1037              		.loc 1 237 5 view .LVU359
 238:coapLIB/coap.c ****     *count = 0;
 1038              		.loc 1 238 5 view .LVU360
 234:coapLIB/coap.c ****     // FIXME, options is always sorted, can find faster than this
 1039              		.loc 1 234 1 is_stmt 0 view .LVU361
 1040 0000 30B5     		push	{r4, r5, lr}
 1041              	.LCFI9:
 1042              		.cfi_def_cfa_offset 12
 1043              		.cfi_offset 4, -12
 1044              		.cfi_offset 5, -8
 1045              		.cfi_offset 14, -4
 1046              		.loc 1 238 12 view .LVU362
 1047 0002 0023     		movs	r3, #0
 1048 0004 1370     		strb	r3, [r2]
 239:coapLIB/coap.c ****     for (i=0;i<pkt->numopts;i++)
 1049              		.loc 1 239 5 is_stmt 1 view .LVU363
 1050              	.LVL106:
 1051              		.loc 1 239 14 view .LVU364
 1052              		.loc 1 239 19 is_stmt 0 view .LVU365
 1053 0006 047C     		ldrb	r4, [r0, #16]	@ zero_extendqisi2
 1054              		.loc 1 239 5 view .LVU366
 1055 0008 F4B1     		cbz	r4, .L90
 1056 000a 0546     		mov	r5, r0
 237:coapLIB/coap.c ****     *count = 0;
 1057              		.loc 1 237 26 view .LVU367
 1058 000c 1846     		mov	r0, r3
 1059              	.LVL107:
 1060              		.loc 1 239 11 view .LVU368
 1061 000e 8446     		mov	ip, r0
 1062 0010 05F11403 		add	r3, r5, #20
 1063 0014 06E0     		b	.L89
 1064              	.LVL108:
 1065              	.L86:
 240:coapLIB/coap.c ****     {
 241:coapLIB/coap.c ****         if (pkt->opts[i].num == num)
 242:coapLIB/coap.c ****         {
 243:coapLIB/coap.c ****             if (NULL == first)
 244:coapLIB/coap.c ****                 first = &pkt->opts[i];
ARM GAS  C:\Users\clay0\AppData\Local\Temp\ccvKv5Cc.s 			page 28


 245:coapLIB/coap.c ****             (*count)++;
 246:coapLIB/coap.c ****         }
 247:coapLIB/coap.c ****         else
 248:coapLIB/coap.c ****         {
 249:coapLIB/coap.c ****             if (NULL != first)
 1066              		.loc 1 249 16 view .LVU369
 1067 0016 B0B9     		cbnz	r0, .L84
 239:coapLIB/coap.c ****     {
 1068              		.loc 1 239 29 is_stmt 1 discriminator 2 view .LVU370
 239:coapLIB/coap.c ****     {
 1069              		.loc 1 239 30 is_stmt 0 discriminator 2 view .LVU371
 1070 0018 0CF1010C 		add	ip, ip, #1
 1071              	.LVL109:
 239:coapLIB/coap.c ****     {
 1072              		.loc 1 239 14 is_stmt 1 discriminator 2 view .LVU372
 239:coapLIB/coap.c ****     {
 1073              		.loc 1 239 5 is_stmt 0 discriminator 2 view .LVU373
 1074 001c 6445     		cmp	r4, ip
 1075 001e 03F10C03 		add	r3, r3, #12
 1076 0022 10D9     		bls	.L84
 1077              	.LVL110:
 1078              	.L89:
 241:coapLIB/coap.c ****         {
 1079              		.loc 1 241 9 is_stmt 1 view .LVU374
 1080              		.loc 1 249 13 view .LVU375
 241:coapLIB/coap.c ****         {
 1081              		.loc 1 241 12 is_stmt 0 view .LVU376
 1082 0024 93F800E0 		ldrb	lr, [r3]	@ zero_extendqisi2
 1083 0028 8E45     		cmp	lr, r1
 1084 002a F4D1     		bne	.L86
 243:coapLIB/coap.c ****                 first = &pkt->opts[i];
 1085              		.loc 1 243 13 is_stmt 1 view .LVU377
 245:coapLIB/coap.c ****         }
 1086              		.loc 1 245 21 is_stmt 0 view .LVU378
 1087 002c 1478     		ldrb	r4, [r2]	@ zero_extendqisi2
 1088 002e 0134     		adds	r4, r4, #1
 1089 0030 1470     		strb	r4, [r2]
 239:coapLIB/coap.c ****     {
 1090              		.loc 1 239 19 view .LVU379
 1091 0032 2C7C     		ldrb	r4, [r5, #16]	@ zero_extendqisi2
 239:coapLIB/coap.c ****     {
 1092              		.loc 1 239 30 view .LVU380
 1093 0034 0CF1010C 		add	ip, ip, #1
 1094              	.LVL111:
 243:coapLIB/coap.c ****                 first = &pkt->opts[i];
 1095              		.loc 1 243 16 view .LVU381
 1096 0038 0028     		cmp	r0, #0
 1097 003a 08BF     		it	eq
 1098 003c 1846     		moveq	r0, r3
 1099              	.LVL112:
 245:coapLIB/coap.c ****         }
 1100              		.loc 1 245 13 is_stmt 1 view .LVU382
 239:coapLIB/coap.c ****     {
 1101              		.loc 1 239 29 view .LVU383
 239:coapLIB/coap.c ****     {
 1102              		.loc 1 239 14 view .LVU384
 239:coapLIB/coap.c ****     {
ARM GAS  C:\Users\clay0\AppData\Local\Temp\ccvKv5Cc.s 			page 29


 1103              		.loc 1 239 5 is_stmt 0 view .LVU385
 1104 003e 6445     		cmp	r4, ip
 1105 0040 03F10C03 		add	r3, r3, #12
 1106 0044 EED8     		bhi	.L89
 1107              	.L84:
 250:coapLIB/coap.c ****                 break;
 251:coapLIB/coap.c ****         }
 252:coapLIB/coap.c ****     }
 253:coapLIB/coap.c ****     return first;
 254:coapLIB/coap.c **** }
 1108              		.loc 1 254 1 view .LVU386
 1109 0046 30BD     		pop	{r4, r5, pc}
 1110              	.LVL113:
 1111              	.L90:
 237:coapLIB/coap.c ****     *count = 0;
 1112              		.loc 1 237 26 view .LVU387
 1113 0048 2046     		mov	r0, r4
 1114              	.LVL114:
 253:coapLIB/coap.c **** }
 1115              		.loc 1 253 5 is_stmt 1 view .LVU388
 1116              		.loc 1 254 1 is_stmt 0 view .LVU389
 1117 004a 30BD     		pop	{r4, r5, pc}
 1118              		.cfi_endproc
 1119              	.LFE8:
 1121              		.section	.text.coap_buffer_to_string,"ax",%progbits
 1122              		.align	1
 1123              		.p2align 2,,3
 1124              		.global	coap_buffer_to_string
 1125              		.syntax unified
 1126              		.thumb
 1127              		.thumb_func
 1129              	coap_buffer_to_string:
 1130              	.LVL115:
 1131              	.LFB9:
 255:coapLIB/coap.c **** 
 256:coapLIB/coap.c **** int coap_buffer_to_string(char *strbuf, size_t strbuflen, const coap_buffer_t *buf)
 257:coapLIB/coap.c **** {
 1132              		.loc 1 257 1 is_stmt 1 view -0
 1133              		.cfi_startproc
 1134              		@ args = 0, pretend = 0, frame = 0
 1135              		@ frame_needed = 0, uses_anonymous_args = 0
 258:coapLIB/coap.c ****     if (buf->len+1 > strbuflen)
 1136              		.loc 1 258 5 view .LVU391
 257:coapLIB/coap.c ****     if (buf->len+1 > strbuflen)
 1137              		.loc 1 257 1 is_stmt 0 view .LVU392
 1138 0000 38B5     		push	{r3, r4, r5, lr}
 1139              	.LCFI10:
 1140              		.cfi_def_cfa_offset 16
 1141              		.cfi_offset 3, -16
 1142              		.cfi_offset 4, -12
 1143              		.cfi_offset 5, -8
 1144              		.cfi_offset 14, -4
 257:coapLIB/coap.c ****     if (buf->len+1 > strbuflen)
 1145              		.loc 1 257 1 view .LVU393
 1146 0002 1446     		mov	r4, r2
 1147              		.loc 1 258 12 view .LVU394
 1148 0004 5268     		ldr	r2, [r2, #4]
ARM GAS  C:\Users\clay0\AppData\Local\Temp\ccvKv5Cc.s 			page 30


 1149              	.LVL116:
 1150              		.loc 1 258 17 view .LVU395
 1151 0006 531C     		adds	r3, r2, #1
 1152              		.loc 1 258 8 view .LVU396
 1153 0008 8B42     		cmp	r3, r1
 1154 000a 08D8     		bhi	.L95
 259:coapLIB/coap.c ****         return COAP_ERR_BUFFER_TOO_SMALL;
 260:coapLIB/coap.c ****     memcpy(strbuf, buf->p, buf->len);
 1155              		.loc 1 260 5 is_stmt 1 view .LVU397
 1156 000c 2168     		ldr	r1, [r4]
 1157              	.LVL117:
 1158              		.loc 1 260 5 is_stmt 0 view .LVU398
 1159 000e 0546     		mov	r5, r0
 1160 0010 FFF7FEFF 		bl	memcpy
 1161              	.LVL118:
 261:coapLIB/coap.c ****     strbuf[buf->len] = 0;
 1162              		.loc 1 261 5 is_stmt 1 view .LVU399
 1163              		.loc 1 261 22 is_stmt 0 view .LVU400
 1164 0014 6268     		ldr	r2, [r4, #4]
 1165 0016 0023     		movs	r3, #0
 1166 0018 AB54     		strb	r3, [r5, r2]
 262:coapLIB/coap.c ****     return 0;
 1167              		.loc 1 262 5 is_stmt 1 view .LVU401
 1168              		.loc 1 262 12 is_stmt 0 view .LVU402
 1169 001a 1846     		mov	r0, r3
 263:coapLIB/coap.c **** }
 1170              		.loc 1 263 1 view .LVU403
 1171 001c 38BD     		pop	{r3, r4, r5, pc}
 1172              	.LVL119:
 1173              	.L95:
 259:coapLIB/coap.c ****     memcpy(strbuf, buf->p, buf->len);
 1174              		.loc 1 259 16 view .LVU404
 1175 001e 0920     		movs	r0, #9
 1176              	.LVL120:
 1177              		.loc 1 263 1 view .LVU405
 1178 0020 38BD     		pop	{r3, r4, r5, pc}
 1179              		.loc 1 263 1 view .LVU406
 1180              		.cfi_endproc
 1181              	.LFE9:
 1183 0022 00BF     		.section	.text.coap_build,"ax",%progbits
 1184              		.align	1
 1185              		.p2align 2,,3
 1186              		.global	coap_build
 1187              		.syntax unified
 1188              		.thumb
 1189              		.thumb_func
 1191              	coap_build:
 1192              	.LVL121:
 1193              	.LFB10:
 264:coapLIB/coap.c **** 
 265:coapLIB/coap.c **** int coap_build(uint8_t *buf, size_t *buflen, const coap_packet_t *pkt)
 266:coapLIB/coap.c **** {
 1194              		.loc 1 266 1 is_stmt 1 view -0
 1195              		.cfi_startproc
 1196              		@ args = 0, pretend = 0, frame = 0
 1197              		@ frame_needed = 0, uses_anonymous_args = 0
 1198              		.loc 1 266 1 is_stmt 0 view .LVU408
ARM GAS  C:\Users\clay0\AppData\Local\Temp\ccvKv5Cc.s 			page 31


 1199 0000 2DE9F843 		push	{r3, r4, r5, r6, r7, r8, r9, lr}
 1200              	.LCFI11:
 1201              		.cfi_def_cfa_offset 32
 1202              		.cfi_offset 3, -32
 1203              		.cfi_offset 4, -28
 1204              		.cfi_offset 5, -24
 1205              		.cfi_offset 6, -20
 1206              		.cfi_offset 7, -16
 1207              		.cfi_offset 8, -12
 1208              		.cfi_offset 9, -8
 1209              		.cfi_offset 14, -4
 267:coapLIB/coap.c ****     size_t opts_len = 0;
 268:coapLIB/coap.c ****     size_t i;
 269:coapLIB/coap.c ****     uint8_t *p;
 270:coapLIB/coap.c ****     uint16_t running_delta = 0;
 271:coapLIB/coap.c **** 
 272:coapLIB/coap.c ****     // build header
 273:coapLIB/coap.c ****     if (*buflen < (4U + pkt->hdr.tkl))
 1210              		.loc 1 273 33 view .LVU409
 1211 0004 9378     		ldrb	r3, [r2, #2]	@ zero_extendqisi2
 266:coapLIB/coap.c ****     size_t opts_len = 0;
 1212              		.loc 1 266 1 view .LVU410
 1213 0006 1546     		mov	r5, r2
 267:coapLIB/coap.c ****     size_t opts_len = 0;
 1214              		.loc 1 267 5 is_stmt 1 view .LVU411
 1215              	.LVL122:
 268:coapLIB/coap.c ****     uint8_t *p;
 1216              		.loc 1 268 5 view .LVU412
 269:coapLIB/coap.c ****     uint16_t running_delta = 0;
 1217              		.loc 1 269 5 view .LVU413
 270:coapLIB/coap.c **** 
 1218              		.loc 1 270 5 view .LVU414
 1219              		.loc 1 273 5 view .LVU415
 1220              		.loc 1 273 8 is_stmt 0 view .LVU416
 1221 0008 0A68     		ldr	r2, [r1]
 1222              	.LVL123:
 1223              		.loc 1 273 23 view .LVU417
 1224 000a 0433     		adds	r3, r3, #4
 1225              		.loc 1 273 8 view .LVU418
 1226 000c 9A42     		cmp	r2, r3
 1227 000e C0F08C80 		bcc	.L102
 274:coapLIB/coap.c ****         return COAP_ERR_BUFFER_TOO_SMALL;
 275:coapLIB/coap.c **** 
 276:coapLIB/coap.c ****     buf[0] = (pkt->hdr.ver & 0x03) << 6;
 1228              		.loc 1 276 5 is_stmt 1 view .LVU419
 1229              		.loc 1 276 36 is_stmt 0 view .LVU420
 1230 0012 2B78     		ldrb	r3, [r5]	@ zero_extendqisi2
 1231 0014 9B01     		lsls	r3, r3, #6
 1232              		.loc 1 276 12 view .LVU421
 1233 0016 0370     		strb	r3, [r0]
 277:coapLIB/coap.c ****     buf[0] |= (pkt->hdr.t & 0x03) << 4;
 1234              		.loc 1 277 5 is_stmt 1 view .LVU422
 1235              		.loc 1 277 35 is_stmt 0 view .LVU423
 1236 0018 6A78     		ldrb	r2, [r5, #1]	@ zero_extendqisi2
 1237 001a 1201     		lsls	r2, r2, #4
 1238 001c 02F03002 		and	r2, r2, #48
 1239              		.loc 1 277 12 view .LVU424
ARM GAS  C:\Users\clay0\AppData\Local\Temp\ccvKv5Cc.s 			page 32


 1240 0020 1343     		orrs	r3, r3, r2
 1241 0022 5BB2     		sxtb	r3, r3
 1242 0024 0370     		strb	r3, [r0]
 278:coapLIB/coap.c ****     buf[0] |= (pkt->hdr.tkl & 0x0F);
 1243              		.loc 1 278 5 is_stmt 1 view .LVU425
 1244              		.loc 1 278 29 is_stmt 0 view .LVU426
 1245 0026 AA78     		ldrb	r2, [r5, #2]	@ zero_extendqisi2
 1246 0028 02F00F02 		and	r2, r2, #15
 1247              		.loc 1 278 12 view .LVU427
 1248 002c 1343     		orrs	r3, r3, r2
 1249 002e 0370     		strb	r3, [r0]
 279:coapLIB/coap.c ****     buf[1] = pkt->hdr.code;
 1250              		.loc 1 279 5 is_stmt 1 view .LVU428
 1251              		.loc 1 279 22 is_stmt 0 view .LVU429
 1252 0030 EB78     		ldrb	r3, [r5, #3]	@ zero_extendqisi2
 1253              		.loc 1 279 12 view .LVU430
 1254 0032 4370     		strb	r3, [r0, #1]
 280:coapLIB/coap.c ****     buf[2] = pkt->hdr.id[0];
 1255              		.loc 1 280 5 is_stmt 1 view .LVU431
 1256              		.loc 1 280 25 is_stmt 0 view .LVU432
 1257 0034 2B79     		ldrb	r3, [r5, #4]	@ zero_extendqisi2
 1258              		.loc 1 280 12 view .LVU433
 1259 0036 8370     		strb	r3, [r0, #2]
 281:coapLIB/coap.c ****     buf[3] = pkt->hdr.id[1];
 1260              		.loc 1 281 5 is_stmt 1 view .LVU434
 1261              		.loc 1 281 25 is_stmt 0 view .LVU435
 1262 0038 6B79     		ldrb	r3, [r5, #5]	@ zero_extendqisi2
 1263              		.loc 1 281 12 view .LVU436
 1264 003a C370     		strb	r3, [r0, #3]
 282:coapLIB/coap.c **** 
 283:coapLIB/coap.c ****     // inject token
 284:coapLIB/coap.c ****     p = buf + 4;
 1265              		.loc 1 284 5 is_stmt 1 view .LVU437
 285:coapLIB/coap.c ****     if ((pkt->hdr.tkl > 0) && (pkt->hdr.tkl != pkt->tok.len))
 1266              		.loc 1 285 18 is_stmt 0 view .LVU438
 1267 003c AA78     		ldrb	r2, [r5, #2]	@ zero_extendqisi2
 1268 003e 8946     		mov	r9, r1
 1269 0040 0746     		mov	r7, r0
 284:coapLIB/coap.c ****     if ((pkt->hdr.tkl > 0) && (pkt->hdr.tkl != pkt->tok.len))
 1270              		.loc 1 284 7 view .LVU439
 1271 0042 031D     		adds	r3, r0, #4
 1272              	.LVL124:
 1273              		.loc 1 285 5 is_stmt 1 view .LVU440
 1274              		.loc 1 285 8 is_stmt 0 view .LVU441
 1275 0044 002A     		cmp	r2, #0
 1276 0046 73D1     		bne	.L142
 1277              	.LVL125:
 1278              	.L100:
 286:coapLIB/coap.c ****         return COAP_ERR_UNSUPPORTED;
 287:coapLIB/coap.c ****     
 288:coapLIB/coap.c ****     if (pkt->hdr.tkl > 0)
 289:coapLIB/coap.c ****         memcpy(p, pkt->tok.p, pkt->hdr.tkl);
 290:coapLIB/coap.c **** 
 291:coapLIB/coap.c ****     // // http://tools.ietf.org/html/rfc7252#section-3.1
 292:coapLIB/coap.c ****     // inject options
 293:coapLIB/coap.c ****     p += pkt->hdr.tkl;
 1279              		.loc 1 293 5 is_stmt 1 view .LVU442
ARM GAS  C:\Users\clay0\AppData\Local\Temp\ccvKv5Cc.s 			page 33


 1280              		.loc 1 293 7 is_stmt 0 view .LVU443
 1281 0048 1344     		add	r3, r3, r2
 1282              	.LVL126:
 294:coapLIB/coap.c **** 
 295:coapLIB/coap.c ****     for (i=0;i<pkt->numopts;i++)
 1283              		.loc 1 295 5 is_stmt 1 view .LVU444
 1284              		.loc 1 295 14 view .LVU445
 1285              		.loc 1 295 5 is_stmt 0 view .LVU446
 1286 004a 2A7C     		ldrb	r2, [r5, #16]	@ zero_extendqisi2
 1287 004c 002A     		cmp	r2, #0
 1288 004e 00F08680 		beq	.L101
 270:coapLIB/coap.c **** 
 1289              		.loc 1 270 14 view .LVU447
 1290 0052 4FF0000C 		mov	ip, #0
 1291              	.LBB66:
 1292              	.LBB67:
 1293              	.LBB68:
 1294              	.LBB69:
 1295              	.LBB70:
 296:coapLIB/coap.c ****     {
 297:coapLIB/coap.c ****         uint32_t optDelta;
 298:coapLIB/coap.c ****         uint8_t len, delta = 0;
 299:coapLIB/coap.c **** 
 300:coapLIB/coap.c ****         if (((size_t)(p-buf)) > *buflen)
 301:coapLIB/coap.c ****              return COAP_ERR_BUFFER_TOO_SMALL;
 302:coapLIB/coap.c ****         optDelta = pkt->opts[i].num - running_delta;
 303:coapLIB/coap.c ****         coap_option_nibble(optDelta, &delta);
 304:coapLIB/coap.c ****         coap_option_nibble((uint32_t)pkt->opts[i].buf.len, &len);
 305:coapLIB/coap.c **** 
 306:coapLIB/coap.c ****         *p++ = (0xFF & (delta << 4 | len));
 307:coapLIB/coap.c ****         if (delta == 13)
 308:coapLIB/coap.c ****         {
 309:coapLIB/coap.c ****             *p++ = (optDelta - 13);
 310:coapLIB/coap.c ****         }
 311:coapLIB/coap.c ****         else
 312:coapLIB/coap.c ****         if (delta == 14)
 313:coapLIB/coap.c ****         {
 314:coapLIB/coap.c ****             *p++ = ((optDelta-269) >> 8);
 315:coapLIB/coap.c ****             *p++ = (0xFF & (optDelta-269));
 316:coapLIB/coap.c ****         }
 317:coapLIB/coap.c ****         if (len == 13)
 318:coapLIB/coap.c ****         {
 319:coapLIB/coap.c ****             *p++ = (pkt->opts[i].buf.len - 13);
 320:coapLIB/coap.c ****         }
 321:coapLIB/coap.c ****         else
 322:coapLIB/coap.c ****         if (len == 14)
 323:coapLIB/coap.c ****   	    {
 324:coapLIB/coap.c ****             *p++ = (pkt->opts[i].buf.len >> 8);
 325:coapLIB/coap.c ****             *p++ = (0xFF & (pkt->opts[i].buf.len-269));
 326:coapLIB/coap.c ****         }
 327:coapLIB/coap.c **** 
 328:coapLIB/coap.c ****         memcpy(p, pkt->opts[i].buf.p, pkt->opts[i].buf.len);
 329:coapLIB/coap.c ****         p += pkt->opts[i].buf.len;
 330:coapLIB/coap.c ****         running_delta = pkt->opts[i].num;
 331:coapLIB/coap.c ****     }
 332:coapLIB/coap.c **** 
 333:coapLIB/coap.c ****     opts_len = (p - buf) - 4;   // number of bytes used by options
ARM GAS  C:\Users\clay0\AppData\Local\Temp\ccvKv5Cc.s 			page 34


 334:coapLIB/coap.c **** 
 335:coapLIB/coap.c ****     if (pkt->payload.len > 0)
 336:coapLIB/coap.c ****     {
 337:coapLIB/coap.c ****         if (*buflen < 4 + 1 + pkt->payload.len + opts_len)
 338:coapLIB/coap.c ****             return COAP_ERR_BUFFER_TOO_SMALL;
 339:coapLIB/coap.c ****         buf[4 + opts_len] = 0xFF;  // payload marker
 340:coapLIB/coap.c ****         memcpy(buf+5 + opts_len, pkt->payload.p, pkt->payload.len);
 341:coapLIB/coap.c ****         *buflen = opts_len + 5 + pkt->payload.len;
 342:coapLIB/coap.c ****     }
 343:coapLIB/coap.c ****     else
 344:coapLIB/coap.c ****         *buflen = opts_len + 4;
 345:coapLIB/coap.c ****     return 0;
 346:coapLIB/coap.c **** }
 347:coapLIB/coap.c **** 
 348:coapLIB/coap.c **** void coap_option_nibble(uint32_t value, uint8_t *nibble)
 349:coapLIB/coap.c **** {
 350:coapLIB/coap.c ****     if (value<13)
 351:coapLIB/coap.c ****     {
 352:coapLIB/coap.c ****         *nibble = (0xFF & value);
 353:coapLIB/coap.c ****     }
 354:coapLIB/coap.c ****     else
 355:coapLIB/coap.c ****     if (value<=0xFF+13)
 356:coapLIB/coap.c ****     {
 357:coapLIB/coap.c ****         *nibble = 13;
 358:coapLIB/coap.c ****     } else if (value<=0xFFFF+269)
 1296              		.loc 1 358 15 view .LVU448
 1297 0056 DFF85481 		ldr	r8, .L149
 1298 005a 2C46     		mov	r4, r5
 1299              	.LBE70:
 1300              	.LBE69:
 1301              	.LBE68:
 1302              	.LBE67:
 1303              	.LBE66:
 295:coapLIB/coap.c ****     {
 1304              		.loc 1 295 11 view .LVU449
 1305 005c 6646     		mov	r6, ip
 1306 005e 19E0     		b	.L112
 1307              	.LVL127:
 1308              	.L143:
 1309              	.LBB103:
 1310              	.LBB85:
 1311              	.LBB86:
 352:coapLIB/coap.c ****     }
 1312              		.loc 1 352 9 is_stmt 1 view .LVU450
 1313              	.LBE86:
 1314              	.LBE85:
 306:coapLIB/coap.c ****         if (delta == 13)
 1315              		.loc 1 306 31 is_stmt 0 view .LVU451
 1316 0060 4FEA0C11 		lsl	r1, ip, #4
 1317              	.LBB92:
 1318              	.LBB77:
 350:coapLIB/coap.c ****     {
 1319              		.loc 1 350 8 view .LVU452
 1320 0064 0C2A     		cmp	r2, #12
 1321              	.LBE77:
 1322              	.LBE92:
 1323              	.LBB93:
ARM GAS  C:\Users\clay0\AppData\Local\Temp\ccvKv5Cc.s 			page 35


 1324              	.LBB89:
 352:coapLIB/coap.c ****     }
 1325              		.loc 1 352 17 view .LVU453
 1326 0066 5FFA8CF0 		uxtb	r0, ip
 1327              	.LVL128:
 352:coapLIB/coap.c ****     }
 1328              		.loc 1 352 17 view .LVU454
 1329              	.LBE89:
 1330              	.LBE93:
 306:coapLIB/coap.c ****         if (delta == 13)
 1331              		.loc 1 306 36 view .LVU455
 1332 006a 49B2     		sxtb	r1, r1
 1333              	.LVL129:
 304:coapLIB/coap.c **** 
 1334              		.loc 1 304 9 is_stmt 1 view .LVU456
 1335              	.LBB94:
 1336              	.LBI67:
 348:coapLIB/coap.c **** {
 1337              		.loc 1 348 6 view .LVU457
 1338              	.LBB78:
 350:coapLIB/coap.c ****     {
 1339              		.loc 1 350 5 view .LVU458
 350:coapLIB/coap.c ****     {
 1340              		.loc 1 350 8 is_stmt 0 view .LVU459
 1341 006c 27D8     		bhi	.L105
 352:coapLIB/coap.c ****     }
 1342              		.loc 1 352 9 is_stmt 1 view .LVU460
 1343              	.LVL130:
 352:coapLIB/coap.c ****     }
 1344              		.loc 1 352 9 is_stmt 0 view .LVU461
 1345              	.LBE78:
 1346              	.LBE94:
 306:coapLIB/coap.c ****         if (delta == 13)
 1347              		.loc 1 306 9 is_stmt 1 view .LVU462
 306:coapLIB/coap.c ****         if (delta == 13)
 1348              		.loc 1 306 36 is_stmt 0 view .LVU463
 1349 006e 1143     		orrs	r1, r1, r2
 306:coapLIB/coap.c ****         if (delta == 13)
 1350              		.loc 1 306 14 view .LVU464
 1351 0070 1970     		strb	r1, [r3]
 307:coapLIB/coap.c ****         {
 1352              		.loc 1 307 9 is_stmt 1 view .LVU465
 1353              	.LVL131:
 1354              	.L107:
 306:coapLIB/coap.c ****         if (delta == 13)
 1355              		.loc 1 306 11 is_stmt 0 view .LVU466
 1356 0072 0133     		adds	r3, r3, #1
 1357              	.LVL132:
 1358              	.L110:
 328:coapLIB/coap.c ****         p += pkt->opts[i].buf.len;
 1359              		.loc 1 328 9 is_stmt 1 view .LVU467
 1360 0074 D4E90612 		ldrd	r1, r2, [r4, #24]
 1361 0078 1846     		mov	r0, r3
 1362 007a FFF7FEFF 		bl	memcpy
 1363              	.LVL133:
 328:coapLIB/coap.c ****         p += pkt->opts[i].buf.len;
 1364              		.loc 1 328 9 is_stmt 0 view .LVU468
ARM GAS  C:\Users\clay0\AppData\Local\Temp\ccvKv5Cc.s 			page 36


 1365              	.LBE103:
 295:coapLIB/coap.c ****     {
 1366              		.loc 1 295 19 view .LVU469
 1367 007e 297C     		ldrb	r1, [r5, #16]	@ zero_extendqisi2
 1368              	.LBB104:
 329:coapLIB/coap.c ****         running_delta = pkt->opts[i].num;
 1369              		.loc 1 329 11 view .LVU470
 1370 0080 E269     		ldr	r2, [r4, #28]
 330:coapLIB/coap.c ****     }
 1371              		.loc 1 330 23 view .LVU471
 1372 0082 94F814C0 		ldrb	ip, [r4, #20]	@ zero_extendqisi2
 1373              	.LBE104:
 295:coapLIB/coap.c ****     {
 1374              		.loc 1 295 30 view .LVU472
 1375 0086 0136     		adds	r6, r6, #1
 1376              	.LVL134:
 1377              	.LBB105:
 328:coapLIB/coap.c ****         p += pkt->opts[i].buf.len;
 1378              		.loc 1 328 9 view .LVU473
 1379 0088 0346     		mov	r3, r0
 329:coapLIB/coap.c ****         running_delta = pkt->opts[i].num;
 1380              		.loc 1 329 9 is_stmt 1 view .LVU474
 1381              	.LBE105:
 295:coapLIB/coap.c ****     {
 1382              		.loc 1 295 5 is_stmt 0 view .LVU475
 1383 008a B142     		cmp	r1, r6
 1384              	.LBB106:
 329:coapLIB/coap.c ****         running_delta = pkt->opts[i].num;
 1385              		.loc 1 329 11 view .LVU476
 1386 008c 1344     		add	r3, r3, r2
 1387              	.LVL135:
 330:coapLIB/coap.c ****     }
 1388              		.loc 1 330 9 is_stmt 1 view .LVU477
 330:coapLIB/coap.c ****     }
 1389              		.loc 1 330 9 is_stmt 0 view .LVU478
 1390              	.LBE106:
 295:coapLIB/coap.c ****     {
 1391              		.loc 1 295 29 is_stmt 1 view .LVU479
 295:coapLIB/coap.c ****     {
 1392              		.loc 1 295 14 view .LVU480
 295:coapLIB/coap.c ****     {
 1393              		.loc 1 295 5 is_stmt 0 view .LVU481
 1394 008e 04F10C04 		add	r4, r4, #12
 1395 0092 64D9     		bls	.L101
 1396              	.LVL136:
 1397              	.L112:
 1398              	.LBB107:
 297:coapLIB/coap.c ****         uint8_t len, delta = 0;
 1399              		.loc 1 297 9 is_stmt 1 view .LVU482
 298:coapLIB/coap.c **** 
 1400              		.loc 1 298 9 view .LVU483
 300:coapLIB/coap.c ****              return COAP_ERR_BUFFER_TOO_SMALL;
 1401              		.loc 1 300 9 view .LVU484
 300:coapLIB/coap.c ****              return COAP_ERR_BUFFER_TOO_SMALL;
 1402              		.loc 1 300 12 is_stmt 0 view .LVU485
 1403 0094 D9F80020 		ldr	r2, [r9]
 300:coapLIB/coap.c ****              return COAP_ERR_BUFFER_TOO_SMALL;
ARM GAS  C:\Users\clay0\AppData\Local\Temp\ccvKv5Cc.s 			page 37


 1404              		.loc 1 300 24 view .LVU486
 1405 0098 D91B     		subs	r1, r3, r7
 300:coapLIB/coap.c ****              return COAP_ERR_BUFFER_TOO_SMALL;
 1406              		.loc 1 300 12 view .LVU487
 1407 009a 9142     		cmp	r1, r2
 1408 009c 45D8     		bhi	.L102
 302:coapLIB/coap.c ****         coap_option_nibble(optDelta, &delta);
 1409              		.loc 1 302 9 is_stmt 1 view .LVU488
 302:coapLIB/coap.c ****         coap_option_nibble(optDelta, &delta);
 1410              		.loc 1 302 32 is_stmt 0 view .LVU489
 1411 009e 227D     		ldrb	r2, [r4, #20]	@ zero_extendqisi2
 302:coapLIB/coap.c ****         coap_option_nibble(optDelta, &delta);
 1412              		.loc 1 302 37 view .LVU490
 1413 00a0 A2EB0C0C 		sub	ip, r2, ip
 1414              	.LVL137:
 303:coapLIB/coap.c ****         coap_option_nibble((uint32_t)pkt->opts[i].buf.len, &len);
 1415              		.loc 1 303 9 is_stmt 1 view .LVU491
 1416              	.LBB95:
 1417              	.LBI85:
 348:coapLIB/coap.c **** {
 1418              		.loc 1 348 6 view .LVU492
 1419              	.LBB90:
 350:coapLIB/coap.c ****     {
 1420              		.loc 1 350 5 view .LVU493
 350:coapLIB/coap.c ****     {
 1421              		.loc 1 350 8 is_stmt 0 view .LVU494
 1422 00a4 BCF10C0F 		cmp	ip, #12
 1423              	.LBE90:
 1424              	.LBE95:
 304:coapLIB/coap.c **** 
 1425              		.loc 1 304 54 view .LVU495
 1426 00a8 E269     		ldr	r2, [r4, #28]
 1427              	.LBB96:
 1428              	.LBB91:
 350:coapLIB/coap.c ****     {
 1429              		.loc 1 350 8 view .LVU496
 1430 00aa D9D9     		bls	.L143
 1431              	.LVL138:
 1432              	.LBB87:
 1433              	.LBI87:
 348:coapLIB/coap.c **** {
 1434              		.loc 1 348 6 is_stmt 1 view .LVU497
 1435              	.LBB88:
 355:coapLIB/coap.c ****     {
 1436              		.loc 1 355 5 view .LVU498
 355:coapLIB/coap.c ****     {
 1437              		.loc 1 355 8 is_stmt 0 view .LVU499
 1438 00ac BCF5867F 		cmp	ip, #268
 1439 00b0 19D9     		bls	.L106
 1440              	.LVL139:
 355:coapLIB/coap.c ****     {
 1441              		.loc 1 355 8 view .LVU500
 1442              	.LBE88:
 1443              	.LBE87:
 1444              	.LBE91:
 1445              	.LBE96:
 304:coapLIB/coap.c **** 
ARM GAS  C:\Users\clay0\AppData\Local\Temp\ccvKv5Cc.s 			page 38


 1446              		.loc 1 304 9 is_stmt 1 view .LVU501
 1447              	.LBB97:
 348:coapLIB/coap.c **** {
 1448              		.loc 1 348 6 view .LVU502
 1449              	.LBB79:
 350:coapLIB/coap.c ****     {
 1450              		.loc 1 350 5 view .LVU503
 350:coapLIB/coap.c ****     {
 1451              		.loc 1 350 8 is_stmt 0 view .LVU504
 1452 00b2 0C2A     		cmp	r2, #12
 1453 00b4 01D8     		bhi	.L126
 352:coapLIB/coap.c ****     }
 1454              		.loc 1 352 9 is_stmt 1 view .LVU505
 1455              	.LVL140:
 352:coapLIB/coap.c ****     }
 1456              		.loc 1 352 9 is_stmt 0 view .LVU506
 1457              	.LBE79:
 1458              	.LBE97:
 306:coapLIB/coap.c ****         if (delta == 13)
 1459              		.loc 1 306 9 is_stmt 1 view .LVU507
 306:coapLIB/coap.c ****         if (delta == 13)
 1460              		.loc 1 306 36 is_stmt 0 view .LVU508
 1461 00b6 1A70     		strb	r2, [r3]
 307:coapLIB/coap.c ****         {
 1462              		.loc 1 307 9 is_stmt 1 view .LVU509
 1463 00b8 DBE7     		b	.L107
 1464              	.LVL141:
 1465              	.L126:
 1466              	.LBB98:
 1467              	.LBB80:
 350:coapLIB/coap.c ****     {
 1468              		.loc 1 350 8 is_stmt 0 view .LVU510
 1469 00ba 0021     		movs	r1, #0
 1470              	.LBE80:
 1471              	.LBE98:
 298:coapLIB/coap.c **** 
 1472              		.loc 1 298 22 view .LVU511
 1473 00bc 0846     		mov	r0, r1
 1474              	.LVL142:
 1475              	.L105:
 1476              	.LBB99:
 1477              	.LBB81:
 1478              	.LBB74:
 1479              	.LBI69:
 348:coapLIB/coap.c **** {
 1480              		.loc 1 348 6 is_stmt 1 view .LVU512
 1481              	.LBB71:
 355:coapLIB/coap.c ****     {
 1482              		.loc 1 355 5 view .LVU513
 355:coapLIB/coap.c ****     {
 1483              		.loc 1 355 8 is_stmt 0 view .LVU514
 1484 00be B2F5867F 		cmp	r2, #268
 1485 00c2 27D9     		bls	.L144
 1486              		.loc 1 358 12 is_stmt 1 view .LVU515
 1487              		.loc 1 358 15 is_stmt 0 view .LVU516
 1488 00c4 4245     		cmp	r2, r8
 1489 00c6 47D8     		bhi	.L145
ARM GAS  C:\Users\clay0\AppData\Local\Temp\ccvKv5Cc.s 			page 39


 359:coapLIB/coap.c ****     {
 360:coapLIB/coap.c ****         *nibble = 14;
 1490              		.loc 1 360 9 is_stmt 1 view .LVU517
 1491              	.LVL143:
 1492              		.loc 1 360 9 is_stmt 0 view .LVU518
 1493              	.LBE71:
 1494              	.LBE74:
 1495              	.LBE81:
 1496              	.LBE99:
 306:coapLIB/coap.c ****         if (delta == 13)
 1497              		.loc 1 306 9 is_stmt 1 view .LVU519
 306:coapLIB/coap.c ****         if (delta == 13)
 1498              		.loc 1 306 36 is_stmt 0 view .LVU520
 1499 00c8 41F00E01 		orr	r1, r1, #14
 307:coapLIB/coap.c ****         {
 1500              		.loc 1 307 12 view .LVU521
 1501 00cc 0D28     		cmp	r0, #13
 306:coapLIB/coap.c ****         if (delta == 13)
 1502              		.loc 1 306 14 view .LVU522
 1503 00ce 1970     		strb	r1, [r3]
 307:coapLIB/coap.c ****         {
 1504              		.loc 1 307 9 is_stmt 1 view .LVU523
 307:coapLIB/coap.c ****         {
 1505              		.loc 1 307 12 is_stmt 0 view .LVU524
 1506 00d0 3CD0     		beq	.L114
 306:coapLIB/coap.c ****         if (delta == 13)
 1507              		.loc 1 306 11 view .LVU525
 1508 00d2 5A1C     		adds	r2, r3, #1
 1509              	.LVL144:
 1510              	.L111:
 324:coapLIB/coap.c ****             *p++ = (0xFF & (pkt->opts[i].buf.len-269));
 1511              		.loc 1 324 13 is_stmt 1 view .LVU526
 324:coapLIB/coap.c ****             *p++ = (0xFF & (pkt->opts[i].buf.len-269));
 1512              		.loc 1 324 42 is_stmt 0 view .LVU527
 1513 00d4 E169     		ldr	r1, [r4, #28]
 324:coapLIB/coap.c ****             *p++ = (0xFF & (pkt->opts[i].buf.len-269));
 1514              		.loc 1 324 18 view .LVU528
 1515 00d6 1346     		mov	r3, r2
 324:coapLIB/coap.c ****             *p++ = (0xFF & (pkt->opts[i].buf.len-269));
 1516              		.loc 1 324 42 view .LVU529
 1517 00d8 090A     		lsrs	r1, r1, #8
 324:coapLIB/coap.c ****             *p++ = (0xFF & (pkt->opts[i].buf.len-269));
 1518              		.loc 1 324 18 view .LVU530
 1519 00da 03F8021B 		strb	r1, [r3], #2
 325:coapLIB/coap.c ****         }
 1520              		.loc 1 325 13 is_stmt 1 view .LVU531
 1521              	.LVL145:
 325:coapLIB/coap.c ****         }
 1522              		.loc 1 325 49 is_stmt 0 view .LVU532
 1523 00de E169     		ldr	r1, [r4, #28]
 1524 00e0 0D39     		subs	r1, r1, #13
 325:coapLIB/coap.c ****         }
 1525              		.loc 1 325 18 view .LVU533
 1526 00e2 5170     		strb	r1, [r2, #1]
 1527 00e4 C6E7     		b	.L110
 1528              	.LVL146:
 1529              	.L106:
ARM GAS  C:\Users\clay0\AppData\Local\Temp\ccvKv5Cc.s 			page 40


 304:coapLIB/coap.c **** 
 1530              		.loc 1 304 9 is_stmt 1 view .LVU534
 1531              	.LBB100:
 348:coapLIB/coap.c **** {
 1532              		.loc 1 348 6 view .LVU535
 1533              	.LBB82:
 350:coapLIB/coap.c ****     {
 1534              		.loc 1 350 5 view .LVU536
 350:coapLIB/coap.c ****     {
 1535              		.loc 1 350 8 is_stmt 0 view .LVU537
 1536 00e6 0C2A     		cmp	r2, #12
 1537 00e8 0BD9     		bls	.L146
 1538              	.LVL147:
 1539              	.LBB75:
 348:coapLIB/coap.c **** {
 1540              		.loc 1 348 6 is_stmt 1 view .LVU538
 1541              	.LBB72:
 355:coapLIB/coap.c ****     {
 1542              		.loc 1 355 5 view .LVU539
 355:coapLIB/coap.c ****     {
 1543              		.loc 1 355 8 is_stmt 0 view .LVU540
 1544 00ea B2F5867F 		cmp	r2, #268
 1545 00ee 29D8     		bhi	.L147
 1546              	.LVL148:
 355:coapLIB/coap.c ****     {
 1547              		.loc 1 355 8 view .LVU541
 1548              	.LBE72:
 1549              	.LBE75:
 1550              	.LBE82:
 1551              	.LBE100:
 306:coapLIB/coap.c ****         if (delta == 13)
 1552              		.loc 1 306 9 is_stmt 1 view .LVU542
 306:coapLIB/coap.c ****         if (delta == 13)
 1553              		.loc 1 306 14 is_stmt 0 view .LVU543
 1554 00f0 1A46     		mov	r2, r3
 309:coapLIB/coap.c ****         }
 1555              		.loc 1 309 30 view .LVU544
 1556 00f2 ACF10D0C 		sub	ip, ip, #13
 1557              	.LVL149:
 306:coapLIB/coap.c ****         if (delta == 13)
 1558              		.loc 1 306 14 view .LVU545
 1559 00f6 DD21     		movs	r1, #221
 1560 00f8 02F8021B 		strb	r1, [r2], #2
 307:coapLIB/coap.c ****         {
 1561              		.loc 1 307 9 is_stmt 1 view .LVU546
 309:coapLIB/coap.c ****         }
 1562              		.loc 1 309 13 view .LVU547
 1563              	.LVL150:
 309:coapLIB/coap.c ****         }
 1564              		.loc 1 309 18 is_stmt 0 view .LVU548
 1565 00fc 83F801C0 		strb	ip, [r3, #1]
 317:coapLIB/coap.c ****         {
 1566              		.loc 1 317 9 is_stmt 1 view .LVU549
 1567 0100 0DE0     		b	.L115
 1568              	.LVL151:
 1569              	.L146:
 1570              	.LBB101:
ARM GAS  C:\Users\clay0\AppData\Local\Temp\ccvKv5Cc.s 			page 41


 1571              	.LBB83:
 352:coapLIB/coap.c ****     }
 1572              		.loc 1 352 9 view .LVU550
 352:coapLIB/coap.c ****     }
 1573              		.loc 1 352 9 is_stmt 0 view .LVU551
 1574              	.LBE83:
 1575              	.LBE101:
 306:coapLIB/coap.c ****         if (delta == 13)
 1576              		.loc 1 306 9 is_stmt 1 view .LVU552
 306:coapLIB/coap.c ****         if (delta == 13)
 1577              		.loc 1 306 36 is_stmt 0 view .LVU553
 1578 0102 62F02F02 		orn	r2, r2, #47
 1579              	.LVL152:
 306:coapLIB/coap.c ****         if (delta == 13)
 1580              		.loc 1 306 14 view .LVU554
 1581 0106 1A70     		strb	r2, [r3]
 307:coapLIB/coap.c ****         {
 1582              		.loc 1 307 9 is_stmt 1 view .LVU555
 1583              	.LVL153:
 1584              	.L109:
 309:coapLIB/coap.c ****         }
 1585              		.loc 1 309 13 view .LVU556
 309:coapLIB/coap.c ****         }
 1586              		.loc 1 309 30 is_stmt 0 view .LVU557
 1587 0108 ACF10D0C 		sub	ip, ip, #13
 1588              	.LVL154:
 309:coapLIB/coap.c ****         }
 1589              		.loc 1 309 18 view .LVU558
 1590 010c 83F801C0 		strb	ip, [r3, #1]
 309:coapLIB/coap.c ****         }
 1591              		.loc 1 309 15 view .LVU559
 1592 0110 0233     		adds	r3, r3, #2
 1593              	.LVL155:
 317:coapLIB/coap.c ****         {
 1594              		.loc 1 317 9 is_stmt 1 view .LVU560
 322:coapLIB/coap.c ****   	    {
 1595              		.loc 1 322 9 view .LVU561
 1596 0112 AFE7     		b	.L110
 1597              	.LVL156:
 1598              	.L144:
 306:coapLIB/coap.c ****         if (delta == 13)
 1599              		.loc 1 306 9 view .LVU562
 306:coapLIB/coap.c ****         if (delta == 13)
 1600              		.loc 1 306 14 is_stmt 0 view .LVU563
 1601 0114 1A46     		mov	r2, r3
 306:coapLIB/coap.c ****         if (delta == 13)
 1602              		.loc 1 306 36 view .LVU564
 1603 0116 41F00D01 		orr	r1, r1, #13
 306:coapLIB/coap.c ****         if (delta == 13)
 1604              		.loc 1 306 14 view .LVU565
 1605 011a 02F8011B 		strb	r1, [r2], #1
 1606              	.LVL157:
 307:coapLIB/coap.c ****         {
 1607              		.loc 1 307 9 is_stmt 1 view .LVU566
 1608              	.L115:
 319:coapLIB/coap.c ****         }
 1609              		.loc 1 319 13 view .LVU567
ARM GAS  C:\Users\clay0\AppData\Local\Temp\ccvKv5Cc.s 			page 42


 319:coapLIB/coap.c ****         }
 1610              		.loc 1 319 42 is_stmt 0 view .LVU568
 1611 011e E169     		ldr	r1, [r4, #28]
 319:coapLIB/coap.c ****         }
 1612              		.loc 1 319 15 view .LVU569
 1613 0120 1346     		mov	r3, r2
 1614              	.LVL158:
 319:coapLIB/coap.c ****         }
 1615              		.loc 1 319 42 view .LVU570
 1616 0122 0D39     		subs	r1, r1, #13
 319:coapLIB/coap.c ****         }
 1617              		.loc 1 319 18 view .LVU571
 1618 0124 03F8011B 		strb	r1, [r3], #1
 1619              	.LVL159:
 319:coapLIB/coap.c ****         }
 1620              		.loc 1 319 18 view .LVU572
 1621 0128 A4E7     		b	.L110
 1622              	.LVL160:
 1623              	.L102:
 319:coapLIB/coap.c ****         }
 1624              		.loc 1 319 18 view .LVU573
 1625              	.LBE107:
 274:coapLIB/coap.c **** 
 1626              		.loc 1 274 16 view .LVU574
 1627 012a 0920     		movs	r0, #9
 346:coapLIB/coap.c **** 
 1628              		.loc 1 346 1 view .LVU575
 1629 012c BDE8F883 		pop	{r3, r4, r5, r6, r7, r8, r9, pc}
 1630              	.LVL161:
 1631              	.L142:
 285:coapLIB/coap.c ****         return COAP_ERR_UNSUPPORTED;
 1632              		.loc 1 285 56 discriminator 1 view .LVU576
 1633 0130 E968     		ldr	r1, [r5, #12]
 1634              	.LVL162:
 285:coapLIB/coap.c ****         return COAP_ERR_UNSUPPORTED;
 1635              		.loc 1 285 28 discriminator 1 view .LVU577
 1636 0132 8A42     		cmp	r2, r1
 1637 0134 37D1     		bne	.L125
 288:coapLIB/coap.c ****         memcpy(p, pkt->tok.p, pkt->hdr.tkl);
 1638              		.loc 1 288 5 is_stmt 1 view .LVU578
 289:coapLIB/coap.c **** 
 1639              		.loc 1 289 9 view .LVU579
 1640 0136 1846     		mov	r0, r3
 1641              	.LVL163:
 289:coapLIB/coap.c **** 
 1642              		.loc 1 289 9 is_stmt 0 view .LVU580
 1643 0138 A968     		ldr	r1, [r5, #8]
 1644 013a FFF7FEFF 		bl	memcpy
 1645              	.LVL164:
 293:coapLIB/coap.c **** 
 1646              		.loc 1 293 18 view .LVU581
 1647 013e AA78     		ldrb	r2, [r5, #2]	@ zero_extendqisi2
 289:coapLIB/coap.c **** 
 1648              		.loc 1 289 9 view .LVU582
 1649 0140 0346     		mov	r3, r0
 1650 0142 81E7     		b	.L100
 1651              	.LVL165:
ARM GAS  C:\Users\clay0\AppData\Local\Temp\ccvKv5Cc.s 			page 43


 1652              	.L147:
 1653              	.LBB108:
 1654              	.LBB102:
 1655              	.LBB84:
 1656              	.LBB76:
 1657              	.LBB73:
 358:coapLIB/coap.c ****     {
 1658              		.loc 1 358 12 is_stmt 1 view .LVU583
 358:coapLIB/coap.c ****     {
 1659              		.loc 1 358 15 is_stmt 0 view .LVU584
 1660 0144 4245     		cmp	r2, r8
 1661 0146 26D8     		bhi	.L148
 1662              		.loc 1 360 9 is_stmt 1 view .LVU585
 1663              	.LVL166:
 1664              		.loc 1 360 9 is_stmt 0 view .LVU586
 1665              	.LBE73:
 1666              	.LBE76:
 1667              	.LBE84:
 1668              	.LBE102:
 306:coapLIB/coap.c ****         if (delta == 13)
 1669              		.loc 1 306 9 is_stmt 1 view .LVU587
 306:coapLIB/coap.c ****         if (delta == 13)
 1670              		.loc 1 306 14 is_stmt 0 view .LVU588
 1671 0148 DE22     		movs	r2, #222
 1672 014a 1A70     		strb	r2, [r3]
 307:coapLIB/coap.c ****         {
 1673              		.loc 1 307 9 is_stmt 1 view .LVU589
 1674              	.LVL167:
 1675              	.L114:
 309:coapLIB/coap.c ****         }
 1676              		.loc 1 309 13 view .LVU590
 309:coapLIB/coap.c ****         }
 1677              		.loc 1 309 30 is_stmt 0 view .LVU591
 1678 014c ACF10D0C 		sub	ip, ip, #13
 1679              	.LVL168:
 309:coapLIB/coap.c ****         }
 1680              		.loc 1 309 18 view .LVU592
 1681 0150 83F801C0 		strb	ip, [r3, #1]
 309:coapLIB/coap.c ****         }
 1682              		.loc 1 309 15 view .LVU593
 1683 0154 9A1C     		adds	r2, r3, #2
 1684              	.LVL169:
 317:coapLIB/coap.c ****         {
 1685              		.loc 1 317 9 is_stmt 1 view .LVU594
 1686 0156 BDE7     		b	.L111
 1687              	.LVL170:
 1688              	.L145:
 306:coapLIB/coap.c ****         if (delta == 13)
 1689              		.loc 1 306 9 view .LVU595
 306:coapLIB/coap.c ****         if (delta == 13)
 1690              		.loc 1 306 14 is_stmt 0 view .LVU596
 1691 0158 03F8011B 		strb	r1, [r3], #1
 1692              	.LVL171:
 307:coapLIB/coap.c ****         {
 1693              		.loc 1 307 9 is_stmt 1 view .LVU597
 307:coapLIB/coap.c ****         {
 1694              		.loc 1 307 9 is_stmt 0 view .LVU598
ARM GAS  C:\Users\clay0\AppData\Local\Temp\ccvKv5Cc.s 			page 44


 1695 015c 8AE7     		b	.L110
 1696              	.LVL172:
 1697              	.L101:
 307:coapLIB/coap.c ****         {
 1698              		.loc 1 307 9 view .LVU599
 1699              	.LBE108:
 333:coapLIB/coap.c **** 
 1700              		.loc 1 333 5 is_stmt 1 view .LVU600
 335:coapLIB/coap.c ****     {
 1701              		.loc 1 335 21 is_stmt 0 view .LVU601
 1702 015e D5F8D800 		ldr	r0, [r5, #216]
 333:coapLIB/coap.c **** 
 1703              		.loc 1 333 19 view .LVU602
 1704 0162 DA1B     		subs	r2, r3, r7
 1705              	.LVL173:
 335:coapLIB/coap.c ****     {
 1706              		.loc 1 335 5 is_stmt 1 view .LVU603
 335:coapLIB/coap.c ****     {
 1707              		.loc 1 335 8 is_stmt 0 view .LVU604
 1708 0164 D8B1     		cbz	r0, .L113
 337:coapLIB/coap.c ****             return COAP_ERR_BUFFER_TOO_SMALL;
 1709              		.loc 1 337 12 view .LVU605
 1710 0166 D9F80010 		ldr	r1, [r9]
 337:coapLIB/coap.c ****             return COAP_ERR_BUFFER_TOO_SMALL;
 1711              		.loc 1 337 48 view .LVU606
 1712 016a 0530     		adds	r0, r0, #5
 333:coapLIB/coap.c **** 
 1713              		.loc 1 333 26 view .LVU607
 1714 016c 141F     		subs	r4, r2, #4
 1715              	.LVL174:
 337:coapLIB/coap.c ****             return COAP_ERR_BUFFER_TOO_SMALL;
 1716              		.loc 1 337 9 is_stmt 1 view .LVU608
 337:coapLIB/coap.c ****             return COAP_ERR_BUFFER_TOO_SMALL;
 1717              		.loc 1 337 48 is_stmt 0 view .LVU609
 1718 016e 2044     		add	r0, r0, r4
 337:coapLIB/coap.c ****             return COAP_ERR_BUFFER_TOO_SMALL;
 1719              		.loc 1 337 12 view .LVU610
 1720 0170 8142     		cmp	r1, r0
 1721 0172 DAD3     		bcc	.L102
 339:coapLIB/coap.c ****         memcpy(buf+5 + opts_len, pkt->payload.p, pkt->payload.len);
 1722              		.loc 1 339 9 is_stmt 1 view .LVU611
 340:coapLIB/coap.c ****         *buflen = opts_len + 5 + pkt->payload.len;
 1723              		.loc 1 340 22 is_stmt 0 view .LVU612
 1724 0174 501C     		adds	r0, r2, #1
 339:coapLIB/coap.c ****         memcpy(buf+5 + opts_len, pkt->payload.p, pkt->payload.len);
 1725              		.loc 1 339 27 view .LVU613
 1726 0176 FF22     		movs	r2, #255
 1727 0178 1A70     		strb	r2, [r3]
 340:coapLIB/coap.c ****         *buflen = opts_len + 5 + pkt->payload.len;
 1728              		.loc 1 340 9 is_stmt 1 view .LVU614
 1729 017a D5E93512 		ldrd	r1, r2, [r5, #212]
 1730 017e 3844     		add	r0, r0, r7
 1731 0180 FFF7FEFF 		bl	memcpy
 1732              	.LVL175:
 341:coapLIB/coap.c ****     }
 1733              		.loc 1 341 9 view .LVU615
 341:coapLIB/coap.c ****     }
ARM GAS  C:\Users\clay0\AppData\Local\Temp\ccvKv5Cc.s 			page 45


 1734              		.loc 1 341 32 is_stmt 0 view .LVU616
 1735 0184 D5F8D830 		ldr	r3, [r5, #216]
 1736 0188 0533     		adds	r3, r3, #5
 1737 018a 1C44     		add	r4, r4, r3
 1738              	.LVL176:
 345:coapLIB/coap.c **** }
 1739              		.loc 1 345 12 view .LVU617
 1740 018c 0020     		movs	r0, #0
 341:coapLIB/coap.c ****     }
 1741              		.loc 1 341 17 view .LVU618
 1742 018e C9F80040 		str	r4, [r9]
 346:coapLIB/coap.c **** 
 1743              		.loc 1 346 1 view .LVU619
 1744 0192 BDE8F883 		pop	{r3, r4, r5, r6, r7, r8, r9, pc}
 1745              	.LVL177:
 1746              	.L148:
 1747              	.LBB109:
 306:coapLIB/coap.c ****         if (delta == 13)
 1748              		.loc 1 306 9 is_stmt 1 view .LVU620
 306:coapLIB/coap.c ****         if (delta == 13)
 1749              		.loc 1 306 36 is_stmt 0 view .LVU621
 1750 0196 6FF02F02 		mvn	r2, #47
 306:coapLIB/coap.c ****         if (delta == 13)
 1751              		.loc 1 306 14 view .LVU622
 1752 019a 1A70     		strb	r2, [r3]
 307:coapLIB/coap.c ****         {
 1753              		.loc 1 307 9 is_stmt 1 view .LVU623
 1754 019c B4E7     		b	.L109
 1755              	.LVL178:
 1756              	.L113:
 307:coapLIB/coap.c ****         {
 1757              		.loc 1 307 9 is_stmt 0 view .LVU624
 1758              	.LBE109:
 344:coapLIB/coap.c ****     return 0;
 1759              		.loc 1 344 9 is_stmt 1 view .LVU625
 344:coapLIB/coap.c ****     return 0;
 1760              		.loc 1 344 17 is_stmt 0 view .LVU626
 1761 019e C9F80020 		str	r2, [r9]
 346:coapLIB/coap.c **** 
 1762              		.loc 1 346 1 view .LVU627
 1763 01a2 BDE8F883 		pop	{r3, r4, r5, r6, r7, r8, r9, pc}
 1764              	.LVL179:
 1765              	.L125:
 286:coapLIB/coap.c ****     
 1766              		.loc 1 286 16 view .LVU628
 1767 01a6 0A20     		movs	r0, #10
 1768              	.LVL180:
 346:coapLIB/coap.c **** 
 1769              		.loc 1 346 1 view .LVU629
 1770 01a8 BDE8F883 		pop	{r3, r4, r5, r6, r7, r8, r9, pc}
 1771              	.LVL181:
 1772              	.L150:
 346:coapLIB/coap.c **** 
 1773              		.loc 1 346 1 view .LVU630
 1774              		.align	2
 1775              	.L149:
 1776 01ac 0C010100 		.word	65804
ARM GAS  C:\Users\clay0\AppData\Local\Temp\ccvKv5Cc.s 			page 46


 1777              		.cfi_endproc
 1778              	.LFE10:
 1780              		.section	.text.coap_option_nibble,"ax",%progbits
 1781              		.align	1
 1782              		.p2align 2,,3
 1783              		.global	coap_option_nibble
 1784              		.syntax unified
 1785              		.thumb
 1786              		.thumb_func
 1788              	coap_option_nibble:
 1789              	.LVL182:
 1790              	.LFB11:
 349:coapLIB/coap.c ****     if (value<13)
 1791              		.loc 1 349 1 is_stmt 1 view -0
 1792              		.cfi_startproc
 1793              		@ args = 0, pretend = 0, frame = 0
 1794              		@ frame_needed = 0, uses_anonymous_args = 0
 1795              		@ link register save eliminated.
 350:coapLIB/coap.c ****     {
 1796              		.loc 1 350 5 view .LVU632
 350:coapLIB/coap.c ****     {
 1797              		.loc 1 350 8 is_stmt 0 view .LVU633
 1798 0000 0C28     		cmp	r0, #12
 1799 0002 01D8     		bhi	.L152
 352:coapLIB/coap.c ****     }
 1800              		.loc 1 352 9 is_stmt 1 view .LVU634
 352:coapLIB/coap.c ****     }
 1801              		.loc 1 352 17 is_stmt 0 view .LVU635
 1802 0004 0870     		strb	r0, [r1]
 1803 0006 7047     		bx	lr
 1804              	.L152:
 1805              	.LVL183:
 1806              	.LBB112:
 1807              	.LBI112:
 348:coapLIB/coap.c **** {
 1808              		.loc 1 348 6 is_stmt 1 view .LVU636
 1809              	.LBB113:
 355:coapLIB/coap.c ****     {
 1810              		.loc 1 355 5 view .LVU637
 355:coapLIB/coap.c ****     {
 1811              		.loc 1 355 8 is_stmt 0 view .LVU638
 1812 0008 B0F5867F 		cmp	r0, #268
 1813 000c 02D8     		bhi	.L154
 357:coapLIB/coap.c ****     } else if (value<=0xFFFF+269)
 1814              		.loc 1 357 9 is_stmt 1 view .LVU639
 357:coapLIB/coap.c ****     } else if (value<=0xFFFF+269)
 1815              		.loc 1 357 17 is_stmt 0 view .LVU640
 1816 000e 0D23     		movs	r3, #13
 1817 0010 0B70     		strb	r3, [r1]
 1818 0012 7047     		bx	lr
 1819              	.L154:
 358:coapLIB/coap.c ****     {
 1820              		.loc 1 358 12 is_stmt 1 view .LVU641
 358:coapLIB/coap.c ****     {
 1821              		.loc 1 358 15 is_stmt 0 view .LVU642
 1822 0014 024B     		ldr	r3, .L155
 1823 0016 9842     		cmp	r0, r3
ARM GAS  C:\Users\clay0\AppData\Local\Temp\ccvKv5Cc.s 			page 47


 1824              		.loc 1 360 9 is_stmt 1 view .LVU643
 1825              		.loc 1 360 17 is_stmt 0 view .LVU644
 1826 0018 9CBF     		itt	ls
 1827 001a 0E23     		movls	r3, #14
 1828 001c 0B70     		strbls	r3, [r1]
 1829              	.LVL184:
 1830              		.loc 1 360 17 view .LVU645
 1831              	.LBE113:
 1832              	.LBE112:
 361:coapLIB/coap.c ****     }
 362:coapLIB/coap.c **** }
 1833              		.loc 1 362 1 view .LVU646
 1834 001e 7047     		bx	lr
 1835              	.L156:
 1836              		.align	2
 1837              	.L155:
 1838 0020 0C010100 		.word	65804
 1839              		.cfi_endproc
 1840              	.LFE11:
 1842              		.section	.text.coap_make_response,"ax",%progbits
 1843              		.align	1
 1844              		.p2align 2,,3
 1845              		.global	coap_make_response
 1846              		.syntax unified
 1847              		.thumb
 1848              		.thumb_func
 1850              	coap_make_response:
 1851              	.LVL185:
 1852              	.LFB12:
 363:coapLIB/coap.c **** 
 364:coapLIB/coap.c **** int coap_make_response(coap_rw_buffer_t *scratch, coap_packet_t *pkt, const uint8_t *content, size_
 365:coapLIB/coap.c **** {
 1853              		.loc 1 365 1 is_stmt 1 view -0
 1854              		.cfi_startproc
 1855              		@ args = 20, pretend = 0, frame = 0
 1856              		@ frame_needed = 0, uses_anonymous_args = 0
 366:coapLIB/coap.c ****     pkt->hdr.ver = 0x01;
 1857              		.loc 1 366 5 view .LVU648
 367:coapLIB/coap.c ****     pkt->hdr.t = COAP_TYPE_ACK;
 1858              		.loc 1 367 5 view .LVU649
 368:coapLIB/coap.c ****     pkt->hdr.tkl = 0;
 1859              		.loc 1 368 5 view .LVU650
 365:coapLIB/coap.c ****     pkt->hdr.ver = 0x01;
 1860              		.loc 1 365 1 is_stmt 0 view .LVU651
 1861 0000 30B5     		push	{r4, r5, lr}
 1862              	.LCFI12:
 1863              		.cfi_def_cfa_offset 12
 1864              		.cfi_offset 4, -12
 1865              		.cfi_offset 5, -8
 1866              		.cfi_offset 14, -4
 365:coapLIB/coap.c ****     pkt->hdr.ver = 0x01;
 1867              		.loc 1 365 1 view .LVU652
 1868 0002 8C46     		mov	ip, r1
 1869 0004 8646     		mov	lr, r0
 1870 0006 9DF80C10 		ldrb	r1, [sp, #12]	@ zero_extendqisi2
 1871              	.LVL186:
 365:coapLIB/coap.c ****     pkt->hdr.ver = 0x01;
ARM GAS  C:\Users\clay0\AppData\Local\Temp\ccvKv5Cc.s 			page 48


 1872              		.loc 1 365 1 view .LVU653
 1873 000a 9DF81000 		ldrb	r0, [sp, #16]	@ zero_extendqisi2
 1874              	.LVL187:
 369:coapLIB/coap.c ****     pkt->hdr.code = rspcode;
 370:coapLIB/coap.c ****     pkt->hdr.id[0] = msgid_hi;
 1875              		.loc 1 370 20 view .LVU654
 1876 000e 8CF80410 		strb	r1, [ip, #4]
 371:coapLIB/coap.c ****     pkt->hdr.id[1] = msgid_lo;
 1877              		.loc 1 371 20 view .LVU655
 1878 0012 8CF80500 		strb	r0, [ip, #5]
 372:coapLIB/coap.c ****     pkt->numopts = 1;
 1879              		.loc 1 372 18 view .LVU656
 1880 0016 0121     		movs	r1, #1
 365:coapLIB/coap.c ****     pkt->hdr.ver = 0x01;
 1881              		.loc 1 365 1 view .LVU657
 1882 0018 9DF81800 		ldrb	r0, [sp, #24]	@ zero_extendqisi2
 1883              		.loc 1 372 18 view .LVU658
 1884 001c 8CF81010 		strb	r1, [ip, #16]
 369:coapLIB/coap.c ****     pkt->hdr.id[0] = msgid_hi;
 1885              		.loc 1 369 19 view .LVU659
 1886 0020 8CF80300 		strb	r0, [ip, #3]
 365:coapLIB/coap.c ****     pkt->hdr.ver = 0x01;
 1887              		.loc 1 365 1 view .LVU660
 1888 0024 0599     		ldr	r1, [sp, #20]
 1889 0026 9DF91C40 		ldrsb	r4, [sp, #28]
 366:coapLIB/coap.c ****     pkt->hdr.t = COAP_TYPE_ACK;
 1890              		.loc 1 366 18 view .LVU661
 1891 002a 40F20120 		movw	r0, #513
 1892 002e ACF80000 		strh	r0, [ip]	@ movhi
 368:coapLIB/coap.c ****     pkt->hdr.code = rspcode;
 1893              		.loc 1 368 18 view .LVU662
 1894 0032 0020     		movs	r0, #0
 1895 0034 8CF80200 		strb	r0, [ip, #2]
 369:coapLIB/coap.c ****     pkt->hdr.id[0] = msgid_hi;
 1896              		.loc 1 369 5 is_stmt 1 view .LVU663
 370:coapLIB/coap.c ****     pkt->hdr.id[1] = msgid_lo;
 1897              		.loc 1 370 5 view .LVU664
 371:coapLIB/coap.c ****     pkt->numopts = 1;
 1898              		.loc 1 371 5 view .LVU665
 1899              		.loc 1 372 5 view .LVU666
 373:coapLIB/coap.c **** 
 374:coapLIB/coap.c ****     // need token in response
 375:coapLIB/coap.c ****     if (tok) {
 1900              		.loc 1 375 5 view .LVU667
 1901              		.loc 1 375 8 is_stmt 0 view .LVU668
 1902 0038 39B1     		cbz	r1, .L158
 376:coapLIB/coap.c ****         pkt->hdr.tkl = tok->len;
 1903              		.loc 1 376 9 is_stmt 1 view .LVU669
 1904              		.loc 1 376 22 is_stmt 0 view .LVU670
 1905 003a 4868     		ldr	r0, [r1, #4]
 1906 003c 8CF80200 		strb	r0, [ip, #2]
 377:coapLIB/coap.c ****         pkt->tok = *tok;
 1907              		.loc 1 377 9 is_stmt 1 view .LVU671
 1908              		.loc 1 377 18 is_stmt 0 view .LVU672
 1909 0040 03C9     		ldm	r1, {r0, r1}
 1910 0042 0CF10805 		add	r5, ip, #8
 1911 0046 85E80300 		stm	r5, {r0, r1}
ARM GAS  C:\Users\clay0\AppData\Local\Temp\ccvKv5Cc.s 			page 49


 1912              	.L158:
 378:coapLIB/coap.c ****     }
 379:coapLIB/coap.c **** 
 380:coapLIB/coap.c ****     // safe because 1 < MAXOPT
 381:coapLIB/coap.c ****     pkt->opts[0].num = COAP_OPTION_CONTENT_FORMAT;
 1913              		.loc 1 381 5 is_stmt 1 view .LVU673
 1914              		.loc 1 381 22 is_stmt 0 view .LVU674
 1915 004a 0C21     		movs	r1, #12
 1916 004c 8CF81410 		strb	r1, [ip, #20]
 382:coapLIB/coap.c ****     pkt->opts[0].buf.p = scratch->p;
 1917              		.loc 1 382 5 is_stmt 1 view .LVU675
 1918              		.loc 1 382 33 is_stmt 0 view .LVU676
 1919 0050 DEE90010 		ldrd	r1, r0, [lr]
 383:coapLIB/coap.c ****     if (scratch->len < 2)
 1920              		.loc 1 383 8 view .LVU677
 1921 0054 0128     		cmp	r0, #1
 382:coapLIB/coap.c ****     pkt->opts[0].buf.p = scratch->p;
 1922              		.loc 1 382 24 view .LVU678
 1923 0056 CCF81810 		str	r1, [ip, #24]
 1924              		.loc 1 383 5 is_stmt 1 view .LVU679
 1925              		.loc 1 383 8 is_stmt 0 view .LVU680
 1926 005a 0BD9     		bls	.L160
 384:coapLIB/coap.c ****         return COAP_ERR_BUFFER_TOO_SMALL;
 385:coapLIB/coap.c ****     scratch->p[0] = ((uint16_t)content_type & 0xFF00) >> 8;
 1927              		.loc 1 385 5 is_stmt 1 view .LVU681
 1928              		.loc 1 385 55 is_stmt 0 view .LVU682
 1929 005c 200E     		lsrs	r0, r4, #24
 1930              		.loc 1 385 19 view .LVU683
 1931 005e 0870     		strb	r0, [r1]
 386:coapLIB/coap.c ****     scratch->p[1] = ((uint16_t)content_type & 0x00FF);
 1932              		.loc 1 386 5 is_stmt 1 view .LVU684
 1933              		.loc 1 386 12 is_stmt 0 view .LVU685
 1934 0060 DEF80010 		ldr	r1, [lr]
 1935              		.loc 1 386 19 view .LVU686
 1936 0064 4C70     		strb	r4, [r1, #1]
 387:coapLIB/coap.c ****     pkt->opts[0].buf.len = 2;
 1937              		.loc 1 387 5 is_stmt 1 view .LVU687
 1938              		.loc 1 387 26 is_stmt 0 view .LVU688
 1939 0066 0221     		movs	r1, #2
 388:coapLIB/coap.c ****     pkt->payload.p = content;
 389:coapLIB/coap.c ****     pkt->payload.len = content_len;
 1940              		.loc 1 389 22 view .LVU689
 1941 0068 CCE93523 		strd	r2, r3, [ip, #212]
 387:coapLIB/coap.c ****     pkt->opts[0].buf.len = 2;
 1942              		.loc 1 387 26 view .LVU690
 1943 006c CCF81C10 		str	r1, [ip, #28]
 388:coapLIB/coap.c ****     pkt->payload.p = content;
 1944              		.loc 1 388 5 is_stmt 1 view .LVU691
 390:coapLIB/coap.c ****     return 0;
 1945              		.loc 1 390 5 view .LVU692
 1946              		.loc 1 390 12 is_stmt 0 view .LVU693
 1947 0070 0020     		movs	r0, #0
 391:coapLIB/coap.c **** }
 1948              		.loc 1 391 1 view .LVU694
 1949 0072 30BD     		pop	{r4, r5, pc}
 1950              	.LVL188:
 1951              	.L160:
ARM GAS  C:\Users\clay0\AppData\Local\Temp\ccvKv5Cc.s 			page 50


 384:coapLIB/coap.c ****     scratch->p[0] = ((uint16_t)content_type & 0xFF00) >> 8;
 1952              		.loc 1 384 16 view .LVU695
 1953 0074 0920     		movs	r0, #9
 1954              		.loc 1 391 1 view .LVU696
 1955 0076 30BD     		pop	{r4, r5, pc}
 1956              		.loc 1 391 1 view .LVU697
 1957              		.cfi_endproc
 1958              	.LFE12:
 1960              		.section	.text.coap_handle_req,"ax",%progbits
 1961              		.align	1
 1962              		.p2align 2,,3
 1963              		.global	coap_handle_req
 1964              		.syntax unified
 1965              		.thumb
 1966              		.thumb_func
 1968              	coap_handle_req:
 1969              	.LVL189:
 1970              	.LFB13:
 392:coapLIB/coap.c **** 
 393:coapLIB/coap.c **** // FIXME, if this looked in the table at the path before the method then
 394:coapLIB/coap.c **** // it could more easily return 405 errors
 395:coapLIB/coap.c **** int coap_handle_req(coap_rw_buffer_t *scratch, const coap_packet_t *inpkt, coap_packet_t *outpkt)
 396:coapLIB/coap.c **** {
 1971              		.loc 1 396 1 is_stmt 1 view -0
 1972              		.cfi_startproc
 1973              		@ args = 0, pretend = 0, frame = 16
 1974              		@ frame_needed = 0, uses_anonymous_args = 0
 397:coapLIB/coap.c ****     const coap_option_t *opt;
 1975              		.loc 1 397 5 view .LVU699
 398:coapLIB/coap.c ****     uint8_t count;
 1976              		.loc 1 398 5 view .LVU700
 399:coapLIB/coap.c ****     int i;
 1977              		.loc 1 399 5 view .LVU701
 400:coapLIB/coap.c ****     const coap_endpoint_t *ep = endpoints;
 1978              		.loc 1 400 5 view .LVU702
 401:coapLIB/coap.c **** 
 402:coapLIB/coap.c ****     while(NULL != ep->handler)
 1979              		.loc 1 402 5 view .LVU703
 1980              		.loc 1 402 10 view .LVU704
 396:coapLIB/coap.c ****     const coap_option_t *opt;
 1981              		.loc 1 396 1 is_stmt 0 view .LVU705
 1982 0000 2DE9F04F 		push	{r4, r5, r6, r7, r8, r9, r10, fp, lr}
 1983              	.LCFI13:
 1984              		.cfi_def_cfa_offset 36
 1985              		.cfi_offset 4, -36
 1986              		.cfi_offset 5, -32
 1987              		.cfi_offset 6, -28
 1988              		.cfi_offset 7, -24
 1989              		.cfi_offset 8, -20
 1990              		.cfi_offset 9, -16
 1991              		.cfi_offset 10, -12
 1992              		.cfi_offset 11, -8
 1993              		.cfi_offset 14, -4
 1994              		.loc 1 402 21 view .LVU706
 1995 0004 704E     		ldr	r6, .L210
 396:coapLIB/coap.c ****     const coap_option_t *opt;
 1996              		.loc 1 396 1 view .LVU707
ARM GAS  C:\Users\clay0\AppData\Local\Temp\ccvKv5Cc.s 			page 51


 1997 0006 87B0     		sub	sp, sp, #28
 1998              	.LCFI14:
 1999              		.cfi_def_cfa_offset 64
 2000              		.loc 1 402 21 view .LVU708
 2001 0008 7768     		ldr	r7, [r6, #4]
 396:coapLIB/coap.c ****     const coap_option_t *opt;
 2002              		.loc 1 396 1 view .LVU709
 2003 000a 0290     		str	r0, [sp, #8]
 2004 000c 8846     		mov	r8, r1
 2005 000e 9146     		mov	r9, r2
 2006              		.loc 1 402 10 view .LVU710
 2007 0010 002F     		cmp	r7, #0
 2008 0012 00F09480 		beq	.L166
 403:coapLIB/coap.c ****     {
 404:coapLIB/coap.c ****         if (ep->method != inpkt->hdr.code)
 2009              		.loc 1 404 37 view .LVU711
 2010 0016 91F803B0 		ldrb	fp, [r1, #3]	@ zero_extendqisi2
 2011 001a 1036     		adds	r6, r6, #16
 2012 001c 04E0     		b	.L176
 2013              	.LVL190:
 2014              	.L167:
 2015              	.LBB114:
 2016              	.LBB115:
 253:coapLIB/coap.c **** }
 2017              		.loc 1 253 5 is_stmt 1 view .LVU712
 253:coapLIB/coap.c **** }
 2018              		.loc 1 253 5 is_stmt 0 view .LVU713
 2019              	.LBE115:
 2020              	.LBE114:
 405:coapLIB/coap.c ****             goto next;
 406:coapLIB/coap.c ****         if (NULL != (opt = coap_findOptions(inpkt, COAP_OPTION_URI_PATH, &count)))
 407:coapLIB/coap.c ****         {
 408:coapLIB/coap.c ****             if (count != ep->path->count)
 409:coapLIB/coap.c ****                 goto next;
 410:coapLIB/coap.c ****             for (i=0;i<count;i++)
 411:coapLIB/coap.c ****             {
 412:coapLIB/coap.c ****                 if (opt[i].buf.len != strlen(ep->path->elems[i]))
 413:coapLIB/coap.c ****                     goto next;
 414:coapLIB/coap.c ****                 if (0 != memcmp(ep->path->elems[i], opt[i].buf.p, opt[i].buf.len))
 415:coapLIB/coap.c ****                     goto next;
 416:coapLIB/coap.c ****             }
 417:coapLIB/coap.c ****             // match!
 418:coapLIB/coap.c ****             return ep->handler(scratch, inpkt, outpkt, inpkt->hdr.id[0], inpkt->hdr.id[1]);
 419:coapLIB/coap.c ****         }
 420:coapLIB/coap.c **** next:
 421:coapLIB/coap.c ****         ep++;
 2021              		.loc 1 421 9 is_stmt 1 view .LVU714
 402:coapLIB/coap.c ****     {
 2022              		.loc 1 402 10 view .LVU715
 402:coapLIB/coap.c ****     {
 2023              		.loc 1 402 21 is_stmt 0 view .LVU716
 2024 001e 7768     		ldr	r7, [r6, #4]
 402:coapLIB/coap.c ****     {
 2025              		.loc 1 402 10 view .LVU717
 2026 0020 1036     		adds	r6, r6, #16
 2027              	.LVL191:
 402:coapLIB/coap.c ****     {
ARM GAS  C:\Users\clay0\AppData\Local\Temp\ccvKv5Cc.s 			page 52


 2028              		.loc 1 402 10 view .LVU718
 2029 0022 002F     		cmp	r7, #0
 2030 0024 00F08B80 		beq	.L166
 2031              	.LVL192:
 2032              	.L176:
 404:coapLIB/coap.c ****             goto next;
 2033              		.loc 1 404 9 is_stmt 1 view .LVU719
 404:coapLIB/coap.c ****             goto next;
 2034              		.loc 1 404 12 is_stmt 0 view .LVU720
 2035 0028 16F8103C 		ldrb	r3, [r6, #-16]	@ zero_extendqisi2
 2036 002c 5B45     		cmp	r3, fp
 2037 002e F6D1     		bne	.L167
 2038              	.LVL193:
 2039              	.LBB117:
 2040              	.LBB116:
 239:coapLIB/coap.c ****     {
 2041              		.loc 1 239 14 is_stmt 1 view .LVU721
 239:coapLIB/coap.c ****     {
 2042              		.loc 1 239 19 is_stmt 0 view .LVU722
 2043 0030 98F81000 		ldrb	r0, [r8, #16]	@ zero_extendqisi2
 239:coapLIB/coap.c ****     {
 2044              		.loc 1 239 5 view .LVU723
 2045 0034 0028     		cmp	r0, #0
 2046 0036 F2D0     		beq	.L167
 238:coapLIB/coap.c ****     for (i=0;i<pkt->numopts;i++)
 2047              		.loc 1 238 12 view .LVU724
 2048 0038 0025     		movs	r5, #0
 2049 003a 08F11403 		add	r3, r8, #20
 237:coapLIB/coap.c ****     *count = 0;
 2050              		.loc 1 237 26 view .LVU725
 2051 003e 2C46     		mov	r4, r5
 239:coapLIB/coap.c ****     {
 2052              		.loc 1 239 11 view .LVU726
 2053 0040 2A46     		mov	r2, r5
 2054 0042 05E0     		b	.L172
 2055              	.LVL194:
 2056              	.L168:
 249:coapLIB/coap.c ****                 break;
 2057              		.loc 1 249 16 view .LVU727
 2058 0044 9CB9     		cbnz	r4, .L171
 239:coapLIB/coap.c ****     {
 2059              		.loc 1 239 29 is_stmt 1 view .LVU728
 239:coapLIB/coap.c ****     {
 2060              		.loc 1 239 30 is_stmt 0 view .LVU729
 2061 0046 0132     		adds	r2, r2, #1
 2062              	.LVL195:
 239:coapLIB/coap.c ****     {
 2063              		.loc 1 239 14 is_stmt 1 view .LVU730
 239:coapLIB/coap.c ****     {
 2064              		.loc 1 239 5 is_stmt 0 view .LVU731
 2065 0048 8242     		cmp	r2, r0
 2066 004a 03F10C03 		add	r3, r3, #12
 2067 004e 0CD0     		beq	.L207
 2068              	.LVL196:
 2069              	.L172:
 241:coapLIB/coap.c ****         {
 2070              		.loc 1 241 9 is_stmt 1 view .LVU732
ARM GAS  C:\Users\clay0\AppData\Local\Temp\ccvKv5Cc.s 			page 53


 249:coapLIB/coap.c ****                 break;
 2071              		.loc 1 249 13 view .LVU733
 241:coapLIB/coap.c ****         {
 2072              		.loc 1 241 12 is_stmt 0 view .LVU734
 2073 0050 1978     		ldrb	r1, [r3]	@ zero_extendqisi2
 2074 0052 0B29     		cmp	r1, #11
 2075 0054 F6D1     		bne	.L168
 243:coapLIB/coap.c ****                 first = &pkt->opts[i];
 2076              		.loc 1 243 13 is_stmt 1 view .LVU735
 239:coapLIB/coap.c ****     {
 2077              		.loc 1 239 30 is_stmt 0 view .LVU736
 2078 0056 0132     		adds	r2, r2, #1
 2079              	.LVL197:
 243:coapLIB/coap.c ****                 first = &pkt->opts[i];
 2080              		.loc 1 243 16 view .LVU737
 2081 0058 002C     		cmp	r4, #0
 2082 005a 08BF     		it	eq
 2083 005c 1C46     		moveq	r4, r3
 2084              	.LVL198:
 245:coapLIB/coap.c ****         }
 2085              		.loc 1 245 13 is_stmt 1 view .LVU738
 245:coapLIB/coap.c ****         }
 2086              		.loc 1 245 21 is_stmt 0 view .LVU739
 2087 005e 0135     		adds	r5, r5, #1
 2088              	.LVL199:
 239:coapLIB/coap.c ****     {
 2089              		.loc 1 239 5 view .LVU740
 2090 0060 8242     		cmp	r2, r0
 245:coapLIB/coap.c ****         }
 2091              		.loc 1 245 21 view .LVU741
 2092 0062 EDB2     		uxtb	r5, r5
 2093              	.LVL200:
 239:coapLIB/coap.c ****     {
 2094              		.loc 1 239 29 is_stmt 1 view .LVU742
 239:coapLIB/coap.c ****     {
 2095              		.loc 1 239 14 view .LVU743
 239:coapLIB/coap.c ****     {
 2096              		.loc 1 239 5 is_stmt 0 view .LVU744
 2097 0064 03F10C03 		add	r3, r3, #12
 2098 0068 F2D1     		bne	.L172
 2099              	.L207:
 253:coapLIB/coap.c **** }
 2100              		.loc 1 253 5 is_stmt 1 view .LVU745
 2101              	.LVL201:
 253:coapLIB/coap.c **** }
 2102              		.loc 1 253 5 is_stmt 0 view .LVU746
 2103              	.LBE116:
 2104              	.LBE117:
 406:coapLIB/coap.c ****         {
 2105              		.loc 1 406 12 view .LVU747
 2106 006a 002C     		cmp	r4, #0
 2107 006c D7D0     		beq	.L167
 2108              	.LVL202:
 2109              	.L171:
 408:coapLIB/coap.c ****                 goto next;
 2110              		.loc 1 408 13 is_stmt 1 view .LVU748
 408:coapLIB/coap.c ****                 goto next;
ARM GAS  C:\Users\clay0\AppData\Local\Temp\ccvKv5Cc.s 			page 54


 2111              		.loc 1 408 28 is_stmt 0 view .LVU749
 2112 006e 56F808AC 		ldr	r10, [r6, #-8]
 408:coapLIB/coap.c ****                 goto next;
 2113              		.loc 1 408 16 view .LVU750
 2114 0072 DAF80030 		ldr	r3, [r10]
 2115 0076 9D42     		cmp	r5, r3
 2116 0078 D1D1     		bne	.L167
 2117              	.LVL203:
 410:coapLIB/coap.c ****             {
 2118              		.loc 1 410 22 is_stmt 1 view .LVU751
 410:coapLIB/coap.c ****             {
 2119              		.loc 1 410 13 is_stmt 0 view .LVU752
 2120 007a 002D     		cmp	r5, #0
 2121 007c 00F09380 		beq	.L173
 412:coapLIB/coap.c ****                     goto next;
 2122              		.loc 1 412 17 is_stmt 1 view .LVU753
 412:coapLIB/coap.c ****                     goto next;
 2123              		.loc 1 412 39 is_stmt 0 view .LVU754
 2124 0080 DAF80430 		ldr	r3, [r10, #4]
 412:coapLIB/coap.c ****                     goto next;
 2125              		.loc 1 412 31 view .LVU755
 2126 0084 A168     		ldr	r1, [r4, #8]
 2127 0086 0391     		str	r1, [sp, #12]
 412:coapLIB/coap.c ****                     goto next;
 2128              		.loc 1 412 39 view .LVU756
 2129 0088 1846     		mov	r0, r3
 2130 008a 0493     		str	r3, [sp, #16]
 2131 008c FFF7FEFF 		bl	strlen
 2132              	.LVL204:
 412:coapLIB/coap.c ****                     goto next;
 2133              		.loc 1 412 20 view .LVU757
 2134 0090 0399     		ldr	r1, [sp, #12]
 2135 0092 8842     		cmp	r0, r1
 412:coapLIB/coap.c ****                     goto next;
 2136              		.loc 1 412 39 view .LVU758
 2137 0094 0246     		mov	r2, r0
 412:coapLIB/coap.c ****                     goto next;
 2138              		.loc 1 412 20 view .LVU759
 2139 0096 C2D1     		bne	.L167
 414:coapLIB/coap.c ****                     goto next;
 2140              		.loc 1 414 17 is_stmt 1 view .LVU760
 414:coapLIB/coap.c ****                     goto next;
 2141              		.loc 1 414 26 is_stmt 0 view .LVU761
 2142 0098 049B     		ldr	r3, [sp, #16]
 2143 009a 6168     		ldr	r1, [r4, #4]
 2144 009c 1846     		mov	r0, r3
 2145 009e FFF7FEFF 		bl	memcmp
 2146              	.LVL205:
 414:coapLIB/coap.c ****                     goto next;
 2147              		.loc 1 414 20 view .LVU762
 2148 00a2 0028     		cmp	r0, #0
 2149 00a4 BBD1     		bne	.L167
 410:coapLIB/coap.c ****             {
 2150              		.loc 1 410 30 is_stmt 1 view .LVU763
 2151              	.LVL206:
 410:coapLIB/coap.c ****             {
 2152              		.loc 1 410 22 view .LVU764
ARM GAS  C:\Users\clay0\AppData\Local\Temp\ccvKv5Cc.s 			page 55


 410:coapLIB/coap.c ****             {
 2153              		.loc 1 410 13 is_stmt 0 view .LVU765
 2154 00a6 012D     		cmp	r5, #1
 2155 00a8 7DD0     		beq	.L173
 412:coapLIB/coap.c ****                     goto next;
 2156              		.loc 1 412 17 is_stmt 1 view .LVU766
 412:coapLIB/coap.c ****                     goto next;
 2157              		.loc 1 412 39 is_stmt 0 view .LVU767
 2158 00aa DAF80830 		ldr	r3, [r10, #8]
 412:coapLIB/coap.c ****                     goto next;
 2159              		.loc 1 412 31 view .LVU768
 2160 00ae 6169     		ldr	r1, [r4, #20]
 2161 00b0 0491     		str	r1, [sp, #16]
 412:coapLIB/coap.c ****                     goto next;
 2162              		.loc 1 412 39 view .LVU769
 2163 00b2 1846     		mov	r0, r3
 2164 00b4 0393     		str	r3, [sp, #12]
 2165 00b6 FFF7FEFF 		bl	strlen
 2166              	.LVL207:
 412:coapLIB/coap.c ****                     goto next;
 2167              		.loc 1 412 20 view .LVU770
 2168 00ba 0499     		ldr	r1, [sp, #16]
 2169 00bc 8842     		cmp	r0, r1
 412:coapLIB/coap.c ****                     goto next;
 2170              		.loc 1 412 39 view .LVU771
 2171 00be 0246     		mov	r2, r0
 412:coapLIB/coap.c ****                     goto next;
 2172              		.loc 1 412 20 view .LVU772
 2173 00c0 ADD1     		bne	.L167
 414:coapLIB/coap.c ****                     goto next;
 2174              		.loc 1 414 17 is_stmt 1 view .LVU773
 414:coapLIB/coap.c ****                     goto next;
 2175              		.loc 1 414 26 is_stmt 0 view .LVU774
 2176 00c2 039B     		ldr	r3, [sp, #12]
 2177 00c4 2169     		ldr	r1, [r4, #16]
 2178 00c6 1846     		mov	r0, r3
 2179 00c8 FFF7FEFF 		bl	memcmp
 2180              	.LVL208:
 414:coapLIB/coap.c ****                     goto next;
 2181              		.loc 1 414 20 view .LVU775
 2182 00cc 0028     		cmp	r0, #0
 2183 00ce A6D1     		bne	.L167
 410:coapLIB/coap.c ****             {
 2184              		.loc 1 410 30 is_stmt 1 view .LVU776
 2185              	.LVL209:
 410:coapLIB/coap.c ****             {
 2186              		.loc 1 410 22 view .LVU777
 410:coapLIB/coap.c ****             {
 2187              		.loc 1 410 13 is_stmt 0 view .LVU778
 2188 00d0 022D     		cmp	r5, #2
 2189 00d2 68D0     		beq	.L173
 412:coapLIB/coap.c ****                     goto next;
 2190              		.loc 1 412 17 is_stmt 1 view .LVU779
 412:coapLIB/coap.c ****                     goto next;
 2191              		.loc 1 412 39 is_stmt 0 view .LVU780
 2192 00d4 DAF80C30 		ldr	r3, [r10, #12]
 412:coapLIB/coap.c ****                     goto next;
ARM GAS  C:\Users\clay0\AppData\Local\Temp\ccvKv5Cc.s 			page 56


 2193              		.loc 1 412 31 view .LVU781
 2194 00d8 226A     		ldr	r2, [r4, #32]
 2195 00da 0392     		str	r2, [sp, #12]
 412:coapLIB/coap.c ****                     goto next;
 2196              		.loc 1 412 39 view .LVU782
 2197 00dc 1846     		mov	r0, r3
 2198 00de 0493     		str	r3, [sp, #16]
 2199 00e0 FFF7FEFF 		bl	strlen
 2200              	.LVL210:
 412:coapLIB/coap.c ****                     goto next;
 2201              		.loc 1 412 20 view .LVU783
 2202 00e4 039A     		ldr	r2, [sp, #12]
 2203 00e6 8242     		cmp	r2, r0
 2204 00e8 99D1     		bne	.L167
 414:coapLIB/coap.c ****                     goto next;
 2205              		.loc 1 414 17 is_stmt 1 view .LVU784
 414:coapLIB/coap.c ****                     goto next;
 2206              		.loc 1 414 26 is_stmt 0 view .LVU785
 2207 00ea 049B     		ldr	r3, [sp, #16]
 2208 00ec E169     		ldr	r1, [r4, #28]
 2209 00ee 1846     		mov	r0, r3
 2210 00f0 FFF7FEFF 		bl	memcmp
 2211              	.LVL211:
 414:coapLIB/coap.c ****                     goto next;
 2212              		.loc 1 414 20 view .LVU786
 2213 00f4 0028     		cmp	r0, #0
 2214 00f6 92D1     		bne	.L167
 410:coapLIB/coap.c ****             {
 2215              		.loc 1 410 30 is_stmt 1 view .LVU787
 2216              	.LVL212:
 410:coapLIB/coap.c ****             {
 2217              		.loc 1 410 22 view .LVU788
 410:coapLIB/coap.c ****             {
 2218              		.loc 1 410 13 is_stmt 0 view .LVU789
 2219 00f8 032D     		cmp	r5, #3
 2220 00fa 54D0     		beq	.L173
 410:coapLIB/coap.c ****             {
 2221              		.loc 1 410 31 view .LVU790
 2222 00fc 0323     		movs	r3, #3
 2223 00fe CDE90467 		strd	r6, r7, [sp, #16]
 2224 0102 0AF1100A 		add	r10, r10, #16
 2225 0106 2646     		mov	r6, r4
 2226              	.LVL213:
 410:coapLIB/coap.c ****             {
 2227              		.loc 1 410 31 view .LVU791
 2228 0108 CDF80C80 		str	r8, [sp, #12]
 2229 010c 1C46     		mov	r4, r3
 2230              	.LVL214:
 410:coapLIB/coap.c ****             {
 2231              		.loc 1 410 31 view .LVU792
 2232 010e 06E0     		b	.L174
 2233              	.LVL215:
 2234              	.L209:
 414:coapLIB/coap.c ****                     goto next;
 2235              		.loc 1 414 26 view .LVU793
 2236 0110 B16A     		ldr	r1, [r6, #40]
 2237 0112 FFF7FEFF 		bl	memcmp
ARM GAS  C:\Users\clay0\AppData\Local\Temp\ccvKv5Cc.s 			page 57


 2238              	.LVL216:
 410:coapLIB/coap.c ****             {
 2239              		.loc 1 410 30 is_stmt 1 view .LVU794
 410:coapLIB/coap.c ****             {
 2240              		.loc 1 410 22 view .LVU795
 410:coapLIB/coap.c ****             {
 2241              		.loc 1 410 13 is_stmt 0 view .LVU796
 2242 0116 0C36     		adds	r6, r6, #12
 414:coapLIB/coap.c ****                     goto next;
 2243              		.loc 1 414 20 view .LVU797
 2244 0118 70B9     		cbnz	r0, .L205
 410:coapLIB/coap.c ****             {
 2245              		.loc 1 410 13 discriminator 2 view .LVU798
 2246 011a A542     		cmp	r5, r4
 2247 011c 40DD     		ble	.L208
 2248              	.LVL217:
 2249              	.L174:
 412:coapLIB/coap.c ****                     goto next;
 2250              		.loc 1 412 17 is_stmt 1 view .LVU799
 412:coapLIB/coap.c ****                     goto next;
 2251              		.loc 1 412 39 is_stmt 0 view .LVU800
 2252 011e 5AF8047B 		ldr	r7, [r10], #4
 412:coapLIB/coap.c ****                     goto next;
 2253              		.loc 1 412 31 view .LVU801
 2254 0122 D6F82C80 		ldr	r8, [r6, #44]
 412:coapLIB/coap.c ****                     goto next;
 2255              		.loc 1 412 39 view .LVU802
 2256 0126 3846     		mov	r0, r7
 2257 0128 FFF7FEFF 		bl	strlen
 2258              	.LVL218:
 414:coapLIB/coap.c ****                     goto next;
 2259              		.loc 1 414 17 is_stmt 1 view .LVU803
 412:coapLIB/coap.c ****                     goto next;
 2260              		.loc 1 412 20 is_stmt 0 view .LVU804
 2261 012c 8045     		cmp	r8, r0
 410:coapLIB/coap.c ****             {
 2262              		.loc 1 410 31 view .LVU805
 2263 012e 04F10104 		add	r4, r4, #1
 2264              	.LVL219:
 414:coapLIB/coap.c ****                     goto next;
 2265              		.loc 1 414 26 view .LVU806
 2266 0132 4246     		mov	r2, r8
 2267 0134 3846     		mov	r0, r7
 412:coapLIB/coap.c ****                     goto next;
 2268              		.loc 1 412 20 view .LVU807
 2269 0136 EBD0     		beq	.L209
 2270              	.LVL220:
 2271              	.L205:
 412:coapLIB/coap.c ****                     goto next;
 2272              		.loc 1 412 20 view .LVU808
 2273 0138 DDE90386 		ldrd	r8, r6, [sp, #12]
 2274 013c 6FE7     		b	.L167
 2275              	.LVL221:
 2276              	.L166:
 422:coapLIB/coap.c ****     }
 423:coapLIB/coap.c **** 
 424:coapLIB/coap.c ****     coap_make_response(scratch, outpkt, NULL, 0, inpkt->hdr.id[0], inpkt->hdr.id[1], &inpkt->tok, C
ARM GAS  C:\Users\clay0\AppData\Local\Temp\ccvKv5Cc.s 			page 58


 2277              		.loc 1 424 5 is_stmt 1 view .LVU809
 2278              	.LBB118:
 2279              	.LBB119:
 366:coapLIB/coap.c ****     pkt->hdr.t = COAP_TYPE_ACK;
 2280              		.loc 1 366 18 is_stmt 0 view .LVU810
 2281 013e 40F20123 		movw	r3, #513
 2282              	.LBE119:
 2283              	.LBE118:
 2284              		.loc 1 424 5 view .LVU811
 2285 0142 B8F80420 		ldrh	r2, [r8, #4]
 2286              	.LVL222:
 2287              	.LBB121:
 2288              	.LBI118:
 364:coapLIB/coap.c **** {
 2289              		.loc 1 364 5 is_stmt 1 view .LVU812
 2290              	.LBB120:
 366:coapLIB/coap.c ****     pkt->hdr.t = COAP_TYPE_ACK;
 2291              		.loc 1 366 5 view .LVU813
 367:coapLIB/coap.c ****     pkt->hdr.tkl = 0;
 2292              		.loc 1 367 5 view .LVU814
 366:coapLIB/coap.c ****     pkt->hdr.t = COAP_TYPE_ACK;
 2293              		.loc 1 366 18 is_stmt 0 view .LVU815
 2294 0146 A9F80030 		strh	r3, [r9]	@ movhi
 2295              	.LVL223:
 368:coapLIB/coap.c ****     pkt->hdr.code = rspcode;
 2296              		.loc 1 368 5 is_stmt 1 view .LVU816
 369:coapLIB/coap.c ****     pkt->hdr.id[0] = msgid_hi;
 2297              		.loc 1 369 5 view .LVU817
 369:coapLIB/coap.c ****     pkt->hdr.id[0] = msgid_hi;
 2298              		.loc 1 369 19 is_stmt 0 view .LVU818
 2299 014a 8423     		movs	r3, #132
 2300 014c 89F80330 		strb	r3, [r9, #3]
 370:coapLIB/coap.c ****     pkt->hdr.id[1] = msgid_lo;
 2301              		.loc 1 370 5 is_stmt 1 view .LVU819
 371:coapLIB/coap.c ****     pkt->numopts = 1;
 2302              		.loc 1 371 5 view .LVU820
 372:coapLIB/coap.c **** 
 2303              		.loc 1 372 18 is_stmt 0 view .LVU821
 2304 0150 0123     		movs	r3, #1
 370:coapLIB/coap.c ****     pkt->hdr.id[1] = msgid_lo;
 2305              		.loc 1 370 20 view .LVU822
 2306 0152 A9F80420 		strh	r2, [r9, #4]	@ movhi
 372:coapLIB/coap.c **** 
 2307              		.loc 1 372 5 is_stmt 1 view .LVU823
 372:coapLIB/coap.c **** 
 2308              		.loc 1 372 18 is_stmt 0 view .LVU824
 2309 0156 89F81030 		strb	r3, [r9, #16]
 375:coapLIB/coap.c ****         pkt->hdr.tkl = tok->len;
 2310              		.loc 1 375 5 is_stmt 1 view .LVU825
 376:coapLIB/coap.c ****         pkt->tok = *tok;
 2311              		.loc 1 376 9 view .LVU826
 376:coapLIB/coap.c ****         pkt->tok = *tok;
 2312              		.loc 1 376 22 is_stmt 0 view .LVU827
 2313 015a D8F80C30 		ldr	r3, [r8, #12]
 2314 015e 89F80230 		strb	r3, [r9, #2]
 377:coapLIB/coap.c ****     }
 2315              		.loc 1 377 9 is_stmt 1 view .LVU828
ARM GAS  C:\Users\clay0\AppData\Local\Temp\ccvKv5Cc.s 			page 59


 377:coapLIB/coap.c ****     }
 2316              		.loc 1 377 18 is_stmt 0 view .LVU829
 2317 0162 08F10808 		add	r8, r8, #8
 2318              	.LVL224:
 377:coapLIB/coap.c ****     }
 2319              		.loc 1 377 18 view .LVU830
 2320 0166 98E80300 		ldm	r8, {r0, r1}
 2321 016a 09F10803 		add	r3, r9, #8
 2322 016e 83E80300 		stm	r3, {r0, r1}
 381:coapLIB/coap.c ****     pkt->opts[0].buf.p = scratch->p;
 2323              		.loc 1 381 5 is_stmt 1 view .LVU831
 381:coapLIB/coap.c ****     pkt->opts[0].buf.p = scratch->p;
 2324              		.loc 1 381 22 is_stmt 0 view .LVU832
 2325 0172 0C23     		movs	r3, #12
 383:coapLIB/coap.c ****         return COAP_ERR_BUFFER_TOO_SMALL;
 2326              		.loc 1 383 8 view .LVU833
 2327 0174 0299     		ldr	r1, [sp, #8]
 381:coapLIB/coap.c ****     pkt->opts[0].buf.p = scratch->p;
 2328              		.loc 1 381 22 view .LVU834
 2329 0176 89F81430 		strb	r3, [r9, #20]
 382:coapLIB/coap.c ****     if (scratch->len < 2)
 2330              		.loc 1 382 5 is_stmt 1 view .LVU835
 382:coapLIB/coap.c ****     if (scratch->len < 2)
 2331              		.loc 1 382 33 is_stmt 0 view .LVU836
 2332 017a D1E90032 		ldrd	r3, r2, [r1]
 383:coapLIB/coap.c ****         return COAP_ERR_BUFFER_TOO_SMALL;
 2333              		.loc 1 383 8 view .LVU837
 2334 017e 012A     		cmp	r2, #1
 382:coapLIB/coap.c ****     if (scratch->len < 2)
 2335              		.loc 1 382 24 view .LVU838
 2336 0180 C9F81830 		str	r3, [r9, #24]
 383:coapLIB/coap.c ****         return COAP_ERR_BUFFER_TOO_SMALL;
 2337              		.loc 1 383 5 is_stmt 1 view .LVU839
 383:coapLIB/coap.c ****         return COAP_ERR_BUFFER_TOO_SMALL;
 2338              		.loc 1 383 8 is_stmt 0 view .LVU840
 2339 0184 1BD9     		bls	.L177
 385:coapLIB/coap.c ****     scratch->p[1] = ((uint16_t)content_type & 0x00FF);
 2340              		.loc 1 385 5 is_stmt 1 view .LVU841
 385:coapLIB/coap.c ****     scratch->p[1] = ((uint16_t)content_type & 0x00FF);
 2341              		.loc 1 385 19 is_stmt 0 view .LVU842
 2342 0186 FF22     		movs	r2, #255
 2343 0188 1A70     		strb	r2, [r3]
 386:coapLIB/coap.c ****     pkt->opts[0].buf.len = 2;
 2344              		.loc 1 386 5 is_stmt 1 view .LVU843
 386:coapLIB/coap.c ****     pkt->opts[0].buf.len = 2;
 2345              		.loc 1 386 12 is_stmt 0 view .LVU844
 2346 018a 0968     		ldr	r1, [r1]
 388:coapLIB/coap.c ****     pkt->payload.len = content_len;
 2347              		.loc 1 388 20 view .LVU845
 2348 018c 0020     		movs	r0, #0
 387:coapLIB/coap.c ****     pkt->payload.p = content;
 2349              		.loc 1 387 26 view .LVU846
 2350 018e 0223     		movs	r3, #2
 386:coapLIB/coap.c ****     pkt->opts[0].buf.len = 2;
 2351              		.loc 1 386 19 view .LVU847
 2352 0190 4A70     		strb	r2, [r1, #1]
 387:coapLIB/coap.c ****     pkt->payload.p = content;
ARM GAS  C:\Users\clay0\AppData\Local\Temp\ccvKv5Cc.s 			page 60


 2353              		.loc 1 387 5 is_stmt 1 view .LVU848
 389:coapLIB/coap.c ****     return 0;
 2354              		.loc 1 389 22 is_stmt 0 view .LVU849
 2355 0192 C9E93500 		strd	r0, r0, [r9, #212]
 387:coapLIB/coap.c ****     pkt->payload.p = content;
 2356              		.loc 1 387 26 view .LVU850
 2357 0196 C9F81C30 		str	r3, [r9, #28]
 388:coapLIB/coap.c ****     pkt->payload.len = content_len;
 2358              		.loc 1 388 5 is_stmt 1 view .LVU851
 390:coapLIB/coap.c **** }
 2359              		.loc 1 390 5 view .LVU852
 2360              	.LBE120:
 2361              	.LBE121:
 425:coapLIB/coap.c **** 
 426:coapLIB/coap.c ****     return 0;
 427:coapLIB/coap.c **** }
 2362              		.loc 1 427 1 is_stmt 0 view .LVU853
 2363 019a 07B0     		add	sp, sp, #28
 2364              	.LCFI15:
 2365              		.cfi_remember_state
 2366              		.cfi_def_cfa_offset 36
 2367              		@ sp needed
 2368 019c BDE8F08F 		pop	{r4, r5, r6, r7, r8, r9, r10, fp, pc}
 2369              	.LVL225:
 2370              	.L208:
 2371              	.LCFI16:
 2372              		.cfi_restore_state
 2373              		.loc 1 427 1 view .LVU854
 2374 01a0 059F     		ldr	r7, [sp, #20]
 2375 01a2 DDF80C80 		ldr	r8, [sp, #12]
 2376              	.LVL226:
 2377              	.L173:
 418:coapLIB/coap.c ****         }
 2378              		.loc 1 418 13 is_stmt 1 view .LVU855
 418:coapLIB/coap.c ****         }
 2379              		.loc 1 418 20 is_stmt 0 view .LVU856
 2380 01a6 98F80530 		ldrb	r3, [r8, #5]	@ zero_extendqisi2
 2381 01aa 0093     		str	r3, [sp]
 2382 01ac 98F80430 		ldrb	r3, [r8, #4]	@ zero_extendqisi2
 2383 01b0 0298     		ldr	r0, [sp, #8]
 2384 01b2 4A46     		mov	r2, r9
 2385 01b4 4146     		mov	r1, r8
 2386 01b6 B847     		blx	r7
 2387              	.LVL227:
 2388              		.loc 1 427 1 view .LVU857
 2389 01b8 07B0     		add	sp, sp, #28
 2390              	.LCFI17:
 2391              		.cfi_remember_state
 2392              		.cfi_def_cfa_offset 36
 2393              		@ sp needed
 2394 01ba BDE8F08F 		pop	{r4, r5, r6, r7, r8, r9, r10, fp, pc}
 2395              	.LVL228:
 2396              	.L177:
 2397              	.LCFI18:
 2398              		.cfi_restore_state
 426:coapLIB/coap.c **** }
 2399              		.loc 1 426 12 view .LVU858
ARM GAS  C:\Users\clay0\AppData\Local\Temp\ccvKv5Cc.s 			page 61


 2400 01be 0020     		movs	r0, #0
 2401              	.LVL229:
 2402              		.loc 1 427 1 view .LVU859
 2403 01c0 07B0     		add	sp, sp, #28
 2404              	.LCFI19:
 2405              		.cfi_def_cfa_offset 36
 2406              		@ sp needed
 2407 01c2 BDE8F08F 		pop	{r4, r5, r6, r7, r8, r9, r10, fp, pc}
 2408              	.LVL230:
 2409              	.L211:
 2410              		.loc 1 427 1 view .LVU860
 2411 01c6 00BF     		.align	2
 2412              	.L210:
 2413 01c8 00000000 		.word	endpoints
 2414              		.cfi_endproc
 2415              	.LFE13:
 2417              		.section	.text.coap_setup,"ax",%progbits
 2418              		.align	1
 2419              		.p2align 2,,3
 2420              		.global	coap_setup
 2421              		.syntax unified
 2422              		.thumb
 2423              		.thumb_func
 2425              	coap_setup:
 2426              	.LFB14:
 428:coapLIB/coap.c **** 
 429:coapLIB/coap.c **** void coap_setup(void)
 430:coapLIB/coap.c **** {
 2427              		.loc 1 430 1 is_stmt 1 view -0
 2428              		.cfi_startproc
 2429              		@ args = 0, pretend = 0, frame = 0
 2430              		@ frame_needed = 0, uses_anonymous_args = 0
 2431              		@ link register save eliminated.
 431:coapLIB/coap.c **** }
 2432              		.loc 1 431 1 view .LVU862
 2433 0000 7047     		bx	lr
 2434              		.cfi_endproc
 2435              	.LFE14:
 2437 0002 00BF     		.text
 2438              	.Letext0:
 2439              		.file 2 "d:\\gcc arm\\10 2021.10\\arm-none-eabi\\include\\machine\\_default_types.h"
 2440              		.file 3 "d:\\gcc arm\\10 2021.10\\lib\\gcc\\arm-none-eabi\\10.3.1\\include\\stddef.h"
 2441              		.file 4 "d:\\gcc arm\\10 2021.10\\arm-none-eabi\\include\\sys\\_stdint.h"
 2442              		.file 5 "coapLIB/coap.h"
 2443              		.file 6 "<built-in>"
 2444              		.file 7 "d:\\gcc arm\\10 2021.10\\arm-none-eabi\\include\\string.h"
ARM GAS  C:\Users\clay0\AppData\Local\Temp\ccvKv5Cc.s 			page 62


DEFINED SYMBOLS
                            *ABS*:00000000 coap.c
C:\Users\clay0\AppData\Local\Temp\ccvKv5Cc.s:20     .text.coap_parseHeader:00000000 $t
C:\Users\clay0\AppData\Local\Temp\ccvKv5Cc.s:27     .text.coap_parseHeader:00000000 coap_parseHeader
C:\Users\clay0\AppData\Local\Temp\ccvKv5Cc.s:113    .text.coap_parseToken:00000000 $t
C:\Users\clay0\AppData\Local\Temp\ccvKv5Cc.s:120    .text.coap_parseToken:00000000 coap_parseToken
C:\Users\clay0\AppData\Local\Temp\ccvKv5Cc.s:178    .text.coap_parseOption:00000000 $t
C:\Users\clay0\AppData\Local\Temp\ccvKv5Cc.s:185    .text.coap_parseOption:00000000 coap_parseOption
C:\Users\clay0\AppData\Local\Temp\ccvKv5Cc.s:447    .text.coap_parseOptionsAndPayload:00000000 $t
C:\Users\clay0\AppData\Local\Temp\ccvKv5Cc.s:454    .text.coap_parseOptionsAndPayload:00000000 coap_parseOptionsAndPayload
C:\Users\clay0\AppData\Local\Temp\ccvKv5Cc.s:819    .text.coap_parse:00000000 $t
C:\Users\clay0\AppData\Local\Temp\ccvKv5Cc.s:826    .text.coap_parse:00000000 coap_parse
C:\Users\clay0\AppData\Local\Temp\ccvKv5Cc.s:1022   .text.coap_findOptions:00000000 $t
C:\Users\clay0\AppData\Local\Temp\ccvKv5Cc.s:1029   .text.coap_findOptions:00000000 coap_findOptions
C:\Users\clay0\AppData\Local\Temp\ccvKv5Cc.s:1122   .text.coap_buffer_to_string:00000000 $t
C:\Users\clay0\AppData\Local\Temp\ccvKv5Cc.s:1129   .text.coap_buffer_to_string:00000000 coap_buffer_to_string
C:\Users\clay0\AppData\Local\Temp\ccvKv5Cc.s:1184   .text.coap_build:00000000 $t
C:\Users\clay0\AppData\Local\Temp\ccvKv5Cc.s:1191   .text.coap_build:00000000 coap_build
C:\Users\clay0\AppData\Local\Temp\ccvKv5Cc.s:1776   .text.coap_build:000001ac $d
C:\Users\clay0\AppData\Local\Temp\ccvKv5Cc.s:1781   .text.coap_option_nibble:00000000 $t
C:\Users\clay0\AppData\Local\Temp\ccvKv5Cc.s:1788   .text.coap_option_nibble:00000000 coap_option_nibble
C:\Users\clay0\AppData\Local\Temp\ccvKv5Cc.s:1838   .text.coap_option_nibble:00000020 $d
C:\Users\clay0\AppData\Local\Temp\ccvKv5Cc.s:1843   .text.coap_make_response:00000000 $t
C:\Users\clay0\AppData\Local\Temp\ccvKv5Cc.s:1850   .text.coap_make_response:00000000 coap_make_response
C:\Users\clay0\AppData\Local\Temp\ccvKv5Cc.s:1961   .text.coap_handle_req:00000000 $t
C:\Users\clay0\AppData\Local\Temp\ccvKv5Cc.s:1968   .text.coap_handle_req:00000000 coap_handle_req
C:\Users\clay0\AppData\Local\Temp\ccvKv5Cc.s:2413   .text.coap_handle_req:000001c8 $d
C:\Users\clay0\AppData\Local\Temp\ccvKv5Cc.s:2418   .text.coap_setup:00000000 $t
C:\Users\clay0\AppData\Local\Temp\ccvKv5Cc.s:2425   .text.coap_setup:00000000 coap_setup

UNDEFINED SYMBOLS
memcpy
strlen
memcmp
endpoints
