ARM GAS  C:\Users\clay0\AppData\Local\Temp\ccgGhwt3.s 			page 1


   1              		.cpu cortex-m4
   2              		.arch armv7e-m
   3              		.fpu fpv4-sp-d16
   4              		.eabi_attribute 27, 1
   5              		.eabi_attribute 28, 1
   6              		.eabi_attribute 20, 1
   7              		.eabi_attribute 21, 1
   8              		.eabi_attribute 23, 3
   9              		.eabi_attribute 24, 1
  10              		.eabi_attribute 25, 1
  11              		.eabi_attribute 26, 1
  12              		.eabi_attribute 30, 2
  13              		.eabi_attribute 34, 1
  14              		.eabi_attribute 18, 4
  15              		.file	"dhcp.c"
  16              		.text
  17              	.Ltext0:
  18              		.cfi_sections	.debug_frame
  19              		.section	.text.default_ip_assign,"ax",%progbits
  20              		.align	1
  21              		.p2align 2,,3
  22              		.global	default_ip_assign
  23              		.syntax unified
  24              		.thumb
  25              		.thumb_func
  27              	default_ip_assign:
  28              	.LFB0:
  29              		.file 1 "ioLIB/dhcp.c"
   1:ioLIB/dhcp.c  **** //*****************************************************************************
   2:ioLIB/dhcp.c  **** //
   3:ioLIB/dhcp.c  **** //! \file dhcp.c
   4:ioLIB/dhcp.c  **** //! \brief DHCP APIs implement file.
   5:ioLIB/dhcp.c  **** //! \details Processing DHCP protocol as DISCOVER, OFFER, REQUEST, ACK, NACK and DECLINE.
   6:ioLIB/dhcp.c  **** //! \version 1.1.1
   7:ioLIB/dhcp.c  **** //! \date 2019/10/08
   8:ioLIB/dhcp.c  **** //! \par  Revision history
   9:ioLIB/dhcp.c  **** //!       <2019/10/08> compare DHCP server ip address
  10:ioLIB/dhcp.c  **** //!       <2013/11/18> 1st Release
  11:ioLIB/dhcp.c  **** //!       <2012/12/20> V1.1.0
  12:ioLIB/dhcp.c  **** //!         1. Optimize code
  13:ioLIB/dhcp.c  **** //!         2. Add reg_dhcp_cbfunc()
  14:ioLIB/dhcp.c  **** //!         3. Add DHCP_stop() 
  15:ioLIB/dhcp.c  **** //!         4. Integrate check_DHCP_state() & DHCP_run() to DHCP_run()
  16:ioLIB/dhcp.c  **** //!         5. Don't care system endian
  17:ioLIB/dhcp.c  **** //!         6. Add comments
  18:ioLIB/dhcp.c  **** //!       <2012/12/26> V1.1.1
  19:ioLIB/dhcp.c  **** //!         1. Modify variable declaration: dhcp_tick_1s is declared volatile for code optimization
  20:ioLIB/dhcp.c  **** //! \author Eric Jung & MidnightCow
  21:ioLIB/dhcp.c  **** //! \copyright
  22:ioLIB/dhcp.c  **** //!
  23:ioLIB/dhcp.c  **** //! Copyright (c)  2013, WIZnet Co., LTD.
  24:ioLIB/dhcp.c  **** //! All rights reserved.
  25:ioLIB/dhcp.c  **** //! 
  26:ioLIB/dhcp.c  **** //! Redistribution and use in source and binary forms, with or without 
  27:ioLIB/dhcp.c  **** //! modification, are permitted provided that the following conditions 
  28:ioLIB/dhcp.c  **** //! are met: 
  29:ioLIB/dhcp.c  **** //! 
ARM GAS  C:\Users\clay0\AppData\Local\Temp\ccgGhwt3.s 			page 2


  30:ioLIB/dhcp.c  **** //!     * Redistributions of source code must retain the above copyright 
  31:ioLIB/dhcp.c  **** //! notice, this list of conditions and the following disclaimer. 
  32:ioLIB/dhcp.c  **** //!     * Redistributions in binary form must reproduce the above copyright
  33:ioLIB/dhcp.c  **** //! notice, this list of conditions and the following disclaimer in the
  34:ioLIB/dhcp.c  **** //! documentation and/or other materials provided with the distribution. 
  35:ioLIB/dhcp.c  **** //!     * Neither the name of the <ORGANIZATION> nor the names of its 
  36:ioLIB/dhcp.c  **** //! contributors may be used to endorse or promote products derived 
  37:ioLIB/dhcp.c  **** //! from this software without specific prior written permission. 
  38:ioLIB/dhcp.c  **** //! 
  39:ioLIB/dhcp.c  **** //! THIS SOFTWARE IS PROVIDED BY THE COPYRIGHT HOLDERS AND CONTRIBUTORS "AS IS"
  40:ioLIB/dhcp.c  **** //! AND ANY EXPRESS OR IMPLIED WARRANTIES, INCLUDING, BUT NOT LIMITED TO, THE 
  41:ioLIB/dhcp.c  **** //! IMPLIED WARRANTIES OF MERCHANTABILITY AND FITNESS FOR A PARTICULAR PURPOSE
  42:ioLIB/dhcp.c  **** //! ARE DISCLAIMED. IN NO EVENT SHALL THE COPYRIGHT OWNER OR CONTRIBUTORS BE 
  43:ioLIB/dhcp.c  **** //! LIABLE FOR ANY DIRECT, INDIRECT, INCIDENTAL, SPECIAL, EXEMPLARY, OR 
  44:ioLIB/dhcp.c  **** //! CONSEQUENTIAL DAMAGES (INCLUDING, BUT NOT LIMITED TO, PROCUREMENT OF 
  45:ioLIB/dhcp.c  **** //! SUBSTITUTE GOODS OR SERVICES; LOSS OF USE, DATA, OR PROFITS; OR BUSINESS
  46:ioLIB/dhcp.c  **** //! INTERRUPTION) HOWEVER CAUSED AND ON ANY THEORY OF LIABILITY, WHETHER IN 
  47:ioLIB/dhcp.c  **** //! CONTRACT, STRICT LIABILITY, OR TORT (INCLUDING NEGLIGENCE OR OTHERWISE) 
  48:ioLIB/dhcp.c  **** //! ARISING IN ANY WAY OUT OF THE USE OF THIS SOFTWARE, EVEN IF ADVISED OF 
  49:ioLIB/dhcp.c  **** //! THE POSSIBILITY OF SUCH DAMAGE.
  50:ioLIB/dhcp.c  **** //
  51:ioLIB/dhcp.c  **** //*****************************************************************************
  52:ioLIB/dhcp.c  **** 
  53:ioLIB/dhcp.c  **** #include "socket.h"
  54:ioLIB/dhcp.c  **** #include "dhcp.h"
  55:ioLIB/dhcp.c  **** 
  56:ioLIB/dhcp.c  **** /* If you want to display debug & processing message, Define _DHCP_DEBUG_ in dhcp.h */
  57:ioLIB/dhcp.c  **** 
  58:ioLIB/dhcp.c  **** #ifdef _DHCP_DEBUG_
  59:ioLIB/dhcp.c  ****    #include <stdio.h>
  60:ioLIB/dhcp.c  **** #endif   
  61:ioLIB/dhcp.c  **** 
  62:ioLIB/dhcp.c  **** /* DHCP state machine. */
  63:ioLIB/dhcp.c  **** #define STATE_DHCP_INIT          0        ///< Initialize
  64:ioLIB/dhcp.c  **** #define STATE_DHCP_DISCOVER      1        ///< send DISCOVER and wait OFFER
  65:ioLIB/dhcp.c  **** #define STATE_DHCP_REQUEST       2        ///< send REQEUST and wait ACK or NACK
  66:ioLIB/dhcp.c  **** #define STATE_DHCP_LEASED        3        ///< ReceiveD ACK and IP leased
  67:ioLIB/dhcp.c  **** #define STATE_DHCP_REREQUEST     4        ///< send REQUEST for maintaining leased IP
  68:ioLIB/dhcp.c  **** #define STATE_DHCP_RELEASE       5        ///< No use
  69:ioLIB/dhcp.c  **** #define STATE_DHCP_STOP          6        ///< Stop processing DHCP
  70:ioLIB/dhcp.c  **** 
  71:ioLIB/dhcp.c  **** #define DHCP_FLAGSBROADCAST      0x8000   ///< The broadcast value of flags in @ref RIP_MSG 
  72:ioLIB/dhcp.c  **** #define DHCP_FLAGSUNICAST        0x0000   ///< The unicast   value of flags in @ref RIP_MSG
  73:ioLIB/dhcp.c  **** 
  74:ioLIB/dhcp.c  **** /* DHCP message OP code */
  75:ioLIB/dhcp.c  **** #define DHCP_BOOTREQUEST         1        ///< Request Message used in op of @ref RIP_MSG
  76:ioLIB/dhcp.c  **** #define DHCP_BOOTREPLY           2        ///< Reply Message used i op of @ref RIP_MSG
  77:ioLIB/dhcp.c  **** 
  78:ioLIB/dhcp.c  **** /* DHCP message type */
  79:ioLIB/dhcp.c  **** #define DHCP_DISCOVER            1        ///< DISCOVER message in OPT of @ref RIP_MSG
  80:ioLIB/dhcp.c  **** #define DHCP_OFFER               2        ///< OFFER message in OPT of @ref RIP_MSG
  81:ioLIB/dhcp.c  **** #define DHCP_REQUEST             3        ///< REQUEST message in OPT of @ref RIP_MSG
  82:ioLIB/dhcp.c  **** #define DHCP_DECLINE             4        ///< DECLINE message in OPT of @ref RIP_MSG
  83:ioLIB/dhcp.c  **** #define DHCP_ACK                 5        ///< ACK message in OPT of @ref RIP_MSG
  84:ioLIB/dhcp.c  **** #define DHCP_NAK                 6        ///< NACK message in OPT of @ref RIP_MSG
  85:ioLIB/dhcp.c  **** #define DHCP_RELEASE             7        ///< RELEASE message in OPT of @ref RIP_MSG. No use
  86:ioLIB/dhcp.c  **** #define DHCP_INFORM              8        ///< INFORM message in OPT of @ref RIP_MSG. No use
ARM GAS  C:\Users\clay0\AppData\Local\Temp\ccgGhwt3.s 			page 3


  87:ioLIB/dhcp.c  **** 
  88:ioLIB/dhcp.c  **** #define DHCP_HTYPE10MB           1        ///< Used in type of @ref RIP_MSG
  89:ioLIB/dhcp.c  **** #define DHCP_HTYPE100MB          2        ///< Used in type of @ref RIP_MSG
  90:ioLIB/dhcp.c  **** 
  91:ioLIB/dhcp.c  **** #define DHCP_HLENETHERNET        6        ///< Used in hlen of @ref RIP_MSG
  92:ioLIB/dhcp.c  **** #define DHCP_HOPS                0        ///< Used in hops of @ref RIP_MSG
  93:ioLIB/dhcp.c  **** #define DHCP_SECS                0        ///< Used in secs of @ref RIP_MSG
  94:ioLIB/dhcp.c  **** 
  95:ioLIB/dhcp.c  **** #define INFINITE_LEASETIME       0xffffffff	///< Infinite lease time
  96:ioLIB/dhcp.c  **** 
  97:ioLIB/dhcp.c  **** #define OPT_SIZE                 312               /// Max OPT size of @ref RIP_MSG
  98:ioLIB/dhcp.c  **** #define RIP_MSG_SIZE             (236+OPT_SIZE)    /// Max size of @ref RIP_MSG
  99:ioLIB/dhcp.c  **** 
 100:ioLIB/dhcp.c  **** /* 
 101:ioLIB/dhcp.c  ****  * @brief DHCP option and value (cf. RFC1533)
 102:ioLIB/dhcp.c  ****  */
 103:ioLIB/dhcp.c  **** enum
 104:ioLIB/dhcp.c  **** {
 105:ioLIB/dhcp.c  ****    padOption               = 0,
 106:ioLIB/dhcp.c  ****    subnetMask              = 1,
 107:ioLIB/dhcp.c  ****    timerOffset             = 2,
 108:ioLIB/dhcp.c  ****    routersOnSubnet         = 3,
 109:ioLIB/dhcp.c  ****    timeServer              = 4,
 110:ioLIB/dhcp.c  ****    nameServer              = 5,
 111:ioLIB/dhcp.c  ****    dns                     = 6,
 112:ioLIB/dhcp.c  ****    logServer               = 7,
 113:ioLIB/dhcp.c  ****    cookieServer            = 8,
 114:ioLIB/dhcp.c  ****    lprServer               = 9,
 115:ioLIB/dhcp.c  ****    impressServer           = 10,
 116:ioLIB/dhcp.c  ****    resourceLocationServer	= 11,
 117:ioLIB/dhcp.c  ****    hostName                = 12,
 118:ioLIB/dhcp.c  ****    bootFileSize            = 13,
 119:ioLIB/dhcp.c  ****    meritDumpFile           = 14,
 120:ioLIB/dhcp.c  ****    domainName              = 15,
 121:ioLIB/dhcp.c  ****    swapServer              = 16,
 122:ioLIB/dhcp.c  ****    rootPath                = 17,
 123:ioLIB/dhcp.c  ****    extentionsPath          = 18,
 124:ioLIB/dhcp.c  ****    IPforwarding            = 19,
 125:ioLIB/dhcp.c  ****    nonLocalSourceRouting   = 20,
 126:ioLIB/dhcp.c  ****    policyFilter            = 21,
 127:ioLIB/dhcp.c  ****    maxDgramReasmSize       = 22,
 128:ioLIB/dhcp.c  ****    defaultIPTTL            = 23,
 129:ioLIB/dhcp.c  ****    pathMTUagingTimeout     = 24,
 130:ioLIB/dhcp.c  ****    pathMTUplateauTable     = 25,
 131:ioLIB/dhcp.c  ****    ifMTU                   = 26,
 132:ioLIB/dhcp.c  ****    allSubnetsLocal         = 27,
 133:ioLIB/dhcp.c  ****    broadcastAddr           = 28,
 134:ioLIB/dhcp.c  ****    performMaskDiscovery    = 29,
 135:ioLIB/dhcp.c  ****    maskSupplier            = 30,
 136:ioLIB/dhcp.c  ****    performRouterDiscovery  = 31,
 137:ioLIB/dhcp.c  ****    routerSolicitationAddr  = 32,
 138:ioLIB/dhcp.c  ****    staticRoute             = 33,
 139:ioLIB/dhcp.c  ****    trailerEncapsulation    = 34,
 140:ioLIB/dhcp.c  ****    arpCacheTimeout         = 35,
 141:ioLIB/dhcp.c  ****    ethernetEncapsulation   = 36,
 142:ioLIB/dhcp.c  ****    tcpDefaultTTL           = 37,
 143:ioLIB/dhcp.c  ****    tcpKeepaliveInterval    = 38,
ARM GAS  C:\Users\clay0\AppData\Local\Temp\ccgGhwt3.s 			page 4


 144:ioLIB/dhcp.c  ****    tcpKeepaliveGarbage     = 39,
 145:ioLIB/dhcp.c  ****    nisDomainName           = 40,
 146:ioLIB/dhcp.c  ****    nisServers              = 41,
 147:ioLIB/dhcp.c  ****    ntpServers              = 42,
 148:ioLIB/dhcp.c  ****    vendorSpecificInfo      = 43,
 149:ioLIB/dhcp.c  ****    netBIOSnameServer       = 44,
 150:ioLIB/dhcp.c  ****    netBIOSdgramDistServer	= 45,
 151:ioLIB/dhcp.c  ****    netBIOSnodeType         = 46,
 152:ioLIB/dhcp.c  ****    netBIOSscope            = 47,
 153:ioLIB/dhcp.c  ****    xFontServer             = 48,
 154:ioLIB/dhcp.c  ****    xDisplayManager         = 49,
 155:ioLIB/dhcp.c  ****    dhcpRequestedIPaddr     = 50,
 156:ioLIB/dhcp.c  ****    dhcpIPaddrLeaseTime     = 51,
 157:ioLIB/dhcp.c  ****    dhcpOptionOverload      = 52,
 158:ioLIB/dhcp.c  ****    dhcpMessageType         = 53,
 159:ioLIB/dhcp.c  ****    dhcpServerIdentifier    = 54,
 160:ioLIB/dhcp.c  ****    dhcpParamRequest        = 55,
 161:ioLIB/dhcp.c  ****    dhcpMsg                 = 56,
 162:ioLIB/dhcp.c  ****    dhcpMaxMsgSize          = 57,
 163:ioLIB/dhcp.c  ****    dhcpT1value             = 58,
 164:ioLIB/dhcp.c  ****    dhcpT2value             = 59,
 165:ioLIB/dhcp.c  ****    dhcpClassIdentifier     = 60,
 166:ioLIB/dhcp.c  ****    dhcpClientIdentifier    = 61,
 167:ioLIB/dhcp.c  ****    endOption               = 255
 168:ioLIB/dhcp.c  **** };
 169:ioLIB/dhcp.c  **** 
 170:ioLIB/dhcp.c  **** /*
 171:ioLIB/dhcp.c  ****  * @brief DHCP message format
 172:ioLIB/dhcp.c  ****  */ 
 173:ioLIB/dhcp.c  **** typedef struct {
 174:ioLIB/dhcp.c  **** 	uint8_t  op;            ///< @ref DHCP_BOOTREQUEST or @ref DHCP_BOOTREPLY
 175:ioLIB/dhcp.c  **** 	uint8_t  htype;         ///< @ref DHCP_HTYPE10MB or @ref DHCP_HTYPE100MB
 176:ioLIB/dhcp.c  **** 	uint8_t  hlen;          ///< @ref DHCP_HLENETHERNET
 177:ioLIB/dhcp.c  **** 	uint8_t  hops;          ///< @ref DHCP_HOPS
 178:ioLIB/dhcp.c  **** 	uint32_t xid;           ///< @ref DHCP_XID  This increase one every DHCP transaction.
 179:ioLIB/dhcp.c  **** 	uint16_t secs;          ///< @ref DHCP_SECS
 180:ioLIB/dhcp.c  **** 	uint16_t flags;         ///< @ref DHCP_FLAGSBROADCAST or @ref DHCP_FLAGSUNICAST
 181:ioLIB/dhcp.c  **** 	uint8_t  ciaddr[4];     ///< @ref Request IP to DHCP sever
 182:ioLIB/dhcp.c  **** 	uint8_t  yiaddr[4];     ///< @ref Offered IP from DHCP server
 183:ioLIB/dhcp.c  **** 	uint8_t  siaddr[4];     ///< No use 
 184:ioLIB/dhcp.c  **** 	uint8_t  giaddr[4];     ///< No use
 185:ioLIB/dhcp.c  **** 	uint8_t  chaddr[16];    ///< DHCP client 6bytes MAC address. Others is filled to zero
 186:ioLIB/dhcp.c  **** 	uint8_t  sname[64];     ///< No use
 187:ioLIB/dhcp.c  **** 	uint8_t  file[128];     ///< No use
 188:ioLIB/dhcp.c  **** 	uint8_t  OPT[OPT_SIZE]; ///< Option
 189:ioLIB/dhcp.c  **** } RIP_MSG;
 190:ioLIB/dhcp.c  **** 
 191:ioLIB/dhcp.c  **** 
 192:ioLIB/dhcp.c  **** 
 193:ioLIB/dhcp.c  **** uint8_t DHCP_SOCKET;                      // Socket number for DHCP
 194:ioLIB/dhcp.c  **** 
 195:ioLIB/dhcp.c  **** uint8_t DHCP_SIP[4];                      // DHCP Server IP address
 196:ioLIB/dhcp.c  **** uint8_t DHCP_REAL_SIP[4];                 // For extract my DHCP server in a few DHCP server
 197:ioLIB/dhcp.c  **** 
 198:ioLIB/dhcp.c  **** // Network information from DHCP Server
 199:ioLIB/dhcp.c  **** uint8_t OLD_allocated_ip[4]   = {0, };    // Previous IP address
 200:ioLIB/dhcp.c  **** uint8_t DHCP_allocated_ip[4]  = {0, };    // IP address from DHCP
ARM GAS  C:\Users\clay0\AppData\Local\Temp\ccgGhwt3.s 			page 5


 201:ioLIB/dhcp.c  **** uint8_t DHCP_allocated_gw[4]  = {0, };    // Gateway address from DHCP
 202:ioLIB/dhcp.c  **** uint8_t DHCP_allocated_sn[4]  = {0, };    // Subnet mask from DHCP
 203:ioLIB/dhcp.c  **** uint8_t DHCP_allocated_dns[4] = {0, };    // DNS address from DHCP
 204:ioLIB/dhcp.c  **** 
 205:ioLIB/dhcp.c  **** 
 206:ioLIB/dhcp.c  **** int8_t   dhcp_state        = STATE_DHCP_INIT;   // DHCP state
 207:ioLIB/dhcp.c  **** int8_t   dhcp_retry_count  = 0;                 
 208:ioLIB/dhcp.c  **** 
 209:ioLIB/dhcp.c  **** uint32_t dhcp_lease_time   			= INFINITE_LEASETIME;
 210:ioLIB/dhcp.c  **** volatile uint32_t dhcp_tick_1s      = 0;                 // unit 1 second
 211:ioLIB/dhcp.c  **** uint32_t dhcp_tick_next    			= DHCP_WAIT_TIME ;
 212:ioLIB/dhcp.c  **** 
 213:ioLIB/dhcp.c  **** uint32_t DHCP_XID;      // Any number
 214:ioLIB/dhcp.c  **** 
 215:ioLIB/dhcp.c  **** RIP_MSG* pDHCPMSG;      // Buffer pointer for DHCP processing
 216:ioLIB/dhcp.c  **** 
 217:ioLIB/dhcp.c  **** uint8_t HOST_NAME[] = DCHP_HOST_NAME;  
 218:ioLIB/dhcp.c  **** 
 219:ioLIB/dhcp.c  **** uint8_t DHCP_CHADDR[6]; // DHCP Client MAC address.
 220:ioLIB/dhcp.c  **** 
 221:ioLIB/dhcp.c  **** /* The default callback function */
 222:ioLIB/dhcp.c  **** void default_ip_assign(void);
 223:ioLIB/dhcp.c  **** void default_ip_update(void);
 224:ioLIB/dhcp.c  **** void default_ip_conflict(void);
 225:ioLIB/dhcp.c  **** 
 226:ioLIB/dhcp.c  **** /* Callback handler */
 227:ioLIB/dhcp.c  **** void (*dhcp_ip_assign)(void)   = default_ip_assign;     /* handler to be called when the IP address
 228:ioLIB/dhcp.c  **** void (*dhcp_ip_update)(void)   = default_ip_update;     /* handler to be called when the IP address
 229:ioLIB/dhcp.c  **** void (*dhcp_ip_conflict)(void) = default_ip_conflict;   /* handler to be called when the IP address
 230:ioLIB/dhcp.c  **** 
 231:ioLIB/dhcp.c  **** void reg_dhcp_cbfunc(void(*ip_assign)(void), void(*ip_update)(void), void(*ip_conflict)(void));
 232:ioLIB/dhcp.c  **** 
 233:ioLIB/dhcp.c  **** char NibbleToHex(uint8_t nibble);
 234:ioLIB/dhcp.c  ****     
 235:ioLIB/dhcp.c  **** /* send DISCOVER message to DHCP server */
 236:ioLIB/dhcp.c  **** void     send_DHCP_DISCOVER(void);
 237:ioLIB/dhcp.c  **** 
 238:ioLIB/dhcp.c  **** /* send REQEUST message to DHCP server */
 239:ioLIB/dhcp.c  **** void     send_DHCP_REQUEST(void);
 240:ioLIB/dhcp.c  **** 
 241:ioLIB/dhcp.c  **** /* send DECLINE message to DHCP server */
 242:ioLIB/dhcp.c  **** void     send_DHCP_DECLINE(void);
 243:ioLIB/dhcp.c  **** 
 244:ioLIB/dhcp.c  **** /* IP conflict check by sending ARP-request to leased IP and wait ARP-response. */
 245:ioLIB/dhcp.c  **** int8_t   check_DHCP_leasedIP(void);
 246:ioLIB/dhcp.c  **** 
 247:ioLIB/dhcp.c  **** /* check the timeout in DHCP process */
 248:ioLIB/dhcp.c  **** uint8_t  check_DHCP_timeout(void);
 249:ioLIB/dhcp.c  **** 
 250:ioLIB/dhcp.c  **** /* Initialize to timeout process.  */
 251:ioLIB/dhcp.c  **** void     reset_DHCP_timeout(void);
 252:ioLIB/dhcp.c  **** 
 253:ioLIB/dhcp.c  **** /* Parse message as OFFER and ACK and NACK from DHCP server.*/
 254:ioLIB/dhcp.c  **** int8_t   parseDHCPCMSG(void);
 255:ioLIB/dhcp.c  **** 
 256:ioLIB/dhcp.c  **** /* The default handler of ip assign first */
 257:ioLIB/dhcp.c  **** void default_ip_assign(void)
ARM GAS  C:\Users\clay0\AppData\Local\Temp\ccgGhwt3.s 			page 6


 258:ioLIB/dhcp.c  **** {
  30              		.loc 1 258 1 view -0
  31              		.cfi_startproc
  32              		@ args = 0, pretend = 0, frame = 0
  33              		@ frame_needed = 0, uses_anonymous_args = 0
 259:ioLIB/dhcp.c  ****    setSIPR(DHCP_allocated_ip);
  34              		.loc 1 259 4 view .LVU1
 258:ioLIB/dhcp.c  ****    setSIPR(DHCP_allocated_ip);
  35              		.loc 1 258 1 is_stmt 0 view .LVU2
  36 0000 08B5     		push	{r3, lr}
  37              	.LCFI0:
  38              		.cfi_def_cfa_offset 8
  39              		.cfi_offset 3, -8
  40              		.cfi_offset 14, -4
  41              		.loc 1 259 4 view .LVU3
  42 0002 0A49     		ldr	r1, .L4
  43 0004 0422     		movs	r2, #4
  44 0006 4FF47060 		mov	r0, #3840
  45 000a FFF7FEFF 		bl	WIZCHIP_WRITE_BUF
  46              	.LVL0:
 260:ioLIB/dhcp.c  ****    setSUBR(DHCP_allocated_sn);
  47              		.loc 1 260 4 is_stmt 1 view .LVU4
  48 000e 0849     		ldr	r1, .L4+4
  49 0010 0422     		movs	r2, #4
  50 0012 4FF4A060 		mov	r0, #1280
  51 0016 FFF7FEFF 		bl	WIZCHIP_WRITE_BUF
  52              	.LVL1:
 261:ioLIB/dhcp.c  ****    setGAR (DHCP_allocated_gw);
  53              		.loc 1 261 4 view .LVU5
 262:ioLIB/dhcp.c  **** }
  54              		.loc 1 262 1 is_stmt 0 view .LVU6
  55 001a BDE80840 		pop	{r3, lr}
  56              	.LCFI1:
  57              		.cfi_restore 14
  58              		.cfi_restore 3
  59              		.cfi_def_cfa_offset 0
 261:ioLIB/dhcp.c  ****    setGAR (DHCP_allocated_gw);
  60              		.loc 1 261 4 view .LVU7
  61 001e 0549     		ldr	r1, .L4+8
  62 0020 0422     		movs	r2, #4
  63 0022 4FF48070 		mov	r0, #256
  64 0026 FFF7FEBF 		b	WIZCHIP_WRITE_BUF
  65              	.LVL2:
  66              	.L5:
  67 002a 00BF     		.align	2
  68              	.L4:
  69 002c 00000000 		.word	.LANCHOR0
  70 0030 00000000 		.word	.LANCHOR1
  71 0034 00000000 		.word	.LANCHOR2
  72              		.cfi_endproc
  73              	.LFE0:
  75              		.section	.text.default_ip_conflict,"ax",%progbits
  76              		.align	1
  77              		.p2align 2,,3
  78              		.global	default_ip_conflict
  79              		.syntax unified
  80              		.thumb
ARM GAS  C:\Users\clay0\AppData\Local\Temp\ccgGhwt3.s 			page 7


  81              		.thumb_func
  83              	default_ip_conflict:
  84              	.LFB2:
 263:ioLIB/dhcp.c  **** 
 264:ioLIB/dhcp.c  **** /* The default handler of ip changed */
 265:ioLIB/dhcp.c  **** void default_ip_update(void)
 266:ioLIB/dhcp.c  **** {
 267:ioLIB/dhcp.c  **** 	/* WIZchip Software Reset */
 268:ioLIB/dhcp.c  ****    setMR(MR_RST);
 269:ioLIB/dhcp.c  ****    getMR(); // for delay
 270:ioLIB/dhcp.c  ****    default_ip_assign();
 271:ioLIB/dhcp.c  ****    setSHAR(DHCP_CHADDR);
 272:ioLIB/dhcp.c  **** }
 273:ioLIB/dhcp.c  **** 
 274:ioLIB/dhcp.c  **** /* The default handler of ip changed */
 275:ioLIB/dhcp.c  **** void default_ip_conflict(void)
 276:ioLIB/dhcp.c  **** {
  85              		.loc 1 276 1 is_stmt 1 view -0
  86              		.cfi_startproc
  87              		@ args = 0, pretend = 0, frame = 0
  88              		@ frame_needed = 0, uses_anonymous_args = 0
 277:ioLIB/dhcp.c  **** 	// WIZchip Software Reset
 278:ioLIB/dhcp.c  **** 	setMR(MR_RST);
  89              		.loc 1 278 2 view .LVU9
 276:ioLIB/dhcp.c  **** 	// WIZchip Software Reset
  90              		.loc 1 276 1 is_stmt 0 view .LVU10
  91 0000 08B5     		push	{r3, lr}
  92              	.LCFI2:
  93              		.cfi_def_cfa_offset 8
  94              		.cfi_offset 3, -8
  95              		.cfi_offset 14, -4
  96              		.loc 1 278 2 view .LVU11
  97 0002 8021     		movs	r1, #128
  98 0004 0020     		movs	r0, #0
  99 0006 FFF7FEFF 		bl	WIZCHIP_WRITE
 100              	.LVL3:
 279:ioLIB/dhcp.c  **** 	getMR(); // for delay
 101              		.loc 1 279 2 is_stmt 1 view .LVU12
 102 000a 0020     		movs	r0, #0
 103 000c FFF7FEFF 		bl	WIZCHIP_READ
 104              	.LVL4:
 280:ioLIB/dhcp.c  **** 	setSHAR(DHCP_CHADDR);
 105              		.loc 1 280 2 view .LVU13
 281:ioLIB/dhcp.c  **** }
 106              		.loc 1 281 1 is_stmt 0 view .LVU14
 107 0010 BDE80840 		pop	{r3, lr}
 108              	.LCFI3:
 109              		.cfi_restore 14
 110              		.cfi_restore 3
 111              		.cfi_def_cfa_offset 0
 280:ioLIB/dhcp.c  **** 	setSHAR(DHCP_CHADDR);
 112              		.loc 1 280 2 view .LVU15
 113 0014 0249     		ldr	r1, .L8
 114 0016 0622     		movs	r2, #6
 115 0018 4FF41060 		mov	r0, #2304
 116 001c FFF7FEBF 		b	WIZCHIP_WRITE_BUF
 117              	.LVL5:
ARM GAS  C:\Users\clay0\AppData\Local\Temp\ccgGhwt3.s 			page 8


 118              	.L9:
 119              		.align	2
 120              	.L8:
 121 0020 00000000 		.word	.LANCHOR3
 122              		.cfi_endproc
 123              	.LFE2:
 125              		.section	.text.default_ip_update,"ax",%progbits
 126              		.align	1
 127              		.p2align 2,,3
 128              		.global	default_ip_update
 129              		.syntax unified
 130              		.thumb
 131              		.thumb_func
 133              	default_ip_update:
 134              	.LFB1:
 266:ioLIB/dhcp.c  **** 	/* WIZchip Software Reset */
 135              		.loc 1 266 1 is_stmt 1 view -0
 136              		.cfi_startproc
 137              		@ args = 0, pretend = 0, frame = 0
 138              		@ frame_needed = 0, uses_anonymous_args = 0
 268:ioLIB/dhcp.c  ****    getMR(); // for delay
 139              		.loc 1 268 4 view .LVU17
 266:ioLIB/dhcp.c  **** 	/* WIZchip Software Reset */
 140              		.loc 1 266 1 is_stmt 0 view .LVU18
 141 0000 08B5     		push	{r3, lr}
 142              	.LCFI4:
 143              		.cfi_def_cfa_offset 8
 144              		.cfi_offset 3, -8
 145              		.cfi_offset 14, -4
 268:ioLIB/dhcp.c  ****    getMR(); // for delay
 146              		.loc 1 268 4 view .LVU19
 147 0002 8021     		movs	r1, #128
 148 0004 0020     		movs	r0, #0
 149 0006 FFF7FEFF 		bl	WIZCHIP_WRITE
 150              	.LVL6:
 269:ioLIB/dhcp.c  ****    default_ip_assign();
 151              		.loc 1 269 4 is_stmt 1 view .LVU20
 152 000a 0020     		movs	r0, #0
 153 000c FFF7FEFF 		bl	WIZCHIP_READ
 154              	.LVL7:
 270:ioLIB/dhcp.c  ****    setSHAR(DHCP_CHADDR);
 155              		.loc 1 270 4 view .LVU21
 156              	.LBB46:
 157              	.LBI46:
 257:ioLIB/dhcp.c  **** {
 158              		.loc 1 257 6 view .LVU22
 159              	.LBB47:
 259:ioLIB/dhcp.c  ****    setSUBR(DHCP_allocated_sn);
 160              		.loc 1 259 4 view .LVU23
 161 0010 0C49     		ldr	r1, .L12
 162 0012 0422     		movs	r2, #4
 163 0014 4FF47060 		mov	r0, #3840
 164 0018 FFF7FEFF 		bl	WIZCHIP_WRITE_BUF
 165              	.LVL8:
 260:ioLIB/dhcp.c  ****    setGAR (DHCP_allocated_gw);
 166              		.loc 1 260 4 view .LVU24
 167 001c 0A49     		ldr	r1, .L12+4
ARM GAS  C:\Users\clay0\AppData\Local\Temp\ccgGhwt3.s 			page 9


 168 001e 0422     		movs	r2, #4
 169 0020 4FF4A060 		mov	r0, #1280
 170 0024 FFF7FEFF 		bl	WIZCHIP_WRITE_BUF
 171              	.LVL9:
 261:ioLIB/dhcp.c  **** }
 172              		.loc 1 261 4 view .LVU25
 173 0028 0849     		ldr	r1, .L12+8
 174 002a 0422     		movs	r2, #4
 175 002c 4FF48070 		mov	r0, #256
 176 0030 FFF7FEFF 		bl	WIZCHIP_WRITE_BUF
 177              	.LVL10:
 178              	.LBE47:
 179              	.LBE46:
 271:ioLIB/dhcp.c  **** }
 180              		.loc 1 271 4 view .LVU26
 272:ioLIB/dhcp.c  **** 
 181              		.loc 1 272 1 is_stmt 0 view .LVU27
 182 0034 BDE80840 		pop	{r3, lr}
 183              	.LCFI5:
 184              		.cfi_restore 14
 185              		.cfi_restore 3
 186              		.cfi_def_cfa_offset 0
 271:ioLIB/dhcp.c  **** }
 187              		.loc 1 271 4 view .LVU28
 188 0038 0549     		ldr	r1, .L12+12
 189 003a 0622     		movs	r2, #6
 190 003c 4FF41060 		mov	r0, #2304
 191 0040 FFF7FEBF 		b	WIZCHIP_WRITE_BUF
 192              	.LVL11:
 193              	.L13:
 194              		.align	2
 195              	.L12:
 196 0044 00000000 		.word	.LANCHOR0
 197 0048 00000000 		.word	.LANCHOR1
 198 004c 00000000 		.word	.LANCHOR2
 199 0050 00000000 		.word	.LANCHOR3
 200              		.cfi_endproc
 201              	.LFE1:
 203              		.section	.text.reg_dhcp_cbfunc,"ax",%progbits
 204              		.align	1
 205              		.p2align 2,,3
 206              		.global	reg_dhcp_cbfunc
 207              		.syntax unified
 208              		.thumb
 209              		.thumb_func
 211              	reg_dhcp_cbfunc:
 212              	.LVL12:
 213              	.LFB3:
 282:ioLIB/dhcp.c  **** 
 283:ioLIB/dhcp.c  **** /* register the call back func. */
 284:ioLIB/dhcp.c  **** void reg_dhcp_cbfunc(void(*ip_assign)(void), void(*ip_update)(void), void(*ip_conflict)(void))
 285:ioLIB/dhcp.c  **** {
 214              		.loc 1 285 1 is_stmt 1 view -0
 215              		.cfi_startproc
 216              		@ args = 0, pretend = 0, frame = 0
 217              		@ frame_needed = 0, uses_anonymous_args = 0
 218              		@ link register save eliminated.
ARM GAS  C:\Users\clay0\AppData\Local\Temp\ccgGhwt3.s 			page 10


 286:ioLIB/dhcp.c  ****    dhcp_ip_assign   = default_ip_assign;
 219              		.loc 1 286 4 view .LVU30
 220              		.loc 1 286 21 is_stmt 0 view .LVU31
 221 0000 0A4B     		ldr	r3, .L25
 287:ioLIB/dhcp.c  ****    dhcp_ip_update   = default_ip_update;
 222              		.loc 1 287 4 is_stmt 1 view .LVU32
 285:ioLIB/dhcp.c  ****    dhcp_ip_assign   = default_ip_assign;
 223              		.loc 1 285 1 is_stmt 0 view .LVU33
 224 0002 10B4     		push	{r4}
 225              	.LCFI6:
 226              		.cfi_def_cfa_offset 4
 227              		.cfi_offset 4, -4
 286:ioLIB/dhcp.c  ****    dhcp_ip_assign   = default_ip_assign;
 228              		.loc 1 286 21 view .LVU34
 229 0004 0A4C     		ldr	r4, .L25+4
 288:ioLIB/dhcp.c  ****    dhcp_ip_conflict = default_ip_conflict;
 289:ioLIB/dhcp.c  ****    if(ip_assign)   dhcp_ip_assign = ip_assign;
 230              		.loc 1 289 35 view .LVU35
 231 0006 0028     		cmp	r0, #0
 232 0008 18BF     		it	ne
 233 000a 0346     		movne	r3, r0
 234 000c 2360     		str	r3, [r4]
 287:ioLIB/dhcp.c  ****    dhcp_ip_conflict = default_ip_conflict;
 235              		.loc 1 287 21 view .LVU36
 236 000e 094B     		ldr	r3, .L25+8
 288:ioLIB/dhcp.c  ****    dhcp_ip_conflict = default_ip_conflict;
 237              		.loc 1 288 4 is_stmt 1 view .LVU37
 288:ioLIB/dhcp.c  ****    dhcp_ip_conflict = default_ip_conflict;
 238              		.loc 1 288 21 is_stmt 0 view .LVU38
 239 0010 0948     		ldr	r0, .L25+12
 240              	.LVL13:
 290:ioLIB/dhcp.c  ****    if(ip_update)   dhcp_ip_update = ip_update;
 291:ioLIB/dhcp.c  ****    if(ip_conflict) dhcp_ip_conflict = ip_conflict;
 292:ioLIB/dhcp.c  **** }
 241              		.loc 1 292 1 view .LVU39
 242 0012 5DF8044B 		ldr	r4, [sp], #4
 243              	.LCFI7:
 244              		.cfi_restore 4
 245              		.cfi_def_cfa_offset 0
 290:ioLIB/dhcp.c  ****    if(ip_update)   dhcp_ip_update = ip_update;
 246              		.loc 1 290 35 view .LVU40
 247 0016 0029     		cmp	r1, #0
 248 0018 18BF     		it	ne
 249 001a 0B46     		movne	r3, r1
 288:ioLIB/dhcp.c  ****    if(ip_assign)   dhcp_ip_assign = ip_assign;
 250              		.loc 1 288 21 view .LVU41
 251 001c 0749     		ldr	r1, .L25+16
 252              	.LVL14:
 289:ioLIB/dhcp.c  ****    if(ip_update)   dhcp_ip_update = ip_update;
 253              		.loc 1 289 4 is_stmt 1 view .LVU42
 290:ioLIB/dhcp.c  ****    if(ip_update)   dhcp_ip_update = ip_update;
 254              		.loc 1 290 4 view .LVU43
 291:ioLIB/dhcp.c  **** }
 255              		.loc 1 291 37 is_stmt 0 view .LVU44
 256 001e 002A     		cmp	r2, #0
 257 0020 18BF     		it	ne
 258 0022 1146     		movne	r1, r2
ARM GAS  C:\Users\clay0\AppData\Local\Temp\ccgGhwt3.s 			page 11


 287:ioLIB/dhcp.c  ****    dhcp_ip_conflict = default_ip_conflict;
 259              		.loc 1 287 21 view .LVU45
 260 0024 064A     		ldr	r2, .L25+20
 261              	.LVL15:
 291:ioLIB/dhcp.c  **** }
 262              		.loc 1 291 37 view .LVU46
 263 0026 0160     		str	r1, [r0]
 290:ioLIB/dhcp.c  ****    if(ip_conflict) dhcp_ip_conflict = ip_conflict;
 264              		.loc 1 290 35 view .LVU47
 265 0028 1360     		str	r3, [r2]
 291:ioLIB/dhcp.c  **** }
 266              		.loc 1 291 4 is_stmt 1 view .LVU48
 267              		.loc 1 292 1 is_stmt 0 view .LVU49
 268 002a 7047     		bx	lr
 269              	.L26:
 270              		.align	2
 271              	.L25:
 272 002c 00000000 		.word	default_ip_assign
 273 0030 00000000 		.word	.LANCHOR4
 274 0034 00000000 		.word	default_ip_update
 275 0038 00000000 		.word	.LANCHOR6
 276 003c 00000000 		.word	default_ip_conflict
 277 0040 00000000 		.word	.LANCHOR5
 278              		.cfi_endproc
 279              	.LFE3:
 281              		.section	.text.makeDHCPMSG,"ax",%progbits
 282              		.align	1
 283              		.p2align 2,,3
 284              		.global	makeDHCPMSG
 285              		.syntax unified
 286              		.thumb
 287              		.thumb_func
 289              	makeDHCPMSG:
 290              	.LFB4:
 293:ioLIB/dhcp.c  **** 
 294:ioLIB/dhcp.c  **** /* make the common DHCP message */
 295:ioLIB/dhcp.c  **** void makeDHCPMSG(void)
 296:ioLIB/dhcp.c  **** {
 291              		.loc 1 296 1 is_stmt 1 view -0
 292              		.cfi_startproc
 293              		@ args = 0, pretend = 0, frame = 8
 294              		@ frame_needed = 0, uses_anonymous_args = 0
 297:ioLIB/dhcp.c  ****    uint8_t  bk_mac[6];
 295              		.loc 1 297 4 view .LVU51
 298:ioLIB/dhcp.c  ****    uint8_t* ptmp;
 296              		.loc 1 298 4 view .LVU52
 299:ioLIB/dhcp.c  ****    uint8_t  i;
 297              		.loc 1 299 4 view .LVU53
 300:ioLIB/dhcp.c  ****    getSHAR(bk_mac);
 298              		.loc 1 300 4 view .LVU54
 296:ioLIB/dhcp.c  ****    uint8_t  bk_mac[6];
 299              		.loc 1 296 1 is_stmt 0 view .LVU55
 300 0000 30B5     		push	{r4, r5, lr}
 301              	.LCFI8:
 302              		.cfi_def_cfa_offset 12
 303              		.cfi_offset 4, -12
 304              		.cfi_offset 5, -8
ARM GAS  C:\Users\clay0\AppData\Local\Temp\ccgGhwt3.s 			page 12


 305              		.cfi_offset 14, -4
 306 0002 83B0     		sub	sp, sp, #12
 307              	.LCFI9:
 308              		.cfi_def_cfa_offset 24
 309              		.loc 1 300 4 view .LVU56
 310 0004 6946     		mov	r1, sp
 311 0006 0622     		movs	r2, #6
 312 0008 4FF41060 		mov	r0, #2304
 313 000c FFF7FEFF 		bl	WIZCHIP_READ_BUF
 314              	.LVL16:
 301:ioLIB/dhcp.c  **** 	pDHCPMSG->op      = DHCP_BOOTREQUEST;
 315              		.loc 1 301 2 is_stmt 1 view .LVU57
 316              		.loc 1 301 10 is_stmt 0 view .LVU58
 317 0010 184B     		ldr	r3, .L29
 318              		.loc 1 301 20 view .LVU59
 319 0012 194A     		ldr	r2, .L29+4
 320              		.loc 1 301 10 view .LVU60
 321 0014 1C68     		ldr	r4, [r3]
 302:ioLIB/dhcp.c  **** 	pDHCPMSG->htype   = DHCP_HTYPE10MB;
 322              		.loc 1 302 2 is_stmt 1 view .LVU61
 303:ioLIB/dhcp.c  **** 	pDHCPMSG->hlen    = DHCP_HLENETHERNET;
 323              		.loc 1 303 2 view .LVU62
 304:ioLIB/dhcp.c  **** 	pDHCPMSG->hops    = DHCP_HOPS;
 324              		.loc 1 304 2 view .LVU63
 305:ioLIB/dhcp.c  **** 	ptmp              = (uint8_t*)(&pDHCPMSG->xid);
 306:ioLIB/dhcp.c  **** 	*(ptmp+0)         = (uint8_t)((DHCP_XID & 0xFF000000) >> 24);
 325              		.loc 1 306 56 is_stmt 0 view .LVU64
 326 0016 194B     		ldr	r3, .L29+8
 301:ioLIB/dhcp.c  **** 	pDHCPMSG->htype   = DHCP_HTYPE10MB;
 327              		.loc 1 301 20 view .LVU65
 328 0018 2260     		str	r2, [r4]
 305:ioLIB/dhcp.c  **** 	ptmp              = (uint8_t*)(&pDHCPMSG->xid);
 329              		.loc 1 305 2 is_stmt 1 view .LVU66
 330              	.LVL17:
 331              		.loc 1 306 2 view .LVU67
 332              		.loc 1 306 56 is_stmt 0 view .LVU68
 333 001a 1B68     		ldr	r3, [r3]
 307:ioLIB/dhcp.c  **** 	*(ptmp+1)         = (uint8_t)((DHCP_XID & 0x00FF0000) >> 16);
 308:ioLIB/dhcp.c  ****    *(ptmp+2)         = (uint8_t)((DHCP_XID & 0x0000FF00) >>  8);
 309:ioLIB/dhcp.c  **** 	*(ptmp+3)         = (uint8_t)((DHCP_XID & 0x000000FF) >>  0);   
 310:ioLIB/dhcp.c  **** 	pDHCPMSG->secs    = DHCP_SECS;
 311:ioLIB/dhcp.c  **** 	ptmp              = (uint8_t*)(&pDHCPMSG->flags);	
 312:ioLIB/dhcp.c  **** 	*(ptmp+0)         = (uint8_t)((DHCP_FLAGSBROADCAST & 0xFF00) >> 8);
 313:ioLIB/dhcp.c  **** 	*(ptmp+1)         = (uint8_t)((DHCP_FLAGSBROADCAST & 0x00FF) >> 0);
 314:ioLIB/dhcp.c  **** 
 315:ioLIB/dhcp.c  **** 	pDHCPMSG->ciaddr[0] = 0;
 316:ioLIB/dhcp.c  **** 	pDHCPMSG->ciaddr[1] = 0;
 317:ioLIB/dhcp.c  **** 	pDHCPMSG->ciaddr[2] = 0;
 318:ioLIB/dhcp.c  **** 	pDHCPMSG->ciaddr[3] = 0;
 319:ioLIB/dhcp.c  **** 
 320:ioLIB/dhcp.c  **** 	pDHCPMSG->yiaddr[0] = 0;
 321:ioLIB/dhcp.c  **** 	pDHCPMSG->yiaddr[1] = 0;
 322:ioLIB/dhcp.c  **** 	pDHCPMSG->yiaddr[2] = 0;
 323:ioLIB/dhcp.c  **** 	pDHCPMSG->yiaddr[3] = 0;
 324:ioLIB/dhcp.c  **** 
 325:ioLIB/dhcp.c  **** 	pDHCPMSG->siaddr[0] = 0;
 326:ioLIB/dhcp.c  **** 	pDHCPMSG->siaddr[1] = 0;
ARM GAS  C:\Users\clay0\AppData\Local\Temp\ccgGhwt3.s 			page 13


 327:ioLIB/dhcp.c  **** 	pDHCPMSG->siaddr[2] = 0;
 328:ioLIB/dhcp.c  **** 	pDHCPMSG->siaddr[3] = 0;
 329:ioLIB/dhcp.c  **** 
 330:ioLIB/dhcp.c  **** 	pDHCPMSG->giaddr[0] = 0;
 331:ioLIB/dhcp.c  **** 	pDHCPMSG->giaddr[1] = 0;
 332:ioLIB/dhcp.c  **** 	pDHCPMSG->giaddr[2] = 0;
 333:ioLIB/dhcp.c  **** 	pDHCPMSG->giaddr[3] = 0;
 334:ioLIB/dhcp.c  **** 
 335:ioLIB/dhcp.c  **** 	pDHCPMSG->chaddr[0] = DHCP_CHADDR[0];
 334              		.loc 1 335 35 view .LVU69
 335 001c 184A     		ldr	r2, .L29+12
 309:ioLIB/dhcp.c  **** 	pDHCPMSG->secs    = DHCP_SECS;
 336              		.loc 1 309 22 view .LVU70
 337 001e E371     		strb	r3, [r4, #7]
 306:ioLIB/dhcp.c  **** 	*(ptmp+1)         = (uint8_t)((DHCP_XID & 0x00FF0000) >> 16);
 338              		.loc 1 306 56 view .LVU71
 339 0020 180E     		lsrs	r0, r3, #24
 307:ioLIB/dhcp.c  **** 	*(ptmp+1)         = (uint8_t)((DHCP_XID & 0x00FF0000) >> 16);
 340              		.loc 1 307 56 view .LVU72
 341 0022 190C     		lsrs	r1, r3, #16
 306:ioLIB/dhcp.c  **** 	*(ptmp+1)         = (uint8_t)((DHCP_XID & 0x00FF0000) >> 16);
 342              		.loc 1 306 22 view .LVU73
 343 0024 2071     		strb	r0, [r4, #4]
 307:ioLIB/dhcp.c  **** 	*(ptmp+1)         = (uint8_t)((DHCP_XID & 0x00FF0000) >> 16);
 344              		.loc 1 307 2 is_stmt 1 view .LVU74
 307:ioLIB/dhcp.c  **** 	*(ptmp+1)         = (uint8_t)((DHCP_XID & 0x00FF0000) >> 16);
 345              		.loc 1 307 22 is_stmt 0 view .LVU75
 346 0026 6171     		strb	r1, [r4, #5]
 308:ioLIB/dhcp.c  **** 	*(ptmp+3)         = (uint8_t)((DHCP_XID & 0x000000FF) >>  0);   
 347              		.loc 1 308 4 is_stmt 1 view .LVU76
 312:ioLIB/dhcp.c  **** 	*(ptmp+1)         = (uint8_t)((DHCP_FLAGSBROADCAST & 0x00FF) >> 0);
 348              		.loc 1 312 20 is_stmt 0 view .LVU77
 349 0028 0025     		movs	r5, #0
 350              		.loc 1 335 22 view .LVU78
 351 002a 1188     		ldrh	r1, [r2]
 336:ioLIB/dhcp.c  **** 	pDHCPMSG->chaddr[1] = DHCP_CHADDR[1];
 337:ioLIB/dhcp.c  **** 	pDHCPMSG->chaddr[2] = DHCP_CHADDR[2];
 352              		.loc 1 337 35 view .LVU79
 353 002c D2F80220 		ldr	r2, [r2, #2]	@ unaligned
 335:ioLIB/dhcp.c  **** 	pDHCPMSG->chaddr[1] = DHCP_CHADDR[1];
 354              		.loc 1 335 22 view .LVU80
 355 0030 A183     		strh	r1, [r4, #28]	@ movhi
 308:ioLIB/dhcp.c  **** 	*(ptmp+3)         = (uint8_t)((DHCP_XID & 0x000000FF) >>  0);   
 356              		.loc 1 308 58 view .LVU81
 357 0032 180A     		lsrs	r0, r3, #8
 310:ioLIB/dhcp.c  **** 	ptmp              = (uint8_t*)(&pDHCPMSG->flags);	
 358              		.loc 1 310 20 view .LVU82
 359 0034 4FF40003 		mov	r3, #8388608
 312:ioLIB/dhcp.c  **** 	*(ptmp+1)         = (uint8_t)((DHCP_FLAGSBROADCAST & 0x00FF) >> 0);
 360              		.loc 1 312 20 view .LVU83
 361 0038 C4E90235 		strd	r3, r5, [r4, #8]
 308:ioLIB/dhcp.c  **** 	*(ptmp+3)         = (uint8_t)((DHCP_XID & 0x000000FF) >>  0);   
 362              		.loc 1 308 24 view .LVU84
 363 003c A071     		strb	r0, [r4, #6]
 309:ioLIB/dhcp.c  **** 	pDHCPMSG->secs    = DHCP_SECS;
 364              		.loc 1 309 2 is_stmt 1 view .LVU85
 310:ioLIB/dhcp.c  **** 	ptmp              = (uint8_t*)(&pDHCPMSG->flags);	
ARM GAS  C:\Users\clay0\AppData\Local\Temp\ccgGhwt3.s 			page 14


 365              		.loc 1 310 2 view .LVU86
 311:ioLIB/dhcp.c  **** 	*(ptmp+0)         = (uint8_t)((DHCP_FLAGSBROADCAST & 0xFF00) >> 8);
 366              		.loc 1 311 2 view .LVU87
 367              	.LVL18:
 312:ioLIB/dhcp.c  **** 	*(ptmp+1)         = (uint8_t)((DHCP_FLAGSBROADCAST & 0x00FF) >> 0);
 368              		.loc 1 312 2 view .LVU88
 313:ioLIB/dhcp.c  **** 
 369              		.loc 1 313 2 view .LVU89
 315:ioLIB/dhcp.c  **** 	pDHCPMSG->ciaddr[1] = 0;
 370              		.loc 1 315 2 view .LVU90
 316:ioLIB/dhcp.c  **** 	pDHCPMSG->ciaddr[2] = 0;
 371              		.loc 1 316 2 view .LVU91
 317:ioLIB/dhcp.c  **** 	pDHCPMSG->ciaddr[3] = 0;
 372              		.loc 1 317 2 view .LVU92
 318:ioLIB/dhcp.c  **** 
 373              		.loc 1 318 2 view .LVU93
 320:ioLIB/dhcp.c  **** 	pDHCPMSG->yiaddr[1] = 0;
 374              		.loc 1 320 2 view .LVU94
 321:ioLIB/dhcp.c  **** 	pDHCPMSG->yiaddr[2] = 0;
 375              		.loc 1 321 2 view .LVU95
 322:ioLIB/dhcp.c  **** 	pDHCPMSG->yiaddr[3] = 0;
 376              		.loc 1 322 2 view .LVU96
 323:ioLIB/dhcp.c  **** 
 377              		.loc 1 323 2 view .LVU97
 325:ioLIB/dhcp.c  **** 	pDHCPMSG->siaddr[1] = 0;
 378              		.loc 1 325 2 view .LVU98
 326:ioLIB/dhcp.c  **** 	pDHCPMSG->siaddr[2] = 0;
 379              		.loc 1 326 2 view .LVU99
 327:ioLIB/dhcp.c  **** 	pDHCPMSG->siaddr[3] = 0;
 380              		.loc 1 327 2 view .LVU100
 328:ioLIB/dhcp.c  **** 
 381              		.loc 1 328 2 view .LVU101
 330:ioLIB/dhcp.c  **** 	pDHCPMSG->giaddr[1] = 0;
 382              		.loc 1 330 2 view .LVU102
 331:ioLIB/dhcp.c  **** 	pDHCPMSG->giaddr[2] = 0;
 383              		.loc 1 331 2 view .LVU103
 332:ioLIB/dhcp.c  **** 	pDHCPMSG->giaddr[3] = 0;
 384              		.loc 1 332 2 view .LVU104
 333:ioLIB/dhcp.c  **** 
 385              		.loc 1 333 2 view .LVU105
 386              		.loc 1 337 22 is_stmt 0 view .LVU106
 387 003e C4F81E20 		str	r2, [r4, #30]	@ unaligned
 338:ioLIB/dhcp.c  **** 	pDHCPMSG->chaddr[3] = DHCP_CHADDR[3];
 339:ioLIB/dhcp.c  **** 	pDHCPMSG->chaddr[4] = DHCP_CHADDR[4];
 340:ioLIB/dhcp.c  **** 	pDHCPMSG->chaddr[5] = DHCP_CHADDR[5];
 341:ioLIB/dhcp.c  **** 
 342:ioLIB/dhcp.c  **** 	for (i = 6; i < 16; i++)  pDHCPMSG->chaddr[i] = 0;
 343:ioLIB/dhcp.c  **** 	for (i = 0; i < 64; i++)  pDHCPMSG->sname[i]  = 0;
 388              		.loc 1 343 48 view .LVU107
 389 0042 2946     		mov	r1, r5
 312:ioLIB/dhcp.c  **** 	*(ptmp+1)         = (uint8_t)((DHCP_FLAGSBROADCAST & 0x00FF) >> 0);
 390              		.loc 1 312 20 view .LVU108
 391 0044 C4E90455 		strd	r5, r5, [r4, #16]
 392 0048 A561     		str	r5, [r4, #24]
 335:ioLIB/dhcp.c  **** 	pDHCPMSG->chaddr[1] = DHCP_CHADDR[1];
 393              		.loc 1 335 2 is_stmt 1 view .LVU109
 336:ioLIB/dhcp.c  **** 	pDHCPMSG->chaddr[2] = DHCP_CHADDR[2];
ARM GAS  C:\Users\clay0\AppData\Local\Temp\ccgGhwt3.s 			page 15


 394              		.loc 1 336 2 view .LVU110
 337:ioLIB/dhcp.c  **** 	pDHCPMSG->chaddr[3] = DHCP_CHADDR[3];
 395              		.loc 1 337 2 view .LVU111
 338:ioLIB/dhcp.c  **** 	pDHCPMSG->chaddr[4] = DHCP_CHADDR[4];
 396              		.loc 1 338 2 view .LVU112
 339:ioLIB/dhcp.c  **** 	pDHCPMSG->chaddr[5] = DHCP_CHADDR[5];
 397              		.loc 1 339 2 view .LVU113
 340:ioLIB/dhcp.c  **** 
 398              		.loc 1 340 2 view .LVU114
 342:ioLIB/dhcp.c  **** 	for (i = 0; i < 64; i++)  pDHCPMSG->sname[i]  = 0;
 399              		.loc 1 342 2 view .LVU115
 400              	.LVL19:
 342:ioLIB/dhcp.c  **** 	for (i = 0; i < 64; i++)  pDHCPMSG->sname[i]  = 0;
 401              		.loc 1 342 14 view .LVU116
 342:ioLIB/dhcp.c  **** 	for (i = 0; i < 64; i++)  pDHCPMSG->sname[i]  = 0;
 402              		.loc 1 342 48 is_stmt 0 view .LVU117
 403 004a C4F82250 		str	r5, [r4, #34]	@ unaligned
 404 004e C4F82650 		str	r5, [r4, #38]	@ unaligned
 405              		.loc 1 343 48 view .LVU118
 406 0052 4022     		movs	r2, #64
 342:ioLIB/dhcp.c  **** 	for (i = 0; i < 64; i++)  pDHCPMSG->sname[i]  = 0;
 407              		.loc 1 342 48 view .LVU119
 408 0054 6585     		strh	r5, [r4, #42]	@ unaligned
 409              	.LVL20:
 410              		.loc 1 343 48 view .LVU120
 411 0056 04F12C00 		add	r0, r4, #44
 412 005a FFF7FEFF 		bl	memset
 413              	.LVL21:
 344:ioLIB/dhcp.c  **** 	for (i = 0; i < 128; i++) pDHCPMSG->file[i]   = 0;
 414              		.loc 1 344 48 view .LVU121
 415 005e 8022     		movs	r2, #128
 416 0060 2946     		mov	r1, r5
 417 0062 04F16C00 		add	r0, r4, #108
 418 0066 FFF7FEFF 		bl	memset
 419              	.LVL22:
 345:ioLIB/dhcp.c  **** 
 346:ioLIB/dhcp.c  **** 	// MAGIC_COOKIE
 347:ioLIB/dhcp.c  **** 	pDHCPMSG->OPT[0] = (uint8_t)((MAGIC_COOKIE & 0xFF000000) >> 24);
 420              		.loc 1 347 2 is_stmt 1 view .LVU122
 348:ioLIB/dhcp.c  **** 	pDHCPMSG->OPT[1] = (uint8_t)((MAGIC_COOKIE & 0x00FF0000) >> 16);
 421              		.loc 1 348 2 view .LVU123
 349:ioLIB/dhcp.c  **** 	pDHCPMSG->OPT[2] = (uint8_t)((MAGIC_COOKIE & 0x0000FF00) >>  8);
 422              		.loc 1 349 2 view .LVU124
 350:ioLIB/dhcp.c  **** 	pDHCPMSG->OPT[3] = (uint8_t) (MAGIC_COOKIE & 0x000000FF) >>  0;
 423              		.loc 1 350 2 view .LVU125
 347:ioLIB/dhcp.c  **** 	pDHCPMSG->OPT[1] = (uint8_t)((MAGIC_COOKIE & 0x00FF0000) >> 16);
 424              		.loc 1 347 19 is_stmt 0 view .LVU126
 425 006a 064B     		ldr	r3, .L29+16
 426 006c C4F8EC30 		str	r3, [r4, #236]
 351:ioLIB/dhcp.c  **** }
 427              		.loc 1 351 1 view .LVU127
 428 0070 03B0     		add	sp, sp, #12
 429              	.LCFI10:
 430              		.cfi_def_cfa_offset 12
 431              		@ sp needed
 432 0072 30BD     		pop	{r4, r5, pc}
 433              	.LVL23:
ARM GAS  C:\Users\clay0\AppData\Local\Temp\ccgGhwt3.s 			page 16


 434              	.L30:
 435              		.loc 1 351 1 view .LVU128
 436              		.align	2
 437              	.L29:
 438 0074 00000000 		.word	.LANCHOR7
 439 0078 01010600 		.word	393473
 440 007c 00000000 		.word	.LANCHOR8
 441 0080 00000000 		.word	.LANCHOR3
 442 0084 63825363 		.word	1666417251
 443              		.cfi_endproc
 444              	.LFE4:
 446              		.section	.text.send_DHCP_DISCOVER,"ax",%progbits
 447              		.align	1
 448              		.p2align 2,,3
 449              		.global	send_DHCP_DISCOVER
 450              		.syntax unified
 451              		.thumb
 452              		.thumb_func
 454              	send_DHCP_DISCOVER:
 455              	.LFB5:
 352:ioLIB/dhcp.c  **** 
 353:ioLIB/dhcp.c  **** /* SEND DHCP DISCOVER */
 354:ioLIB/dhcp.c  **** void send_DHCP_DISCOVER(void)
 355:ioLIB/dhcp.c  **** {
 456              		.loc 1 355 1 is_stmt 1 view -0
 457              		.cfi_startproc
 458              		@ args = 0, pretend = 0, frame = 48
 459              		@ frame_needed = 0, uses_anonymous_args = 0
 356:ioLIB/dhcp.c  **** 	uint16_t i;
 460              		.loc 1 356 2 view .LVU130
 357:ioLIB/dhcp.c  **** 	uint8_t ip[4];
 461              		.loc 1 357 2 view .LVU131
 358:ioLIB/dhcp.c  **** 	uint16_t k = 0;
 462              		.loc 1 358 2 view .LVU132
 463              	.LVL24:
 359:ioLIB/dhcp.c  ****    
 360:ioLIB/dhcp.c  ****    makeDHCPMSG();
 464              		.loc 1 360 4 view .LVU133
 355:ioLIB/dhcp.c  **** 	uint16_t i;
 465              		.loc 1 355 1 is_stmt 0 view .LVU134
 466 0000 2DE9F04F 		push	{r4, r5, r6, r7, r8, r9, r10, fp, lr}
 467              	.LCFI11:
 468              		.cfi_def_cfa_offset 36
 469              		.cfi_offset 4, -36
 470              		.cfi_offset 5, -32
 471              		.cfi_offset 6, -28
 472              		.cfi_offset 7, -24
 473              		.cfi_offset 8, -20
 474              		.cfi_offset 9, -16
 475              		.cfi_offset 10, -12
 476              		.cfi_offset 11, -8
 477              		.cfi_offset 14, -4
 478 0004 8FB0     		sub	sp, sp, #60
 479              	.LCFI12:
 480              		.cfi_def_cfa_offset 96
 481              		.loc 1 360 4 view .LVU135
 482 0006 FFF7FEFF 		bl	makeDHCPMSG
ARM GAS  C:\Users\clay0\AppData\Local\Temp\ccgGhwt3.s 			page 17


 483              	.LVL25:
 361:ioLIB/dhcp.c  ****    DHCP_SIP[0]=0;
 484              		.loc 1 361 4 is_stmt 1 view .LVU136
 362:ioLIB/dhcp.c  ****    DHCP_SIP[1]=0;
 485              		.loc 1 362 4 view .LVU137
 363:ioLIB/dhcp.c  ****    DHCP_SIP[2]=0;
 486              		.loc 1 363 4 view .LVU138
 364:ioLIB/dhcp.c  ****    DHCP_SIP[3]=0;
 487              		.loc 1 364 4 view .LVU139
 365:ioLIB/dhcp.c  ****    DHCP_REAL_SIP[0]=0;
 366:ioLIB/dhcp.c  ****    DHCP_REAL_SIP[1]=0;
 367:ioLIB/dhcp.c  ****    DHCP_REAL_SIP[2]=0;
 368:ioLIB/dhcp.c  ****    DHCP_REAL_SIP[3]=0;
 369:ioLIB/dhcp.c  **** 
 370:ioLIB/dhcp.c  ****    k = 4;     // because MAGIC_COOKIE already made by makeDHCPMSG()
 371:ioLIB/dhcp.c  ****    
 372:ioLIB/dhcp.c  **** 	// Option Request Param
 373:ioLIB/dhcp.c  **** 	pDHCPMSG->OPT[k++] = dhcpMessageType;
 488              		.loc 1 373 10 is_stmt 0 view .LVU140
 489 000a 8D4A     		ldr	r2, .L52
 361:ioLIB/dhcp.c  ****    DHCP_SIP[1]=0;
 490              		.loc 1 361 15 view .LVU141
 491 000c 8D49     		ldr	r1, .L52+4
 492              		.loc 1 373 10 view .LVU142
 493 000e 1468     		ldr	r4, [r2]
 374:ioLIB/dhcp.c  **** 	pDHCPMSG->OPT[k++] = 0x01;
 375:ioLIB/dhcp.c  **** 	pDHCPMSG->OPT[k++] = DHCP_DISCOVER;
 376:ioLIB/dhcp.c  **** 	
 377:ioLIB/dhcp.c  **** 	// Client identifier
 378:ioLIB/dhcp.c  **** 	pDHCPMSG->OPT[k++] = dhcpClientIdentifier;
 379:ioLIB/dhcp.c  **** 	pDHCPMSG->OPT[k++] = 0x07;
 380:ioLIB/dhcp.c  **** 	pDHCPMSG->OPT[k++] = 0x01;
 381:ioLIB/dhcp.c  **** 	pDHCPMSG->OPT[k++] = DHCP_CHADDR[0];
 382:ioLIB/dhcp.c  **** 	pDHCPMSG->OPT[k++] = DHCP_CHADDR[1];
 383:ioLIB/dhcp.c  **** 	pDHCPMSG->OPT[k++] = DHCP_CHADDR[2];
 384:ioLIB/dhcp.c  **** 	pDHCPMSG->OPT[k++] = DHCP_CHADDR[3];
 494              		.loc 1 384 34 view .LVU143
 495 0010 8D4B     		ldr	r3, .L52+8
 385:ioLIB/dhcp.c  **** 	pDHCPMSG->OPT[k++] = DHCP_CHADDR[4];
 386:ioLIB/dhcp.c  **** 	pDHCPMSG->OPT[k++] = DHCP_CHADDR[5];
 387:ioLIB/dhcp.c  **** 	
 388:ioLIB/dhcp.c  **** 	// host name
 389:ioLIB/dhcp.c  **** 	pDHCPMSG->OPT[k++] = hostName;
 390:ioLIB/dhcp.c  **** 	pDHCPMSG->OPT[k++] = 0;          // fill zero length of hostname 
 391:ioLIB/dhcp.c  **** 	for(i = 0 ; HOST_NAME[i] != 0; i++)
 496              		.loc 1 391 23 view .LVU144
 497 0012 8E4F     		ldr	r7, .L52+12
 365:ioLIB/dhcp.c  ****    DHCP_REAL_SIP[1]=0;
 498              		.loc 1 365 20 view .LVU145
 499 0014 8E48     		ldr	r0, .L52+16
 500              		.loc 1 391 23 view .LVU146
 501 0016 3E78     		ldrb	r6, [r7]	@ zero_extendqisi2
 384:ioLIB/dhcp.c  **** 	pDHCPMSG->OPT[k++] = DHCP_CHADDR[4];
 502              		.loc 1 384 34 view .LVU147
 503 0018 93F803C0 		ldrb	ip, [r3, #3]	@ zero_extendqisi2
 361:ioLIB/dhcp.c  ****    DHCP_SIP[1]=0;
 504              		.loc 1 361 15 view .LVU148
ARM GAS  C:\Users\clay0\AppData\Local\Temp\ccgGhwt3.s 			page 18


 505 001c 0022     		movs	r2, #0
 506 001e 0A60     		str	r2, [r1]
 365:ioLIB/dhcp.c  ****    DHCP_REAL_SIP[1]=0;
 507              		.loc 1 365 4 is_stmt 1 view .LVU149
 366:ioLIB/dhcp.c  ****    DHCP_REAL_SIP[2]=0;
 508              		.loc 1 366 4 view .LVU150
 367:ioLIB/dhcp.c  ****    DHCP_REAL_SIP[3]=0;
 509              		.loc 1 367 4 view .LVU151
 368:ioLIB/dhcp.c  **** 
 510              		.loc 1 368 4 view .LVU152
 373:ioLIB/dhcp.c  **** 	pDHCPMSG->OPT[k++] = 0x01;
 511              		.loc 1 373 21 is_stmt 0 view .LVU153
 512 0020 8C49     		ldr	r1, .L52+20
 513 0022 C4F8F010 		str	r1, [r4, #240]
 381:ioLIB/dhcp.c  **** 	pDHCPMSG->OPT[k++] = DHCP_CHADDR[1];
 514              		.loc 1 381 21 view .LVU154
 515 0026 1988     		ldrh	r1, [r3]
 365:ioLIB/dhcp.c  ****    DHCP_REAL_SIP[1]=0;
 516              		.loc 1 365 20 view .LVU155
 517 0028 0260     		str	r2, [r0]
 370:ioLIB/dhcp.c  ****    
 518              		.loc 1 370 4 is_stmt 1 view .LVU156
 519              	.LVL26:
 373:ioLIB/dhcp.c  **** 	pDHCPMSG->OPT[k++] = 0x01;
 520              		.loc 1 373 2 view .LVU157
 374:ioLIB/dhcp.c  **** 	pDHCPMSG->OPT[k++] = DHCP_DISCOVER;
 521              		.loc 1 374 2 view .LVU158
 375:ioLIB/dhcp.c  **** 	
 522              		.loc 1 375 2 view .LVU159
 378:ioLIB/dhcp.c  **** 	pDHCPMSG->OPT[k++] = 0x07;
 523              		.loc 1 378 2 view .LVU160
 379:ioLIB/dhcp.c  **** 	pDHCPMSG->OPT[k++] = 0x01;
 524              		.loc 1 379 2 view .LVU161
 380:ioLIB/dhcp.c  **** 	pDHCPMSG->OPT[k++] = DHCP_CHADDR[0];
 525              		.loc 1 380 2 view .LVU162
 381:ioLIB/dhcp.c  **** 	pDHCPMSG->OPT[k++] = DHCP_CHADDR[1];
 526              		.loc 1 381 21 is_stmt 0 view .LVU163
 527 002a A4F8F610 		strh	r1, [r4, #246]	@ movhi
 383:ioLIB/dhcp.c  **** 	pDHCPMSG->OPT[k++] = DHCP_CHADDR[3];
 528              		.loc 1 383 34 view .LVU164
 529 002e D3F80220 		ldr	r2, [r3, #2]	@ unaligned
 383:ioLIB/dhcp.c  **** 	pDHCPMSG->OPT[k++] = DHCP_CHADDR[3];
 530              		.loc 1 383 21 view .LVU165
 531 0032 C4F8F820 		str	r2, [r4, #248]
 389:ioLIB/dhcp.c  **** 	pDHCPMSG->OPT[k++] = 0;          // fill zero length of hostname 
 532              		.loc 1 389 21 view .LVU166
 533 0036 0C21     		movs	r1, #12
 379:ioLIB/dhcp.c  **** 	pDHCPMSG->OPT[k++] = 0x01;
 534              		.loc 1 379 21 view .LVU167
 535 0038 40F20710 		movw	r0, #263
 389:ioLIB/dhcp.c  **** 	pDHCPMSG->OPT[k++] = 0;          // fill zero length of hostname 
 536              		.loc 1 389 21 view .LVU168
 537 003c A4F8FC10 		strh	r1, [r4, #252]	@ movhi
 386:ioLIB/dhcp.c  **** 	
 538              		.loc 1 386 34 view .LVU169
 539 0040 5A79     		ldrb	r2, [r3, #5]	@ zero_extendqisi2
 385:ioLIB/dhcp.c  **** 	pDHCPMSG->OPT[k++] = DHCP_CHADDR[5];
ARM GAS  C:\Users\clay0\AppData\Local\Temp\ccgGhwt3.s 			page 19


 540              		.loc 1 385 34 view .LVU170
 541 0042 1979     		ldrb	r1, [r3, #4]	@ zero_extendqisi2
 379:ioLIB/dhcp.c  **** 	pDHCPMSG->OPT[k++] = 0x01;
 542              		.loc 1 379 21 view .LVU171
 543 0044 A4F8F400 		strh	r0, [r4, #244]	@ movhi
 381:ioLIB/dhcp.c  **** 	pDHCPMSG->OPT[k++] = DHCP_CHADDR[1];
 544              		.loc 1 381 2 is_stmt 1 view .LVU172
 545              	.LVL27:
 382:ioLIB/dhcp.c  **** 	pDHCPMSG->OPT[k++] = DHCP_CHADDR[2];
 546              		.loc 1 382 2 view .LVU173
 383:ioLIB/dhcp.c  **** 	pDHCPMSG->OPT[k++] = DHCP_CHADDR[3];
 547              		.loc 1 383 2 view .LVU174
 384:ioLIB/dhcp.c  **** 	pDHCPMSG->OPT[k++] = DHCP_CHADDR[4];
 548              		.loc 1 384 2 view .LVU175
 385:ioLIB/dhcp.c  **** 	pDHCPMSG->OPT[k++] = DHCP_CHADDR[5];
 549              		.loc 1 385 2 view .LVU176
 386:ioLIB/dhcp.c  **** 	
 550              		.loc 1 386 2 view .LVU177
 389:ioLIB/dhcp.c  **** 	pDHCPMSG->OPT[k++] = 0;          // fill zero length of hostname 
 551              		.loc 1 389 2 view .LVU178
 390:ioLIB/dhcp.c  **** 	for(i = 0 ; HOST_NAME[i] != 0; i++)
 552              		.loc 1 390 2 view .LVU179
 553              		.loc 1 391 2 view .LVU180
 554              		.loc 1 391 14 view .LVU181
 555              		.loc 1 391 2 is_stmt 0 view .LVU182
 556 0048 002E     		cmp	r6, #0
 557 004a 00F0D680 		beq	.L48
 390:ioLIB/dhcp.c  **** 	for(i = 0 ; HOST_NAME[i] != 0; i++)
 558              		.loc 1 390 17 view .LVU183
 559 004e 1223     		movs	r3, #18
 560              	.LVL28:
 561              	.L33:
 392:ioLIB/dhcp.c  ****    	pDHCPMSG->OPT[k++] = HOST_NAME[i];
 562              		.loc 1 392 5 is_stmt 1 discriminator 3 view .LVU184
 391:ioLIB/dhcp.c  ****    	pDHCPMSG->OPT[k++] = HOST_NAME[i];
 563              		.loc 1 391 34 is_stmt 0 discriminator 3 view .LVU185
 564 0050 A3F11105 		sub	r5, r3, #17
 565 0054 1846     		mov	r0, r3
 566 0056 ADB2     		uxth	r5, r5
 567              		.loc 1 392 24 discriminator 3 view .LVU186
 568 0058 E318     		adds	r3, r4, r3
 569              	.LVL29:
 570              		.loc 1 392 24 discriminator 3 view .LVU187
 571 005a 83F8EC60 		strb	r6, [r3, #236]
 391:ioLIB/dhcp.c  ****    	pDHCPMSG->OPT[k++] = HOST_NAME[i];
 572              		.loc 1 391 23 discriminator 3 view .LVU188
 573 005e 7E5D     		ldrb	r6, [r7, r5]	@ zero_extendqisi2
 574              		.loc 1 392 20 discriminator 3 view .LVU189
 575 0060 431C     		adds	r3, r0, #1
 576 0062 9BB2     		uxth	r3, r3
 577              	.LVL30:
 391:ioLIB/dhcp.c  ****    	pDHCPMSG->OPT[k++] = HOST_NAME[i];
 578              		.loc 1 391 33 is_stmt 1 discriminator 3 view .LVU190
 391:ioLIB/dhcp.c  ****    	pDHCPMSG->OPT[k++] = HOST_NAME[i];
 579              		.loc 1 391 14 discriminator 3 view .LVU191
 391:ioLIB/dhcp.c  ****    	pDHCPMSG->OPT[k++] = HOST_NAME[i];
 580              		.loc 1 391 2 is_stmt 0 discriminator 3 view .LVU192
ARM GAS  C:\Users\clay0\AppData\Local\Temp\ccgGhwt3.s 			page 20


 581 0064 002E     		cmp	r6, #0
 582 0066 F3D1     		bne	.L33
 393:ioLIB/dhcp.c  **** 	pDHCPMSG->OPT[k++] = NibbleToHex(DHCP_CHADDR[3] >> 4);
 394:ioLIB/dhcp.c  **** 	pDHCPMSG->OPT[k++] = NibbleToHex(DHCP_CHADDR[3]);
 395:ioLIB/dhcp.c  **** 	pDHCPMSG->OPT[k++] = NibbleToHex(DHCP_CHADDR[4] >> 4);
 396:ioLIB/dhcp.c  **** 	pDHCPMSG->OPT[k++] = NibbleToHex(DHCP_CHADDR[4]);
 397:ioLIB/dhcp.c  **** 	pDHCPMSG->OPT[k++] = NibbleToHex(DHCP_CHADDR[5] >> 4);
 583              		.loc 1 397 17 view .LVU193
 584 0068 861D     		adds	r6, r0, #6
 398:ioLIB/dhcp.c  **** 	pDHCPMSG->OPT[k++] = NibbleToHex(DHCP_CHADDR[5]);
 585              		.loc 1 398 17 view .LVU194
 586 006a B6B2     		uxth	r6, r6
 587 006c 0396     		str	r6, [sp, #12]
 399:ioLIB/dhcp.c  **** 	pDHCPMSG->OPT[k - (i+6+1)] = i+6; // length of hostname
 588              		.loc 1 399 24 view .LVU195
 589 006e EE1D     		adds	r6, r5, #7
 590              		.loc 1 399 32 view .LVU196
 591 0070 0635     		adds	r5, r5, #6
 592              	.LVL31:
 593              		.loc 1 399 32 view .LVU197
 594 0072 EDB2     		uxtb	r5, r5
 595              	.LVL32:
 596              		.loc 1 399 32 view .LVU198
 597 0074 0595     		str	r5, [sp, #20]
 400:ioLIB/dhcp.c  **** 
 401:ioLIB/dhcp.c  **** 	pDHCPMSG->OPT[k++] = dhcpParamRequest;
 598              		.loc 1 401 17 view .LVU199
 599 0076 00F10805 		add	r5, r0, #8
 402:ioLIB/dhcp.c  **** 	pDHCPMSG->OPT[k++] = 0x06;	// length of request
 600              		.loc 1 402 17 view .LVU200
 601 007a ADB2     		uxth	r5, r5
 602 007c 0695     		str	r5, [sp, #24]
 603 007e 00F10905 		add	r5, r0, #9
 403:ioLIB/dhcp.c  **** 	pDHCPMSG->OPT[k++] = subnetMask;
 604              		.loc 1 403 17 view .LVU201
 605 0082 ADB2     		uxth	r5, r5
 606 0084 0795     		str	r5, [sp, #28]
 607 0086 00F10A05 		add	r5, r0, #10
 404:ioLIB/dhcp.c  **** 	pDHCPMSG->OPT[k++] = routersOnSubnet;
 608              		.loc 1 404 17 view .LVU202
 609 008a ADB2     		uxth	r5, r5
 610 008c 0895     		str	r5, [sp, #32]
 611 008e 00F10B05 		add	r5, r0, #11
 405:ioLIB/dhcp.c  **** 	pDHCPMSG->OPT[k++] = dns;
 612              		.loc 1 405 17 view .LVU203
 613 0092 ADB2     		uxth	r5, r5
 614 0094 0995     		str	r5, [sp, #36]
 615 0096 00F10C05 		add	r5, r0, #12
 398:ioLIB/dhcp.c  **** 	pDHCPMSG->OPT[k - (i+6+1)] = i+6; // length of hostname
 616              		.loc 1 398 17 view .LVU204
 617 009a 00F1070E 		add	lr, r0, #7
 406:ioLIB/dhcp.c  **** 	pDHCPMSG->OPT[k++] = domainName;
 618              		.loc 1 406 17 view .LVU205
 619 009e ADB2     		uxth	r5, r5
 399:ioLIB/dhcp.c  **** 
 620              		.loc 1 399 18 view .LVU206
 621 00a0 1FFA8EFE 		uxth	lr, lr
ARM GAS  C:\Users\clay0\AppData\Local\Temp\ccgGhwt3.s 			page 21


 622              		.loc 1 406 17 view .LVU207
 623 00a4 0A95     		str	r5, [sp, #40]
 407:ioLIB/dhcp.c  **** 	pDHCPMSG->OPT[k++] = dhcpT1value;
 624              		.loc 1 407 17 view .LVU208
 625 00a6 00F10E05 		add	r5, r0, #14
 399:ioLIB/dhcp.c  **** 
 626              		.loc 1 399 18 view .LVU209
 627 00aa AEEB0606 		sub	r6, lr, r6
 628              	.LVL33:
 408:ioLIB/dhcp.c  **** 	pDHCPMSG->OPT[k++] = dhcpT2value;
 629              		.loc 1 408 17 view .LVU210
 630 00ae ADB2     		uxth	r5, r5
 393:ioLIB/dhcp.c  **** 	pDHCPMSG->OPT[k++] = NibbleToHex(DHCP_CHADDR[3]);
 631              		.loc 1 393 17 view .LVU211
 632 00b0 00F1020A 		add	r10, r0, #2
 394:ioLIB/dhcp.c  **** 	pDHCPMSG->OPT[k++] = NibbleToHex(DHCP_CHADDR[4] >> 4);
 633              		.loc 1 394 17 view .LVU212
 634 00b4 00F10309 		add	r9, r0, #3
 395:ioLIB/dhcp.c  **** 	pDHCPMSG->OPT[k++] = NibbleToHex(DHCP_CHADDR[4]);
 635              		.loc 1 395 17 view .LVU213
 636 00b8 00F10408 		add	r8, r0, #4
 396:ioLIB/dhcp.c  **** 	pDHCPMSG->OPT[k++] = NibbleToHex(DHCP_CHADDR[5] >> 4);
 637              		.loc 1 396 17 view .LVU214
 638 00bc 471D     		adds	r7, r0, #5
 399:ioLIB/dhcp.c  **** 
 639              		.loc 1 399 18 view .LVU215
 640 00be 0496     		str	r6, [sp, #16]
 641              		.loc 1 408 17 view .LVU216
 642 00c0 0B95     		str	r5, [sp, #44]
 406:ioLIB/dhcp.c  **** 	pDHCPMSG->OPT[k++] = dhcpT1value;
 643              		.loc 1 406 17 view .LVU217
 644 00c2 00F10D06 		add	r6, r0, #13
 645              		.loc 1 408 17 view .LVU218
 646 00c6 00F10F05 		add	r5, r0, #15
 409:ioLIB/dhcp.c  **** 	pDHCPMSG->OPT[k++] = endOption;
 647              		.loc 1 409 17 view .LVU219
 648 00ca 1030     		adds	r0, r0, #16
 649              	.LVL34:
 394:ioLIB/dhcp.c  **** 	pDHCPMSG->OPT[k++] = NibbleToHex(DHCP_CHADDR[4] >> 4);
 650              		.loc 1 394 17 view .LVU220
 651 00cc 1FFA8AFA 		uxth	r10, r10
 395:ioLIB/dhcp.c  **** 	pDHCPMSG->OPT[k++] = NibbleToHex(DHCP_CHADDR[4]);
 652              		.loc 1 395 17 view .LVU221
 653 00d0 1FFA89F9 		uxth	r9, r9
 396:ioLIB/dhcp.c  **** 	pDHCPMSG->OPT[k++] = NibbleToHex(DHCP_CHADDR[5] >> 4);
 654              		.loc 1 396 17 view .LVU222
 655 00d4 1FFA88F8 		uxth	r8, r8
 397:ioLIB/dhcp.c  **** 	pDHCPMSG->OPT[k++] = NibbleToHex(DHCP_CHADDR[5]);
 656              		.loc 1 397 17 view .LVU223
 657 00d8 BFB2     		uxth	r7, r7
 407:ioLIB/dhcp.c  **** 	pDHCPMSG->OPT[k++] = dhcpT2value;
 658              		.loc 1 407 17 view .LVU224
 659 00da B6B2     		uxth	r6, r6
 660              		.loc 1 409 17 view .LVU225
 661 00dc ADB2     		uxth	r5, r5
 662 00de 80B2     		uxth	r0, r0
 663              	.LVL35:
ARM GAS  C:\Users\clay0\AppData\Local\Temp\ccgGhwt3.s 			page 22


 664              	.L32:
 393:ioLIB/dhcp.c  **** 	pDHCPMSG->OPT[k++] = NibbleToHex(DHCP_CHADDR[3]);
 665              		.loc 1 393 2 is_stmt 1 view .LVU226
 393:ioLIB/dhcp.c  **** 	pDHCPMSG->OPT[k++] = NibbleToHex(DHCP_CHADDR[3]);
 666              		.loc 1 393 23 is_stmt 0 view .LVU227
 667 00e0 4FEA1C1B 		lsr	fp, ip, #4
 668              	.LVL36:
 669              	.LBB48:
 670              	.LBI48:
 410:ioLIB/dhcp.c  **** 
 411:ioLIB/dhcp.c  **** 	for (i = k; i < OPT_SIZE; i++) pDHCPMSG->OPT[i] = 0;
 412:ioLIB/dhcp.c  **** 
 413:ioLIB/dhcp.c  **** 	// send broadcasting packet
 414:ioLIB/dhcp.c  **** 	ip[0] = 255;
 415:ioLIB/dhcp.c  **** 	ip[1] = 255;
 416:ioLIB/dhcp.c  **** 	ip[2] = 255;
 417:ioLIB/dhcp.c  **** 	ip[3] = 255;
 418:ioLIB/dhcp.c  **** 
 419:ioLIB/dhcp.c  **** #ifdef _DHCP_DEBUG_
 420:ioLIB/dhcp.c  **** 	printf("> Send DHCP_DISCOVER\r\n");
 421:ioLIB/dhcp.c  **** #endif
 422:ioLIB/dhcp.c  **** 
 423:ioLIB/dhcp.c  **** 	sendto(DHCP_SOCKET, (uint8_t *)pDHCPMSG, RIP_MSG_SIZE, ip, DHCP_SERVER_PORT);
 424:ioLIB/dhcp.c  **** }
 425:ioLIB/dhcp.c  **** 
 426:ioLIB/dhcp.c  **** /* SEND DHCP REQUEST */
 427:ioLIB/dhcp.c  **** void send_DHCP_REQUEST(void)
 428:ioLIB/dhcp.c  **** {
 429:ioLIB/dhcp.c  **** 	int i;
 430:ioLIB/dhcp.c  **** 	uint8_t ip[4];
 431:ioLIB/dhcp.c  **** 	uint16_t k = 0;
 432:ioLIB/dhcp.c  **** 
 433:ioLIB/dhcp.c  ****    makeDHCPMSG();
 434:ioLIB/dhcp.c  **** 
 435:ioLIB/dhcp.c  ****    if(dhcp_state == STATE_DHCP_LEASED || dhcp_state == STATE_DHCP_REREQUEST)
 436:ioLIB/dhcp.c  ****    {
 437:ioLIB/dhcp.c  ****    	*((uint8_t*)(&pDHCPMSG->flags))   = ((DHCP_FLAGSUNICAST & 0xFF00)>> 8);
 438:ioLIB/dhcp.c  ****    	*((uint8_t*)(&pDHCPMSG->flags)+1) = (DHCP_FLAGSUNICAST & 0x00FF);
 439:ioLIB/dhcp.c  ****    	pDHCPMSG->ciaddr[0] = DHCP_allocated_ip[0];
 440:ioLIB/dhcp.c  ****    	pDHCPMSG->ciaddr[1] = DHCP_allocated_ip[1];
 441:ioLIB/dhcp.c  ****    	pDHCPMSG->ciaddr[2] = DHCP_allocated_ip[2];
 442:ioLIB/dhcp.c  ****    	pDHCPMSG->ciaddr[3] = DHCP_allocated_ip[3];
 443:ioLIB/dhcp.c  ****    	ip[0] = DHCP_SIP[0];
 444:ioLIB/dhcp.c  ****    	ip[1] = DHCP_SIP[1];
 445:ioLIB/dhcp.c  ****    	ip[2] = DHCP_SIP[2];
 446:ioLIB/dhcp.c  ****    	ip[3] = DHCP_SIP[3];   	   	   	
 447:ioLIB/dhcp.c  ****    }
 448:ioLIB/dhcp.c  ****    else
 449:ioLIB/dhcp.c  ****    {
 450:ioLIB/dhcp.c  ****    	ip[0] = 255;
 451:ioLIB/dhcp.c  ****    	ip[1] = 255;
 452:ioLIB/dhcp.c  ****    	ip[2] = 255;
 453:ioLIB/dhcp.c  ****    	ip[3] = 255;   	   	   	
 454:ioLIB/dhcp.c  ****    }
 455:ioLIB/dhcp.c  ****    
 456:ioLIB/dhcp.c  ****    k = 4;      // because MAGIC_COOKIE already made by makeDHCPMSG()
 457:ioLIB/dhcp.c  **** 	
ARM GAS  C:\Users\clay0\AppData\Local\Temp\ccgGhwt3.s 			page 23


 458:ioLIB/dhcp.c  **** 	// Option Request Param.
 459:ioLIB/dhcp.c  **** 	pDHCPMSG->OPT[k++] = dhcpMessageType;
 460:ioLIB/dhcp.c  **** 	pDHCPMSG->OPT[k++] = 0x01;
 461:ioLIB/dhcp.c  **** 	pDHCPMSG->OPT[k++] = DHCP_REQUEST;
 462:ioLIB/dhcp.c  **** 
 463:ioLIB/dhcp.c  **** 	pDHCPMSG->OPT[k++] = dhcpClientIdentifier;
 464:ioLIB/dhcp.c  **** 	pDHCPMSG->OPT[k++] = 0x07;
 465:ioLIB/dhcp.c  **** 	pDHCPMSG->OPT[k++] = 0x01;
 466:ioLIB/dhcp.c  **** 	pDHCPMSG->OPT[k++] = DHCP_CHADDR[0];
 467:ioLIB/dhcp.c  **** 	pDHCPMSG->OPT[k++] = DHCP_CHADDR[1];
 468:ioLIB/dhcp.c  **** 	pDHCPMSG->OPT[k++] = DHCP_CHADDR[2];
 469:ioLIB/dhcp.c  **** 	pDHCPMSG->OPT[k++] = DHCP_CHADDR[3];
 470:ioLIB/dhcp.c  **** 	pDHCPMSG->OPT[k++] = DHCP_CHADDR[4];
 471:ioLIB/dhcp.c  **** 	pDHCPMSG->OPT[k++] = DHCP_CHADDR[5];
 472:ioLIB/dhcp.c  **** 
 473:ioLIB/dhcp.c  ****    if(ip[3] == 255)  // if(dchp_state == STATE_DHCP_LEASED || dchp_state == DHCP_REREQUEST_STATE)
 474:ioLIB/dhcp.c  ****    {
 475:ioLIB/dhcp.c  **** 		pDHCPMSG->OPT[k++] = dhcpRequestedIPaddr;
 476:ioLIB/dhcp.c  **** 		pDHCPMSG->OPT[k++] = 0x04;
 477:ioLIB/dhcp.c  **** 		pDHCPMSG->OPT[k++] = DHCP_allocated_ip[0];
 478:ioLIB/dhcp.c  **** 		pDHCPMSG->OPT[k++] = DHCP_allocated_ip[1];
 479:ioLIB/dhcp.c  **** 		pDHCPMSG->OPT[k++] = DHCP_allocated_ip[2];
 480:ioLIB/dhcp.c  **** 		pDHCPMSG->OPT[k++] = DHCP_allocated_ip[3];
 481:ioLIB/dhcp.c  **** 	
 482:ioLIB/dhcp.c  **** 		pDHCPMSG->OPT[k++] = dhcpServerIdentifier;
 483:ioLIB/dhcp.c  **** 		pDHCPMSG->OPT[k++] = 0x04;
 484:ioLIB/dhcp.c  **** 		pDHCPMSG->OPT[k++] = DHCP_SIP[0];
 485:ioLIB/dhcp.c  **** 		pDHCPMSG->OPT[k++] = DHCP_SIP[1];
 486:ioLIB/dhcp.c  **** 		pDHCPMSG->OPT[k++] = DHCP_SIP[2];
 487:ioLIB/dhcp.c  **** 		pDHCPMSG->OPT[k++] = DHCP_SIP[3];
 488:ioLIB/dhcp.c  **** 	}
 489:ioLIB/dhcp.c  **** 
 490:ioLIB/dhcp.c  **** 	// host name
 491:ioLIB/dhcp.c  **** 	pDHCPMSG->OPT[k++] = hostName;
 492:ioLIB/dhcp.c  **** 	pDHCPMSG->OPT[k++] = 0; // length of hostname
 493:ioLIB/dhcp.c  **** 	for(i = 0 ; HOST_NAME[i] != 0; i++)
 494:ioLIB/dhcp.c  ****    	pDHCPMSG->OPT[k++] = HOST_NAME[i];
 495:ioLIB/dhcp.c  **** 	pDHCPMSG->OPT[k++] = NibbleToHex(DHCP_CHADDR[3] >> 4); 
 496:ioLIB/dhcp.c  **** 	pDHCPMSG->OPT[k++] = NibbleToHex(DHCP_CHADDR[3]);
 497:ioLIB/dhcp.c  **** 	pDHCPMSG->OPT[k++] = NibbleToHex(DHCP_CHADDR[4] >> 4); 
 498:ioLIB/dhcp.c  **** 	pDHCPMSG->OPT[k++] = NibbleToHex(DHCP_CHADDR[4]);
 499:ioLIB/dhcp.c  **** 	pDHCPMSG->OPT[k++] = NibbleToHex(DHCP_CHADDR[5] >> 4); 
 500:ioLIB/dhcp.c  **** 	pDHCPMSG->OPT[k++] = NibbleToHex(DHCP_CHADDR[5]);
 501:ioLIB/dhcp.c  **** 	pDHCPMSG->OPT[k - (i+6+1)] = i+6; // length of hostname
 502:ioLIB/dhcp.c  **** 	
 503:ioLIB/dhcp.c  **** 	pDHCPMSG->OPT[k++] = dhcpParamRequest;
 504:ioLIB/dhcp.c  **** 	pDHCPMSG->OPT[k++] = 0x08;
 505:ioLIB/dhcp.c  **** 	pDHCPMSG->OPT[k++] = subnetMask;
 506:ioLIB/dhcp.c  **** 	pDHCPMSG->OPT[k++] = routersOnSubnet;
 507:ioLIB/dhcp.c  **** 	pDHCPMSG->OPT[k++] = dns;
 508:ioLIB/dhcp.c  **** 	pDHCPMSG->OPT[k++] = domainName;
 509:ioLIB/dhcp.c  **** 	pDHCPMSG->OPT[k++] = dhcpT1value;
 510:ioLIB/dhcp.c  **** 	pDHCPMSG->OPT[k++] = dhcpT2value;
 511:ioLIB/dhcp.c  **** 	pDHCPMSG->OPT[k++] = performRouterDiscovery;
 512:ioLIB/dhcp.c  **** 	pDHCPMSG->OPT[k++] = staticRoute;
 513:ioLIB/dhcp.c  **** 	pDHCPMSG->OPT[k++] = endOption;
 514:ioLIB/dhcp.c  **** 
ARM GAS  C:\Users\clay0\AppData\Local\Temp\ccgGhwt3.s 			page 24


 515:ioLIB/dhcp.c  **** 	for (i = k; i < OPT_SIZE; i++) pDHCPMSG->OPT[i] = 0;
 516:ioLIB/dhcp.c  **** 
 517:ioLIB/dhcp.c  **** #ifdef _DHCP_DEBUG_
 518:ioLIB/dhcp.c  **** 	printf("> Send DHCP_REQUEST\r\n");
 519:ioLIB/dhcp.c  **** #endif
 520:ioLIB/dhcp.c  **** 	
 521:ioLIB/dhcp.c  **** 	sendto(DHCP_SOCKET, (uint8_t *)pDHCPMSG, RIP_MSG_SIZE, ip, DHCP_SERVER_PORT);
 522:ioLIB/dhcp.c  **** 
 523:ioLIB/dhcp.c  **** }
 524:ioLIB/dhcp.c  **** 
 525:ioLIB/dhcp.c  **** /* SEND DHCP DHCPDECLINE */
 526:ioLIB/dhcp.c  **** void send_DHCP_DECLINE(void)
 527:ioLIB/dhcp.c  **** {
 528:ioLIB/dhcp.c  **** 	int i;
 529:ioLIB/dhcp.c  **** 	uint8_t ip[4];
 530:ioLIB/dhcp.c  **** 	uint16_t k = 0;
 531:ioLIB/dhcp.c  **** 	
 532:ioLIB/dhcp.c  **** 	makeDHCPMSG();
 533:ioLIB/dhcp.c  **** 
 534:ioLIB/dhcp.c  ****    k = 4;      // because MAGIC_COOKIE already made by makeDHCPMSG()
 535:ioLIB/dhcp.c  ****    
 536:ioLIB/dhcp.c  **** 	*((uint8_t*)(&pDHCPMSG->flags))   = ((DHCP_FLAGSUNICAST & 0xFF00)>> 8);
 537:ioLIB/dhcp.c  **** 	*((uint8_t*)(&pDHCPMSG->flags)+1) = (DHCP_FLAGSUNICAST & 0x00FF);
 538:ioLIB/dhcp.c  **** 
 539:ioLIB/dhcp.c  **** 	// Option Request Param.
 540:ioLIB/dhcp.c  **** 	pDHCPMSG->OPT[k++] = dhcpMessageType;
 541:ioLIB/dhcp.c  **** 	pDHCPMSG->OPT[k++] = 0x01;
 542:ioLIB/dhcp.c  **** 	pDHCPMSG->OPT[k++] = DHCP_DECLINE;
 543:ioLIB/dhcp.c  **** 
 544:ioLIB/dhcp.c  **** 	pDHCPMSG->OPT[k++] = dhcpClientIdentifier;
 545:ioLIB/dhcp.c  **** 	pDHCPMSG->OPT[k++] = 0x07;
 546:ioLIB/dhcp.c  **** 	pDHCPMSG->OPT[k++] = 0x01;
 547:ioLIB/dhcp.c  **** 	pDHCPMSG->OPT[k++] = DHCP_CHADDR[0];
 548:ioLIB/dhcp.c  **** 	pDHCPMSG->OPT[k++] = DHCP_CHADDR[1];
 549:ioLIB/dhcp.c  **** 	pDHCPMSG->OPT[k++] = DHCP_CHADDR[2];
 550:ioLIB/dhcp.c  **** 	pDHCPMSG->OPT[k++] = DHCP_CHADDR[3];
 551:ioLIB/dhcp.c  **** 	pDHCPMSG->OPT[k++] = DHCP_CHADDR[4];
 552:ioLIB/dhcp.c  **** 	pDHCPMSG->OPT[k++] = DHCP_CHADDR[5];
 553:ioLIB/dhcp.c  **** 
 554:ioLIB/dhcp.c  **** 	pDHCPMSG->OPT[k++] = dhcpRequestedIPaddr;
 555:ioLIB/dhcp.c  **** 	pDHCPMSG->OPT[k++] = 0x04;
 556:ioLIB/dhcp.c  **** 	pDHCPMSG->OPT[k++] = DHCP_allocated_ip[0];
 557:ioLIB/dhcp.c  **** 	pDHCPMSG->OPT[k++] = DHCP_allocated_ip[1];
 558:ioLIB/dhcp.c  **** 	pDHCPMSG->OPT[k++] = DHCP_allocated_ip[2];
 559:ioLIB/dhcp.c  **** 	pDHCPMSG->OPT[k++] = DHCP_allocated_ip[3];
 560:ioLIB/dhcp.c  **** 
 561:ioLIB/dhcp.c  **** 	pDHCPMSG->OPT[k++] = dhcpServerIdentifier;
 562:ioLIB/dhcp.c  **** 	pDHCPMSG->OPT[k++] = 0x04;
 563:ioLIB/dhcp.c  **** 	pDHCPMSG->OPT[k++] = DHCP_SIP[0];
 564:ioLIB/dhcp.c  **** 	pDHCPMSG->OPT[k++] = DHCP_SIP[1];
 565:ioLIB/dhcp.c  **** 	pDHCPMSG->OPT[k++] = DHCP_SIP[2];
 566:ioLIB/dhcp.c  **** 	pDHCPMSG->OPT[k++] = DHCP_SIP[3];
 567:ioLIB/dhcp.c  **** 
 568:ioLIB/dhcp.c  **** 	pDHCPMSG->OPT[k++] = endOption;
 569:ioLIB/dhcp.c  **** 
 570:ioLIB/dhcp.c  **** 	for (i = k; i < OPT_SIZE; i++) pDHCPMSG->OPT[i] = 0;
 571:ioLIB/dhcp.c  **** 
ARM GAS  C:\Users\clay0\AppData\Local\Temp\ccgGhwt3.s 			page 25


 572:ioLIB/dhcp.c  **** 	//send broadcasting packet
 573:ioLIB/dhcp.c  **** 	ip[0] = 0xFF;
 574:ioLIB/dhcp.c  **** 	ip[1] = 0xFF;
 575:ioLIB/dhcp.c  **** 	ip[2] = 0xFF;
 576:ioLIB/dhcp.c  **** 	ip[3] = 0xFF;
 577:ioLIB/dhcp.c  **** 
 578:ioLIB/dhcp.c  **** #ifdef _DHCP_DEBUG_
 579:ioLIB/dhcp.c  **** 	printf("\r\n> Send DHCP_DECLINE\r\n");
 580:ioLIB/dhcp.c  **** #endif
 581:ioLIB/dhcp.c  **** 
 582:ioLIB/dhcp.c  **** 	sendto(DHCP_SOCKET, (uint8_t *)pDHCPMSG, RIP_MSG_SIZE, ip, DHCP_SERVER_PORT);
 583:ioLIB/dhcp.c  **** }
 584:ioLIB/dhcp.c  **** 
 585:ioLIB/dhcp.c  **** /* PARSE REPLY pDHCPMSG */
 586:ioLIB/dhcp.c  **** int8_t parseDHCPMSG(void)
 587:ioLIB/dhcp.c  **** {
 588:ioLIB/dhcp.c  **** 	uint8_t svr_addr[6];
 589:ioLIB/dhcp.c  **** 	uint16_t  svr_port;
 590:ioLIB/dhcp.c  **** 	uint16_t len;
 591:ioLIB/dhcp.c  **** 
 592:ioLIB/dhcp.c  **** 	uint8_t * p;
 593:ioLIB/dhcp.c  **** 	uint8_t * e;
 594:ioLIB/dhcp.c  **** 	uint8_t type = 0;
 595:ioLIB/dhcp.c  **** 	uint8_t opt_len;
 596:ioLIB/dhcp.c  ****    
 597:ioLIB/dhcp.c  ****    if((len = getSn_RX_RSR(DHCP_SOCKET)) > 0)
 598:ioLIB/dhcp.c  ****    {
 599:ioLIB/dhcp.c  ****    	len = recvfrom(DHCP_SOCKET, (uint8_t *)pDHCPMSG, len, svr_addr, &svr_port);
 600:ioLIB/dhcp.c  ****    #ifdef _DHCP_DEBUG_   
 601:ioLIB/dhcp.c  ****       printf("DHCP message : %d.%d.%d.%d(%d) %d received. \r\n",svr_addr[0],svr_addr[1],svr_addr[2]
 602:ioLIB/dhcp.c  ****    #endif   
 603:ioLIB/dhcp.c  ****    }
 604:ioLIB/dhcp.c  ****    else return 0;
 605:ioLIB/dhcp.c  **** 	if (svr_port == DHCP_SERVER_PORT) {
 606:ioLIB/dhcp.c  ****       // compare mac address
 607:ioLIB/dhcp.c  **** 		if ( (pDHCPMSG->chaddr[0] != DHCP_CHADDR[0]) || (pDHCPMSG->chaddr[1] != DHCP_CHADDR[1]) ||
 608:ioLIB/dhcp.c  **** 		     (pDHCPMSG->chaddr[2] != DHCP_CHADDR[2]) || (pDHCPMSG->chaddr[3] != DHCP_CHADDR[3]) ||
 609:ioLIB/dhcp.c  **** 		     (pDHCPMSG->chaddr[4] != DHCP_CHADDR[4]) || (pDHCPMSG->chaddr[5] != DHCP_CHADDR[5])   )
 610:ioLIB/dhcp.c  **** 		{
 611:ioLIB/dhcp.c  **** #ifdef _DHCP_DEBUG_
 612:ioLIB/dhcp.c  ****             printf("No My DHCP Message. This message is ignored.\r\n");
 613:ioLIB/dhcp.c  **** #endif
 614:ioLIB/dhcp.c  ****          return 0;
 615:ioLIB/dhcp.c  **** 		}
 616:ioLIB/dhcp.c  ****         //compare DHCP server ip address
 617:ioLIB/dhcp.c  ****         if((DHCP_SIP[0]!=0) || (DHCP_SIP[1]!=0) || (DHCP_SIP[2]!=0) || (DHCP_SIP[3]!=0)){
 618:ioLIB/dhcp.c  ****             if( ((svr_addr[0]!=DHCP_SIP[0])|| (svr_addr[1]!=DHCP_SIP[1])|| (svr_addr[2]!=DHCP_SIP[2
 619:ioLIB/dhcp.c  ****                 ((svr_addr[0]!=DHCP_REAL_SIP[0])|| (svr_addr[1]!=DHCP_REAL_SIP[1])|| (svr_addr[2]!=
 620:ioLIB/dhcp.c  ****             {
 621:ioLIB/dhcp.c  **** #ifdef _DHCP_DEBUG_
 622:ioLIB/dhcp.c  ****                 printf("Another DHCP sever send a response message. This is ignored.\r\n");
 623:ioLIB/dhcp.c  **** #endif
 624:ioLIB/dhcp.c  ****                 return 0;
 625:ioLIB/dhcp.c  ****             }
 626:ioLIB/dhcp.c  ****         }
 627:ioLIB/dhcp.c  **** 		p = (uint8_t *)(&pDHCPMSG->op);
 628:ioLIB/dhcp.c  **** 		p = p + 240;      // 240 = sizeof(RIP_MSG) + MAGIC_COOKIE size in RIP_MSG.opt - sizeof(RIP_MSG.op
ARM GAS  C:\Users\clay0\AppData\Local\Temp\ccgGhwt3.s 			page 26


 629:ioLIB/dhcp.c  **** 		e = p + (len - 240);
 630:ioLIB/dhcp.c  **** 
 631:ioLIB/dhcp.c  **** 		while ( p < e ) {
 632:ioLIB/dhcp.c  **** 
 633:ioLIB/dhcp.c  **** 			switch ( *p ) {
 634:ioLIB/dhcp.c  **** 
 635:ioLIB/dhcp.c  ****    			case endOption :
 636:ioLIB/dhcp.c  ****    			   p = e;   // for break while(p < e)
 637:ioLIB/dhcp.c  ****    				break;
 638:ioLIB/dhcp.c  ****             case padOption :
 639:ioLIB/dhcp.c  ****    				p++;
 640:ioLIB/dhcp.c  ****    				break;
 641:ioLIB/dhcp.c  ****    			case dhcpMessageType :
 642:ioLIB/dhcp.c  ****    				p++;
 643:ioLIB/dhcp.c  ****    				p++;
 644:ioLIB/dhcp.c  ****    				type = *p++;
 645:ioLIB/dhcp.c  ****    				break;
 646:ioLIB/dhcp.c  ****    			case subnetMask :
 647:ioLIB/dhcp.c  ****    				p++;
 648:ioLIB/dhcp.c  ****    				p++;
 649:ioLIB/dhcp.c  ****    				DHCP_allocated_sn[0] = *p++;
 650:ioLIB/dhcp.c  ****    				DHCP_allocated_sn[1] = *p++;
 651:ioLIB/dhcp.c  ****    				DHCP_allocated_sn[2] = *p++;
 652:ioLIB/dhcp.c  ****    				DHCP_allocated_sn[3] = *p++;
 653:ioLIB/dhcp.c  ****    				break;
 654:ioLIB/dhcp.c  ****    			case routersOnSubnet :
 655:ioLIB/dhcp.c  ****    				p++;
 656:ioLIB/dhcp.c  ****    				opt_len = *p++;       
 657:ioLIB/dhcp.c  ****    				DHCP_allocated_gw[0] = *p++;
 658:ioLIB/dhcp.c  ****    				DHCP_allocated_gw[1] = *p++;
 659:ioLIB/dhcp.c  ****    				DHCP_allocated_gw[2] = *p++;
 660:ioLIB/dhcp.c  ****    				DHCP_allocated_gw[3] = *p++;
 661:ioLIB/dhcp.c  ****    				p = p + (opt_len - 4);
 662:ioLIB/dhcp.c  ****    				break;
 663:ioLIB/dhcp.c  ****    			case dns :
 664:ioLIB/dhcp.c  ****    				p++;                  
 665:ioLIB/dhcp.c  ****    				opt_len = *p++;       
 666:ioLIB/dhcp.c  ****    				DHCP_allocated_dns[0] = *p++;
 667:ioLIB/dhcp.c  ****    				DHCP_allocated_dns[1] = *p++;
 668:ioLIB/dhcp.c  ****    				DHCP_allocated_dns[2] = *p++;
 669:ioLIB/dhcp.c  ****    				DHCP_allocated_dns[3] = *p++;
 670:ioLIB/dhcp.c  ****    				p = p + (opt_len - 4);
 671:ioLIB/dhcp.c  ****    				break;
 672:ioLIB/dhcp.c  ****    			case dhcpIPaddrLeaseTime :
 673:ioLIB/dhcp.c  ****    				p++;
 674:ioLIB/dhcp.c  ****    				opt_len = *p++;
 675:ioLIB/dhcp.c  ****    				dhcp_lease_time  = *p++;
 676:ioLIB/dhcp.c  ****    				dhcp_lease_time  = (dhcp_lease_time << 8) + *p++;
 677:ioLIB/dhcp.c  ****    				dhcp_lease_time  = (dhcp_lease_time << 8) + *p++;
 678:ioLIB/dhcp.c  ****    				dhcp_lease_time  = (dhcp_lease_time << 8) + *p++;
 679:ioLIB/dhcp.c  ****             #ifdef _DHCP_DEBUG_  
 680:ioLIB/dhcp.c  ****                dhcp_lease_time = 10;
 681:ioLIB/dhcp.c  ****  				#endif
 682:ioLIB/dhcp.c  ****    				break;
 683:ioLIB/dhcp.c  ****    			case dhcpServerIdentifier :
 684:ioLIB/dhcp.c  ****    				p++;
 685:ioLIB/dhcp.c  ****    				opt_len = *p++;
ARM GAS  C:\Users\clay0\AppData\Local\Temp\ccgGhwt3.s 			page 27


 686:ioLIB/dhcp.c  ****    				DHCP_SIP[0] = *p++;
 687:ioLIB/dhcp.c  ****    				DHCP_SIP[1] = *p++;
 688:ioLIB/dhcp.c  ****    				DHCP_SIP[2] = *p++;
 689:ioLIB/dhcp.c  ****    				DHCP_SIP[3] = *p++;
 690:ioLIB/dhcp.c  ****                 DHCP_REAL_SIP[0]=svr_addr[0];
 691:ioLIB/dhcp.c  ****                 DHCP_REAL_SIP[1]=svr_addr[1];
 692:ioLIB/dhcp.c  ****                 DHCP_REAL_SIP[2]=svr_addr[2];
 693:ioLIB/dhcp.c  ****                 DHCP_REAL_SIP[3]=svr_addr[3];
 694:ioLIB/dhcp.c  ****    				break;
 695:ioLIB/dhcp.c  ****    			default :
 696:ioLIB/dhcp.c  ****    				p++;
 697:ioLIB/dhcp.c  ****    				opt_len = *p++;
 698:ioLIB/dhcp.c  ****    				p += opt_len;
 699:ioLIB/dhcp.c  ****    				break;
 700:ioLIB/dhcp.c  **** 			} // switch
 701:ioLIB/dhcp.c  **** 		} // while
 702:ioLIB/dhcp.c  **** 	} // if
 703:ioLIB/dhcp.c  **** 	return	type;
 704:ioLIB/dhcp.c  **** }
 705:ioLIB/dhcp.c  **** 
 706:ioLIB/dhcp.c  **** uint8_t DHCP_run(void)
 707:ioLIB/dhcp.c  **** {
 708:ioLIB/dhcp.c  **** 	uint8_t  type;
 709:ioLIB/dhcp.c  **** 	uint8_t  ret;
 710:ioLIB/dhcp.c  **** 
 711:ioLIB/dhcp.c  **** 	if(dhcp_state == STATE_DHCP_STOP) return DHCP_STOPPED;
 712:ioLIB/dhcp.c  **** 
 713:ioLIB/dhcp.c  **** 	if(getSn_SR(DHCP_SOCKET) != SOCK_UDP)
 714:ioLIB/dhcp.c  **** 	   socket(DHCP_SOCKET, Sn_MR_UDP, DHCP_CLIENT_PORT, 0x00);
 715:ioLIB/dhcp.c  **** 
 716:ioLIB/dhcp.c  **** 	ret = DHCP_RUNNING;
 717:ioLIB/dhcp.c  **** 	type = parseDHCPMSG();
 718:ioLIB/dhcp.c  **** 
 719:ioLIB/dhcp.c  **** 	switch ( dhcp_state ) {
 720:ioLIB/dhcp.c  **** 	   case STATE_DHCP_INIT     :
 721:ioLIB/dhcp.c  ****          DHCP_allocated_ip[0] = 0;
 722:ioLIB/dhcp.c  ****          DHCP_allocated_ip[1] = 0;
 723:ioLIB/dhcp.c  ****          DHCP_allocated_ip[2] = 0;
 724:ioLIB/dhcp.c  ****          DHCP_allocated_ip[3] = 0;
 725:ioLIB/dhcp.c  ****    		send_DHCP_DISCOVER();
 726:ioLIB/dhcp.c  ****    		dhcp_state = STATE_DHCP_DISCOVER;
 727:ioLIB/dhcp.c  ****    		break;
 728:ioLIB/dhcp.c  **** 		case STATE_DHCP_DISCOVER :
 729:ioLIB/dhcp.c  **** 			if (type == DHCP_OFFER){
 730:ioLIB/dhcp.c  **** #ifdef _DHCP_DEBUG_
 731:ioLIB/dhcp.c  **** 				printf("> Receive DHCP_OFFER\r\n");
 732:ioLIB/dhcp.c  **** #endif
 733:ioLIB/dhcp.c  ****             DHCP_allocated_ip[0] = pDHCPMSG->yiaddr[0];
 734:ioLIB/dhcp.c  ****             DHCP_allocated_ip[1] = pDHCPMSG->yiaddr[1];
 735:ioLIB/dhcp.c  ****             DHCP_allocated_ip[2] = pDHCPMSG->yiaddr[2];
 736:ioLIB/dhcp.c  ****             DHCP_allocated_ip[3] = pDHCPMSG->yiaddr[3];
 737:ioLIB/dhcp.c  **** 
 738:ioLIB/dhcp.c  **** 				send_DHCP_REQUEST();
 739:ioLIB/dhcp.c  **** 				dhcp_state = STATE_DHCP_REQUEST;
 740:ioLIB/dhcp.c  **** 			} else ret = check_DHCP_timeout();
 741:ioLIB/dhcp.c  ****          break;
 742:ioLIB/dhcp.c  **** 
ARM GAS  C:\Users\clay0\AppData\Local\Temp\ccgGhwt3.s 			page 28


 743:ioLIB/dhcp.c  **** 		case STATE_DHCP_REQUEST :
 744:ioLIB/dhcp.c  **** 			if (type == DHCP_ACK) {
 745:ioLIB/dhcp.c  **** 
 746:ioLIB/dhcp.c  **** #ifdef _DHCP_DEBUG_
 747:ioLIB/dhcp.c  **** 				printf("> Receive DHCP_ACK\r\n");
 748:ioLIB/dhcp.c  **** #endif
 749:ioLIB/dhcp.c  **** 				if (check_DHCP_leasedIP()) {
 750:ioLIB/dhcp.c  **** 					// Network info assignment from DHCP
 751:ioLIB/dhcp.c  **** 					dhcp_ip_assign();
 752:ioLIB/dhcp.c  **** 					reset_DHCP_timeout();
 753:ioLIB/dhcp.c  **** 
 754:ioLIB/dhcp.c  **** 					dhcp_state = STATE_DHCP_LEASED;
 755:ioLIB/dhcp.c  **** 				} else {
 756:ioLIB/dhcp.c  **** 					// IP address conflict occurred
 757:ioLIB/dhcp.c  **** 					reset_DHCP_timeout();
 758:ioLIB/dhcp.c  **** 					dhcp_ip_conflict();
 759:ioLIB/dhcp.c  **** 				    dhcp_state = STATE_DHCP_INIT;
 760:ioLIB/dhcp.c  **** 				}
 761:ioLIB/dhcp.c  **** 			} else if (type == DHCP_NAK) {
 762:ioLIB/dhcp.c  **** 
 763:ioLIB/dhcp.c  **** #ifdef _DHCP_DEBUG_
 764:ioLIB/dhcp.c  **** 				printf("> Receive DHCP_NACK\r\n");
 765:ioLIB/dhcp.c  **** #endif
 766:ioLIB/dhcp.c  **** 
 767:ioLIB/dhcp.c  **** 				reset_DHCP_timeout();
 768:ioLIB/dhcp.c  **** 
 769:ioLIB/dhcp.c  **** 				dhcp_state = STATE_DHCP_DISCOVER;
 770:ioLIB/dhcp.c  **** 			} else ret = check_DHCP_timeout();
 771:ioLIB/dhcp.c  **** 		break;
 772:ioLIB/dhcp.c  **** 
 773:ioLIB/dhcp.c  **** 		case STATE_DHCP_LEASED :
 774:ioLIB/dhcp.c  **** 		   ret = DHCP_IP_LEASED;
 775:ioLIB/dhcp.c  **** 			if ((dhcp_lease_time != INFINITE_LEASETIME) && ((dhcp_lease_time/2) < dhcp_tick_1s)) {
 776:ioLIB/dhcp.c  **** 				
 777:ioLIB/dhcp.c  **** #ifdef _DHCP_DEBUG_
 778:ioLIB/dhcp.c  ****  				printf("> Maintains the IP address \r\n");
 779:ioLIB/dhcp.c  **** #endif
 780:ioLIB/dhcp.c  **** 
 781:ioLIB/dhcp.c  **** 				type = 0;
 782:ioLIB/dhcp.c  **** 				OLD_allocated_ip[0] = DHCP_allocated_ip[0];
 783:ioLIB/dhcp.c  **** 				OLD_allocated_ip[1] = DHCP_allocated_ip[1];
 784:ioLIB/dhcp.c  **** 				OLD_allocated_ip[2] = DHCP_allocated_ip[2];
 785:ioLIB/dhcp.c  **** 				OLD_allocated_ip[3] = DHCP_allocated_ip[3];
 786:ioLIB/dhcp.c  **** 				
 787:ioLIB/dhcp.c  **** 				DHCP_XID++;
 788:ioLIB/dhcp.c  **** 
 789:ioLIB/dhcp.c  **** 				send_DHCP_REQUEST();
 790:ioLIB/dhcp.c  **** 
 791:ioLIB/dhcp.c  **** 				reset_DHCP_timeout();
 792:ioLIB/dhcp.c  **** 
 793:ioLIB/dhcp.c  **** 				dhcp_state = STATE_DHCP_REREQUEST;
 794:ioLIB/dhcp.c  **** 			}
 795:ioLIB/dhcp.c  **** 		break;
 796:ioLIB/dhcp.c  **** 
 797:ioLIB/dhcp.c  **** 		case STATE_DHCP_REREQUEST :
 798:ioLIB/dhcp.c  **** 		   ret = DHCP_IP_LEASED;
 799:ioLIB/dhcp.c  **** 			if (type == DHCP_ACK) {
ARM GAS  C:\Users\clay0\AppData\Local\Temp\ccgGhwt3.s 			page 29


 800:ioLIB/dhcp.c  **** 				dhcp_retry_count = 0;
 801:ioLIB/dhcp.c  **** 				if (OLD_allocated_ip[0] != DHCP_allocated_ip[0] || 
 802:ioLIB/dhcp.c  **** 				    OLD_allocated_ip[1] != DHCP_allocated_ip[1] ||
 803:ioLIB/dhcp.c  **** 				    OLD_allocated_ip[2] != DHCP_allocated_ip[2] ||
 804:ioLIB/dhcp.c  **** 				    OLD_allocated_ip[3] != DHCP_allocated_ip[3]) 
 805:ioLIB/dhcp.c  **** 				{
 806:ioLIB/dhcp.c  **** 					ret = DHCP_IP_CHANGED;
 807:ioLIB/dhcp.c  **** 					dhcp_ip_update();
 808:ioLIB/dhcp.c  ****                #ifdef _DHCP_DEBUG_
 809:ioLIB/dhcp.c  ****                   printf(">IP changed.\r\n");
 810:ioLIB/dhcp.c  ****                #endif
 811:ioLIB/dhcp.c  **** 					
 812:ioLIB/dhcp.c  **** 				}
 813:ioLIB/dhcp.c  ****          #ifdef _DHCP_DEBUG_
 814:ioLIB/dhcp.c  ****             else printf(">IP is continued.\r\n");
 815:ioLIB/dhcp.c  ****          #endif            				
 816:ioLIB/dhcp.c  **** 				reset_DHCP_timeout();
 817:ioLIB/dhcp.c  **** 				dhcp_state = STATE_DHCP_LEASED;
 818:ioLIB/dhcp.c  **** 			} else if (type == DHCP_NAK) {
 819:ioLIB/dhcp.c  **** 
 820:ioLIB/dhcp.c  **** #ifdef _DHCP_DEBUG_
 821:ioLIB/dhcp.c  **** 				printf("> Receive DHCP_NACK, Failed to maintain ip\r\n");
 822:ioLIB/dhcp.c  **** #endif
 823:ioLIB/dhcp.c  **** 
 824:ioLIB/dhcp.c  **** 				reset_DHCP_timeout();
 825:ioLIB/dhcp.c  **** 
 826:ioLIB/dhcp.c  **** 				dhcp_state = STATE_DHCP_DISCOVER;
 827:ioLIB/dhcp.c  **** 			} else ret = check_DHCP_timeout();
 828:ioLIB/dhcp.c  **** 	   	break;
 829:ioLIB/dhcp.c  **** 		default :
 830:ioLIB/dhcp.c  ****    		break;
 831:ioLIB/dhcp.c  **** 	}
 832:ioLIB/dhcp.c  **** 
 833:ioLIB/dhcp.c  **** 	return ret;
 834:ioLIB/dhcp.c  **** }
 835:ioLIB/dhcp.c  **** 
 836:ioLIB/dhcp.c  **** void    DHCP_stop(void)
 837:ioLIB/dhcp.c  **** {
 838:ioLIB/dhcp.c  ****    close(DHCP_SOCKET);
 839:ioLIB/dhcp.c  ****    dhcp_state = STATE_DHCP_STOP;
 840:ioLIB/dhcp.c  **** }
 841:ioLIB/dhcp.c  **** 
 842:ioLIB/dhcp.c  **** uint8_t check_DHCP_timeout(void)
 843:ioLIB/dhcp.c  **** {
 844:ioLIB/dhcp.c  **** 	uint8_t ret = DHCP_RUNNING;
 845:ioLIB/dhcp.c  **** 	
 846:ioLIB/dhcp.c  **** 	if (dhcp_retry_count < MAX_DHCP_RETRY) {
 847:ioLIB/dhcp.c  **** 		if (dhcp_tick_next < dhcp_tick_1s) {
 848:ioLIB/dhcp.c  **** 
 849:ioLIB/dhcp.c  **** 			switch ( dhcp_state ) {
 850:ioLIB/dhcp.c  **** 				case STATE_DHCP_DISCOVER :
 851:ioLIB/dhcp.c  **** //					printf("<<timeout>> state : STATE_DHCP_DISCOVER\r\n");
 852:ioLIB/dhcp.c  **** 					send_DHCP_DISCOVER();
 853:ioLIB/dhcp.c  **** 				break;
 854:ioLIB/dhcp.c  **** 		
 855:ioLIB/dhcp.c  **** 				case STATE_DHCP_REQUEST :
 856:ioLIB/dhcp.c  **** //					printf("<<timeout>> state : STATE_DHCP_REQUEST\r\n");
ARM GAS  C:\Users\clay0\AppData\Local\Temp\ccgGhwt3.s 			page 30


 857:ioLIB/dhcp.c  **** 
 858:ioLIB/dhcp.c  **** 					send_DHCP_REQUEST();
 859:ioLIB/dhcp.c  **** 				break;
 860:ioLIB/dhcp.c  **** 
 861:ioLIB/dhcp.c  **** 				case STATE_DHCP_REREQUEST :
 862:ioLIB/dhcp.c  **** //					printf("<<timeout>> state : STATE_DHCP_REREQUEST\r\n");
 863:ioLIB/dhcp.c  **** 					
 864:ioLIB/dhcp.c  **** 					send_DHCP_REQUEST();
 865:ioLIB/dhcp.c  **** 				break;
 866:ioLIB/dhcp.c  **** 		
 867:ioLIB/dhcp.c  **** 				default :
 868:ioLIB/dhcp.c  **** 				break;
 869:ioLIB/dhcp.c  **** 			}
 870:ioLIB/dhcp.c  **** 
 871:ioLIB/dhcp.c  **** 			dhcp_tick_1s = 0;
 872:ioLIB/dhcp.c  **** 			dhcp_tick_next = dhcp_tick_1s + DHCP_WAIT_TIME;
 873:ioLIB/dhcp.c  **** 			dhcp_retry_count++;
 874:ioLIB/dhcp.c  **** 		}
 875:ioLIB/dhcp.c  **** 	} else { // timeout occurred
 876:ioLIB/dhcp.c  **** 
 877:ioLIB/dhcp.c  **** 		switch(dhcp_state) {
 878:ioLIB/dhcp.c  **** 			case STATE_DHCP_DISCOVER:
 879:ioLIB/dhcp.c  **** 				dhcp_state = STATE_DHCP_INIT;
 880:ioLIB/dhcp.c  **** 				ret = DHCP_FAILED;
 881:ioLIB/dhcp.c  **** 				break;
 882:ioLIB/dhcp.c  **** 			case STATE_DHCP_REQUEST:
 883:ioLIB/dhcp.c  **** 			case STATE_DHCP_REREQUEST:
 884:ioLIB/dhcp.c  **** 				send_DHCP_DISCOVER();
 885:ioLIB/dhcp.c  **** 				dhcp_state = STATE_DHCP_DISCOVER;
 886:ioLIB/dhcp.c  **** 				break;
 887:ioLIB/dhcp.c  **** 			default :
 888:ioLIB/dhcp.c  **** 				break;
 889:ioLIB/dhcp.c  **** 		}
 890:ioLIB/dhcp.c  **** 		reset_DHCP_timeout();
 891:ioLIB/dhcp.c  **** 	}
 892:ioLIB/dhcp.c  **** 	return ret;
 893:ioLIB/dhcp.c  **** }
 894:ioLIB/dhcp.c  **** 
 895:ioLIB/dhcp.c  **** int8_t check_DHCP_leasedIP(void)
 896:ioLIB/dhcp.c  **** {
 897:ioLIB/dhcp.c  **** 	uint8_t tmp;
 898:ioLIB/dhcp.c  **** 	int32_t ret;
 899:ioLIB/dhcp.c  **** 
 900:ioLIB/dhcp.c  **** 	//WIZchip RCR value changed for ARP Timeout count control
 901:ioLIB/dhcp.c  **** 	tmp = getRCR();
 902:ioLIB/dhcp.c  **** 	setRCR(0x03);
 903:ioLIB/dhcp.c  **** 
 904:ioLIB/dhcp.c  **** 	// IP conflict detection : ARP request - ARP reply
 905:ioLIB/dhcp.c  **** 	// Broadcasting ARP Request for check the IP conflict using UDP sendto() function
 906:ioLIB/dhcp.c  **** 	ret = sendto(DHCP_SOCKET, (uint8_t *)"CHECK_IP_CONFLICT", 17, DHCP_allocated_ip, 5000);
 907:ioLIB/dhcp.c  **** 
 908:ioLIB/dhcp.c  **** 	// RCR value restore
 909:ioLIB/dhcp.c  **** 	setRCR(tmp);
 910:ioLIB/dhcp.c  **** 
 911:ioLIB/dhcp.c  **** 	if(ret == SOCKERR_TIMEOUT) {
 912:ioLIB/dhcp.c  **** 		// UDP send Timeout occurred : allocated IP address is unique, DHCP Success
 913:ioLIB/dhcp.c  **** 
ARM GAS  C:\Users\clay0\AppData\Local\Temp\ccgGhwt3.s 			page 31


 914:ioLIB/dhcp.c  **** #ifdef _DHCP_DEBUG_
 915:ioLIB/dhcp.c  **** 		printf("\r\n> Check leased IP - OK\r\n");
 916:ioLIB/dhcp.c  **** #endif
 917:ioLIB/dhcp.c  **** 
 918:ioLIB/dhcp.c  **** 		return 1;
 919:ioLIB/dhcp.c  **** 	} else {
 920:ioLIB/dhcp.c  **** 		// Received ARP reply or etc : IP address conflict occur, DHCP Failed
 921:ioLIB/dhcp.c  **** 		send_DHCP_DECLINE();
 922:ioLIB/dhcp.c  **** 
 923:ioLIB/dhcp.c  **** 		ret = dhcp_tick_1s;
 924:ioLIB/dhcp.c  **** 		while((dhcp_tick_1s - ret) < 2) ;   // wait for 1s over; wait to complete to send DECLINE message
 925:ioLIB/dhcp.c  **** 
 926:ioLIB/dhcp.c  **** 		return 0;
 927:ioLIB/dhcp.c  **** 	}
 928:ioLIB/dhcp.c  **** }	
 929:ioLIB/dhcp.c  **** 
 930:ioLIB/dhcp.c  **** void DHCP_init(uint8_t s, uint8_t * buf)
 931:ioLIB/dhcp.c  **** {
 932:ioLIB/dhcp.c  ****    uint8_t zeroip[4] = {0,0,0,0};
 933:ioLIB/dhcp.c  ****    getSHAR(DHCP_CHADDR);
 934:ioLIB/dhcp.c  ****    if((DHCP_CHADDR[0] | DHCP_CHADDR[1]  | DHCP_CHADDR[2] | DHCP_CHADDR[3] | DHCP_CHADDR[4] | DHCP_C
 935:ioLIB/dhcp.c  ****    {
 936:ioLIB/dhcp.c  ****       // assigning temporary mac address, you should be set SHAR before call this function. 
 937:ioLIB/dhcp.c  ****       DHCP_CHADDR[0] = 0x00;
 938:ioLIB/dhcp.c  ****       DHCP_CHADDR[1] = 0x08;
 939:ioLIB/dhcp.c  ****       DHCP_CHADDR[2] = 0xdc;      
 940:ioLIB/dhcp.c  ****       DHCP_CHADDR[3] = 0x00;
 941:ioLIB/dhcp.c  ****       DHCP_CHADDR[4] = 0x00;
 942:ioLIB/dhcp.c  ****       DHCP_CHADDR[5] = 0x00; 
 943:ioLIB/dhcp.c  ****       setSHAR(DHCP_CHADDR);     
 944:ioLIB/dhcp.c  ****    }
 945:ioLIB/dhcp.c  **** 
 946:ioLIB/dhcp.c  **** 	DHCP_SOCKET = s; // SOCK_DHCP
 947:ioLIB/dhcp.c  **** 	pDHCPMSG = (RIP_MSG*)buf;
 948:ioLIB/dhcp.c  **** 	DHCP_XID = 0x12345678;
 949:ioLIB/dhcp.c  **** 	{
 950:ioLIB/dhcp.c  **** 		DHCP_XID += DHCP_CHADDR[3];
 951:ioLIB/dhcp.c  **** 		DHCP_XID += DHCP_CHADDR[4];
 952:ioLIB/dhcp.c  **** 		DHCP_XID += DHCP_CHADDR[5];
 953:ioLIB/dhcp.c  **** 		DHCP_XID += (DHCP_CHADDR[3] ^ DHCP_CHADDR[4] ^ DHCP_CHADDR[5]);
 954:ioLIB/dhcp.c  **** 	}
 955:ioLIB/dhcp.c  **** 	// WIZchip Netinfo Clear
 956:ioLIB/dhcp.c  **** 	setSIPR(zeroip);
 957:ioLIB/dhcp.c  **** 	setGAR(zeroip);
 958:ioLIB/dhcp.c  **** 
 959:ioLIB/dhcp.c  **** 	reset_DHCP_timeout();
 960:ioLIB/dhcp.c  **** 	dhcp_state = STATE_DHCP_INIT;
 961:ioLIB/dhcp.c  **** }
 962:ioLIB/dhcp.c  **** 
 963:ioLIB/dhcp.c  **** 
 964:ioLIB/dhcp.c  **** /* Reset the DHCP timeout count and retry count. */
 965:ioLIB/dhcp.c  **** void reset_DHCP_timeout(void)
 966:ioLIB/dhcp.c  **** {
 967:ioLIB/dhcp.c  **** 	dhcp_tick_1s = 0;
 968:ioLIB/dhcp.c  **** 	dhcp_tick_next = DHCP_WAIT_TIME;
 969:ioLIB/dhcp.c  **** 	dhcp_retry_count = 0;
 970:ioLIB/dhcp.c  **** }
ARM GAS  C:\Users\clay0\AppData\Local\Temp\ccgGhwt3.s 			page 32


 971:ioLIB/dhcp.c  **** 
 972:ioLIB/dhcp.c  **** void DHCP_time_handler(void)
 973:ioLIB/dhcp.c  **** {
 974:ioLIB/dhcp.c  **** 	dhcp_tick_1s++;
 975:ioLIB/dhcp.c  **** }
 976:ioLIB/dhcp.c  **** 
 977:ioLIB/dhcp.c  **** void getIPfromDHCP(uint8_t* ip)
 978:ioLIB/dhcp.c  **** {
 979:ioLIB/dhcp.c  **** 	ip[0] = DHCP_allocated_ip[0];
 980:ioLIB/dhcp.c  **** 	ip[1] = DHCP_allocated_ip[1];
 981:ioLIB/dhcp.c  **** 	ip[2] = DHCP_allocated_ip[2];	
 982:ioLIB/dhcp.c  **** 	ip[3] = DHCP_allocated_ip[3];
 983:ioLIB/dhcp.c  **** }
 984:ioLIB/dhcp.c  **** 
 985:ioLIB/dhcp.c  **** void getGWfromDHCP(uint8_t* ip)
 986:ioLIB/dhcp.c  **** {
 987:ioLIB/dhcp.c  **** 	ip[0] =DHCP_allocated_gw[0];
 988:ioLIB/dhcp.c  **** 	ip[1] =DHCP_allocated_gw[1];
 989:ioLIB/dhcp.c  **** 	ip[2] =DHCP_allocated_gw[2];
 990:ioLIB/dhcp.c  **** 	ip[3] =DHCP_allocated_gw[3];			
 991:ioLIB/dhcp.c  **** }
 992:ioLIB/dhcp.c  **** 
 993:ioLIB/dhcp.c  **** void getSNfromDHCP(uint8_t* ip)
 994:ioLIB/dhcp.c  **** {
 995:ioLIB/dhcp.c  ****    ip[0] = DHCP_allocated_sn[0];
 996:ioLIB/dhcp.c  ****    ip[1] = DHCP_allocated_sn[1];
 997:ioLIB/dhcp.c  ****    ip[2] = DHCP_allocated_sn[2];
 998:ioLIB/dhcp.c  ****    ip[3] = DHCP_allocated_sn[3];         
 999:ioLIB/dhcp.c  **** }
1000:ioLIB/dhcp.c  **** 
1001:ioLIB/dhcp.c  **** void getDNSfromDHCP(uint8_t* ip)
1002:ioLIB/dhcp.c  **** {
1003:ioLIB/dhcp.c  ****    ip[0] = DHCP_allocated_dns[0];
1004:ioLIB/dhcp.c  ****    ip[1] = DHCP_allocated_dns[1];
1005:ioLIB/dhcp.c  ****    ip[2] = DHCP_allocated_dns[2];
1006:ioLIB/dhcp.c  ****    ip[3] = DHCP_allocated_dns[3];         
1007:ioLIB/dhcp.c  **** }
1008:ioLIB/dhcp.c  **** 
1009:ioLIB/dhcp.c  **** uint32_t getDHCPLeasetime(void)
1010:ioLIB/dhcp.c  **** {
1011:ioLIB/dhcp.c  **** 	return dhcp_lease_time;
1012:ioLIB/dhcp.c  **** }
1013:ioLIB/dhcp.c  **** 
1014:ioLIB/dhcp.c  **** char NibbleToHex(uint8_t nibble)
 671              		.loc 1 1014 6 is_stmt 1 view .LVU228
 672              	.LBB49:
1015:ioLIB/dhcp.c  **** {
1016:ioLIB/dhcp.c  ****   nibble &= 0x0F;
 673              		.loc 1 1016 3 view .LVU229
1017:ioLIB/dhcp.c  ****   if (nibble <= 9)
 674              		.loc 1 1017 3 view .LVU230
1018:ioLIB/dhcp.c  ****     return nibble + '0';
 675              		.loc 1 1018 5 view .LVU231
1019:ioLIB/dhcp.c  ****   else 
1020:ioLIB/dhcp.c  ****     return nibble + ('A'-0x0A);
 676              		.loc 1 1020 5 view .LVU232
1017:ioLIB/dhcp.c  ****     return nibble + '0';
ARM GAS  C:\Users\clay0\AppData\Local\Temp\ccgGhwt3.s 			page 33


 677              		.loc 1 1017 6 is_stmt 0 view .LVU233
 678 00e4 BCF19F0F 		cmp	ip, #159
 679              	.LBE49:
 680              	.LBE48:
 393:ioLIB/dhcp.c  **** 	pDHCPMSG->OPT[k++] = NibbleToHex(DHCP_CHADDR[3]);
 681              		.loc 1 393 21 view .LVU234
 682 00e8 2344     		add	r3, r3, r4
 683              	.LBB51:
 684              	.LBB52:
1016:ioLIB/dhcp.c  ****   if (nibble <= 9)
 685              		.loc 1 1016 10 view .LVU235
 686 00ea 0CF00F0C 		and	ip, ip, #15
 687              	.LBE52:
 688              	.LBE51:
 689              	.LBB56:
 690              	.LBB50:
1018:ioLIB/dhcp.c  ****   else 
 691              		.loc 1 1018 19 view .LVU236
 692 00ee 94BF     		ite	ls
 693 00f0 0BF1300B 		addls	fp, fp, #48
 694              		.loc 1 1020 19 view .LVU237
 695 00f4 0BF1370B 		addhi	fp, fp, #55
 696              	.LBE50:
 697              	.LBE56:
 698              	.LBB57:
 699              	.LBB53:
1017:ioLIB/dhcp.c  ****     return nibble + '0';
 700              		.loc 1 1017 6 view .LVU238
 701 00f8 BCF1090F 		cmp	ip, #9
 702              	.LBE53:
 703              	.LBE57:
 393:ioLIB/dhcp.c  **** 	pDHCPMSG->OPT[k++] = NibbleToHex(DHCP_CHADDR[3]);
 704              		.loc 1 393 21 view .LVU239
 705 00fc 83F8ECB0 		strb	fp, [r3, #236]
 394:ioLIB/dhcp.c  **** 	pDHCPMSG->OPT[k++] = NibbleToHex(DHCP_CHADDR[4] >> 4);
 706              		.loc 1 394 2 is_stmt 1 view .LVU240
 707              	.LBB58:
 708              	.LBI51:
1014:ioLIB/dhcp.c  **** {
 709              		.loc 1 1014 6 view .LVU241
 710              	.LBB54:
1016:ioLIB/dhcp.c  ****   if (nibble <= 9)
 711              		.loc 1 1016 3 view .LVU242
 712              	.LVL37:
1017:ioLIB/dhcp.c  ****     return nibble + '0';
 713              		.loc 1 1017 3 view .LVU243
1018:ioLIB/dhcp.c  ****   else 
 714              		.loc 1 1018 5 view .LVU244
 715              		.loc 1 1020 5 view .LVU245
1018:ioLIB/dhcp.c  ****   else 
 716              		.loc 1 1018 19 is_stmt 0 view .LVU246
 717 0100 98BF     		it	ls
 718 0102 0CF1300C 		addls	ip, ip, #48
 719              	.LBE54:
 720              	.LBE58:
 395:ioLIB/dhcp.c  **** 	pDHCPMSG->OPT[k++] = NibbleToHex(DHCP_CHADDR[4]);
 721              		.loc 1 395 23 view .LVU247
ARM GAS  C:\Users\clay0\AppData\Local\Temp\ccgGhwt3.s 			page 34


 722 0106 4FEA1113 		lsr	r3, r1, #4
 723              	.LBB59:
 724              	.LBB55:
 725              		.loc 1 1020 19 view .LVU248
 726 010a 88BF     		it	hi
 727 010c 0CF1370C 		addhi	ip, ip, #55
 728              	.LBE55:
 729              	.LBE59:
 394:ioLIB/dhcp.c  **** 	pDHCPMSG->OPT[k++] = NibbleToHex(DHCP_CHADDR[4] >> 4);
 730              		.loc 1 394 21 view .LVU249
 731 0110 A244     		add	r10, r10, r4
 732              	.LBB60:
 733              	.LBB61:
1017:ioLIB/dhcp.c  ****     return nibble + '0';
 734              		.loc 1 1017 6 view .LVU250
 735 0112 9F29     		cmp	r1, #159
 736              	.LBE61:
 737              	.LBE60:
 395:ioLIB/dhcp.c  **** 	pDHCPMSG->OPT[k++] = NibbleToHex(DHCP_CHADDR[4]);
 738              		.loc 1 395 21 view .LVU251
 739 0114 A144     		add	r9, r9, r4
 740              	.LBB64:
 741              	.LBB65:
1016:ioLIB/dhcp.c  ****   if (nibble <= 9)
 742              		.loc 1 1016 10 view .LVU252
 743 0116 01F00F01 		and	r1, r1, #15
 744              	.LBE65:
 745              	.LBE64:
 746              	.LBB69:
 747              	.LBB62:
1018:ioLIB/dhcp.c  ****   else 
 748              		.loc 1 1018 19 view .LVU253
 749 011a 94BF     		ite	ls
 750 011c 3033     		addls	r3, r3, #48
 751              		.loc 1 1020 19 view .LVU254
 752 011e 3733     		addhi	r3, r3, #55
 753              	.LBE62:
 754              	.LBE69:
 755              	.LBB70:
 756              	.LBB66:
1017:ioLIB/dhcp.c  ****     return nibble + '0';
 757              		.loc 1 1017 6 view .LVU255
 758 0120 0929     		cmp	r1, #9
 759              	.LBE66:
 760              	.LBE70:
 394:ioLIB/dhcp.c  **** 	pDHCPMSG->OPT[k++] = NibbleToHex(DHCP_CHADDR[4] >> 4);
 761              		.loc 1 394 21 view .LVU256
 762 0122 8AF8ECC0 		strb	ip, [r10, #236]
 395:ioLIB/dhcp.c  **** 	pDHCPMSG->OPT[k++] = NibbleToHex(DHCP_CHADDR[4]);
 763              		.loc 1 395 2 is_stmt 1 view .LVU257
 764              	.LBB71:
 765              	.LBI60:
1014:ioLIB/dhcp.c  **** {
 766              		.loc 1 1014 6 view .LVU258
 767              	.LBB63:
1016:ioLIB/dhcp.c  ****   if (nibble <= 9)
 768              		.loc 1 1016 3 view .LVU259
ARM GAS  C:\Users\clay0\AppData\Local\Temp\ccgGhwt3.s 			page 35


1017:ioLIB/dhcp.c  ****     return nibble + '0';
 769              		.loc 1 1017 3 view .LVU260
1018:ioLIB/dhcp.c  ****   else 
 770              		.loc 1 1018 5 view .LVU261
 771              		.loc 1 1020 5 view .LVU262
 772              	.LBE63:
 773              	.LBE71:
 774              	.LBB72:
 775              	.LBB67:
1018:ioLIB/dhcp.c  ****   else 
 776              		.loc 1 1018 19 is_stmt 0 view .LVU263
 777 0126 98BF     		it	ls
 778 0128 3031     		addls	r1, r1, #48
 779              	.LBE67:
 780              	.LBE72:
 395:ioLIB/dhcp.c  **** 	pDHCPMSG->OPT[k++] = NibbleToHex(DHCP_CHADDR[4]);
 781              		.loc 1 395 21 view .LVU264
 782 012a 89F8EC30 		strb	r3, [r9, #236]
 396:ioLIB/dhcp.c  **** 	pDHCPMSG->OPT[k++] = NibbleToHex(DHCP_CHADDR[5] >> 4);
 783              		.loc 1 396 2 is_stmt 1 view .LVU265
 784              	.LBB73:
 785              	.LBI64:
1014:ioLIB/dhcp.c  **** {
 786              		.loc 1 1014 6 view .LVU266
 787              	.LBB68:
1016:ioLIB/dhcp.c  ****   if (nibble <= 9)
 788              		.loc 1 1016 3 view .LVU267
1017:ioLIB/dhcp.c  ****     return nibble + '0';
 789              		.loc 1 1017 3 view .LVU268
1018:ioLIB/dhcp.c  ****   else 
 790              		.loc 1 1018 5 view .LVU269
 791              		.loc 1 1020 5 view .LVU270
 792              		.loc 1 1020 19 is_stmt 0 view .LVU271
 793 012e 88BF     		it	hi
 794 0130 3731     		addhi	r1, r1, #55
 795              	.LBE68:
 796              	.LBE73:
 397:ioLIB/dhcp.c  **** 	pDHCPMSG->OPT[k++] = NibbleToHex(DHCP_CHADDR[5]);
 797              		.loc 1 397 23 view .LVU272
 798 0132 1309     		lsrs	r3, r2, #4
 799              	.LBB74:
 800              	.LBB75:
1017:ioLIB/dhcp.c  ****     return nibble + '0';
 801              		.loc 1 1017 6 view .LVU273
 802 0134 9F2A     		cmp	r2, #159
 803              	.LBE75:
 804              	.LBE74:
 396:ioLIB/dhcp.c  **** 	pDHCPMSG->OPT[k++] = NibbleToHex(DHCP_CHADDR[5] >> 4);
 805              		.loc 1 396 21 view .LVU274
 806 0136 A044     		add	r8, r8, r4
 397:ioLIB/dhcp.c  **** 	pDHCPMSG->OPT[k++] = NibbleToHex(DHCP_CHADDR[5]);
 807              		.loc 1 397 21 view .LVU275
 808 0138 2744     		add	r7, r7, r4
 809              	.LBB78:
 810              	.LBB76:
1018:ioLIB/dhcp.c  ****   else 
 811              		.loc 1 1018 19 view .LVU276
ARM GAS  C:\Users\clay0\AppData\Local\Temp\ccgGhwt3.s 			page 36


 812 013a 94BF     		ite	ls
 813 013c 3033     		addls	r3, r3, #48
 814              		.loc 1 1020 19 view .LVU277
 815 013e 3733     		addhi	r3, r3, #55
 816              	.LBE76:
 817              	.LBE78:
 396:ioLIB/dhcp.c  **** 	pDHCPMSG->OPT[k++] = NibbleToHex(DHCP_CHADDR[5] >> 4);
 818              		.loc 1 396 21 view .LVU278
 819 0140 88F8EC10 		strb	r1, [r8, #236]
 397:ioLIB/dhcp.c  **** 	pDHCPMSG->OPT[k++] = NibbleToHex(DHCP_CHADDR[5]);
 820              		.loc 1 397 2 is_stmt 1 view .LVU279
 821              	.LBB79:
 822              	.LBI74:
1014:ioLIB/dhcp.c  **** {
 823              		.loc 1 1014 6 view .LVU280
 824              	.LBB77:
1016:ioLIB/dhcp.c  ****   if (nibble <= 9)
 825              		.loc 1 1016 3 view .LVU281
1017:ioLIB/dhcp.c  ****     return nibble + '0';
 826              		.loc 1 1017 3 view .LVU282
1018:ioLIB/dhcp.c  ****   else 
 827              		.loc 1 1018 5 view .LVU283
 828              		.loc 1 1020 5 view .LVU284
 829              	.LBE77:
 830              	.LBE79:
 397:ioLIB/dhcp.c  **** 	pDHCPMSG->OPT[k++] = NibbleToHex(DHCP_CHADDR[5]);
 831              		.loc 1 397 21 is_stmt 0 view .LVU285
 832 0144 87F8EC30 		strb	r3, [r7, #236]
 398:ioLIB/dhcp.c  **** 	pDHCPMSG->OPT[k - (i+6+1)] = i+6; // length of hostname
 833              		.loc 1 398 2 is_stmt 1 view .LVU286
 834              	.LVL38:
 835              	.LBB80:
 836              	.LBI80:
1014:ioLIB/dhcp.c  **** {
 837              		.loc 1 1014 6 view .LVU287
 838              	.LBB81:
1016:ioLIB/dhcp.c  ****   if (nibble <= 9)
 839              		.loc 1 1016 3 view .LVU288
 840              	.LBE81:
 841              	.LBE80:
 398:ioLIB/dhcp.c  **** 	pDHCPMSG->OPT[k - (i+6+1)] = i+6; // length of hostname
 842              		.loc 1 398 21 is_stmt 0 view .LVU289
 843 0148 039B     		ldr	r3, [sp, #12]
 402:ioLIB/dhcp.c  **** 	pDHCPMSG->OPT[k++] = subnetMask;
 844              		.loc 1 402 21 view .LVU290
 845 014a 0699     		ldr	r1, [sp, #24]
 403:ioLIB/dhcp.c  **** 	pDHCPMSG->OPT[k++] = routersOnSubnet;
 846              		.loc 1 403 21 view .LVU291
 847 014c 079F     		ldr	r7, [sp, #28]
 848              	.LBB84:
 849              	.LBB82:
1016:ioLIB/dhcp.c  ****   if (nibble <= 9)
 850              		.loc 1 1016 10 view .LVU292
 851 014e 02F00F02 		and	r2, r2, #15
 852              	.LVL39:
1017:ioLIB/dhcp.c  ****     return nibble + '0';
 853              		.loc 1 1017 3 is_stmt 1 view .LVU293
ARM GAS  C:\Users\clay0\AppData\Local\Temp\ccgGhwt3.s 			page 37


1018:ioLIB/dhcp.c  ****   else 
 854              		.loc 1 1018 5 view .LVU294
 855              		.loc 1 1020 5 view .LVU295
1017:ioLIB/dhcp.c  ****     return nibble + '0';
 856              		.loc 1 1017 6 is_stmt 0 view .LVU296
 857 0152 092A     		cmp	r2, #9
 858              	.LBE82:
 859              	.LBE84:
 398:ioLIB/dhcp.c  **** 	pDHCPMSG->OPT[k - (i+6+1)] = i+6; // length of hostname
 860              		.loc 1 398 21 view .LVU297
 861 0154 2344     		add	r3, r3, r4
 862              	.LBB85:
 863              	.LBB83:
1018:ioLIB/dhcp.c  ****   else 
 864              		.loc 1 1018 19 view .LVU298
 865 0156 94BF     		ite	ls
 866 0158 3032     		addls	r2, r2, #48
 867              	.LVL40:
 868              		.loc 1 1020 19 view .LVU299
 869 015a 3732     		addhi	r2, r2, #55
 870              	.LVL41:
 871              		.loc 1 1020 19 view .LVU300
 872              	.LBE83:
 873              	.LBE85:
 398:ioLIB/dhcp.c  **** 	pDHCPMSG->OPT[k - (i+6+1)] = i+6; // length of hostname
 874              		.loc 1 398 21 view .LVU301
 875 015c 83F8EC20 		strb	r2, [r3, #236]
 399:ioLIB/dhcp.c  **** 
 876              		.loc 1 399 2 is_stmt 1 view .LVU302
 399:ioLIB/dhcp.c  **** 
 877              		.loc 1 399 29 is_stmt 0 view .LVU303
 878 0160 049B     		ldr	r3, [sp, #16]
 879 0162 059A     		ldr	r2, [sp, #20]
 880 0164 2344     		add	r3, r3, r4
 402:ioLIB/dhcp.c  **** 	pDHCPMSG->OPT[k++] = subnetMask;
 881              		.loc 1 402 21 view .LVU304
 882 0166 2144     		add	r1, r1, r4
 399:ioLIB/dhcp.c  **** 
 883              		.loc 1 399 29 view .LVU305
 884 0168 83F8EC20 		strb	r2, [r3, #236]
 401:ioLIB/dhcp.c  **** 	pDHCPMSG->OPT[k++] = 0x06;	// length of request
 885              		.loc 1 401 2 is_stmt 1 view .LVU306
 404:ioLIB/dhcp.c  **** 	pDHCPMSG->OPT[k++] = dns;
 886              		.loc 1 404 21 is_stmt 0 view .LVU307
 887 016c 089B     		ldr	r3, [sp, #32]
 408:ioLIB/dhcp.c  **** 	pDHCPMSG->OPT[k++] = endOption;
 888              		.loc 1 408 21 view .LVU308
 889 016e 0B9A     		ldr	r2, [sp, #44]
 404:ioLIB/dhcp.c  **** 	pDHCPMSG->OPT[k++] = dns;
 890              		.loc 1 404 21 view .LVU309
 891 0170 2344     		add	r3, r3, r4
 892 0172 9C46     		mov	ip, r3
 405:ioLIB/dhcp.c  **** 	pDHCPMSG->OPT[k++] = domainName;
 893              		.loc 1 405 21 view .LVU310
 894 0174 099B     		ldr	r3, [sp, #36]
 895 0176 2344     		add	r3, r3, r4
 896 0178 9846     		mov	r8, r3
ARM GAS  C:\Users\clay0\AppData\Local\Temp\ccgGhwt3.s 			page 38


 406:ioLIB/dhcp.c  **** 	pDHCPMSG->OPT[k++] = dhcpT1value;
 897              		.loc 1 406 21 view .LVU311
 898 017a 0A9B     		ldr	r3, [sp, #40]
 401:ioLIB/dhcp.c  **** 	pDHCPMSG->OPT[k++] = 0x06;	// length of request
 899              		.loc 1 401 21 view .LVU312
 900 017c A644     		add	lr, lr, r4
 406:ioLIB/dhcp.c  **** 	pDHCPMSG->OPT[k++] = dhcpT1value;
 901              		.loc 1 406 21 view .LVU313
 902 017e 2344     		add	r3, r3, r4
 903 0180 9946     		mov	r9, r3
 403:ioLIB/dhcp.c  **** 	pDHCPMSG->OPT[k++] = routersOnSubnet;
 904              		.loc 1 403 21 view .LVU314
 905 0182 2744     		add	r7, r7, r4
 402:ioLIB/dhcp.c  **** 	pDHCPMSG->OPT[k++] = subnetMask;
 906              		.loc 1 402 21 view .LVU315
 907 0184 0623     		movs	r3, #6
 401:ioLIB/dhcp.c  **** 	pDHCPMSG->OPT[k++] = 0x06;	// length of request
 908              		.loc 1 401 21 view .LVU316
 909 0186 4FF0370A 		mov	r10, #55
 910 018a 8EF8ECA0 		strb	r10, [lr, #236]
 402:ioLIB/dhcp.c  **** 	pDHCPMSG->OPT[k++] = subnetMask;
 911              		.loc 1 402 2 is_stmt 1 view .LVU317
 402:ioLIB/dhcp.c  **** 	pDHCPMSG->OPT[k++] = subnetMask;
 912              		.loc 1 402 21 is_stmt 0 view .LVU318
 913 018e 81F8EC30 		strb	r3, [r1, #236]
 403:ioLIB/dhcp.c  **** 	pDHCPMSG->OPT[k++] = routersOnSubnet;
 914              		.loc 1 403 2 is_stmt 1 view .LVU319
 403:ioLIB/dhcp.c  **** 	pDHCPMSG->OPT[k++] = routersOnSubnet;
 915              		.loc 1 403 21 is_stmt 0 view .LVU320
 916 0192 0121     		movs	r1, #1
 917 0194 87F8EC10 		strb	r1, [r7, #236]
 404:ioLIB/dhcp.c  **** 	pDHCPMSG->OPT[k++] = dns;
 918              		.loc 1 404 2 is_stmt 1 view .LVU321
 404:ioLIB/dhcp.c  **** 	pDHCPMSG->OPT[k++] = dns;
 919              		.loc 1 404 21 is_stmt 0 view .LVU322
 920 0198 0321     		movs	r1, #3
 921 019a 8CF8EC10 		strb	r1, [ip, #236]
 405:ioLIB/dhcp.c  **** 	pDHCPMSG->OPT[k++] = domainName;
 922              		.loc 1 405 2 is_stmt 1 view .LVU323
 407:ioLIB/dhcp.c  **** 	pDHCPMSG->OPT[k++] = dhcpT2value;
 923              		.loc 1 407 21 is_stmt 0 view .LVU324
 924 019e 2644     		add	r6, r6, r4
 405:ioLIB/dhcp.c  **** 	pDHCPMSG->OPT[k++] = domainName;
 925              		.loc 1 405 21 view .LVU325
 926 01a0 88F8EC30 		strb	r3, [r8, #236]
 406:ioLIB/dhcp.c  **** 	pDHCPMSG->OPT[k++] = dhcpT1value;
 927              		.loc 1 406 2 is_stmt 1 view .LVU326
 406:ioLIB/dhcp.c  **** 	pDHCPMSG->OPT[k++] = dhcpT1value;
 928              		.loc 1 406 21 is_stmt 0 view .LVU327
 929 01a4 0F23     		movs	r3, #15
 930 01a6 89F8EC30 		strb	r3, [r9, #236]
 407:ioLIB/dhcp.c  **** 	pDHCPMSG->OPT[k++] = dhcpT2value;
 931              		.loc 1 407 2 is_stmt 1 view .LVU328
 408:ioLIB/dhcp.c  **** 	pDHCPMSG->OPT[k++] = endOption;
 932              		.loc 1 408 21 is_stmt 0 view .LVU329
 933 01aa 2244     		add	r2, r2, r4
 407:ioLIB/dhcp.c  **** 	pDHCPMSG->OPT[k++] = dhcpT2value;
ARM GAS  C:\Users\clay0\AppData\Local\Temp\ccgGhwt3.s 			page 39


 934              		.loc 1 407 21 view .LVU330
 935 01ac 3A23     		movs	r3, #58
 936 01ae 86F8EC30 		strb	r3, [r6, #236]
 408:ioLIB/dhcp.c  **** 	pDHCPMSG->OPT[k++] = endOption;
 937              		.loc 1 408 2 is_stmt 1 view .LVU331
 409:ioLIB/dhcp.c  **** 
 938              		.loc 1 409 21 is_stmt 0 view .LVU332
 939 01b2 2544     		add	r5, r5, r4
 408:ioLIB/dhcp.c  **** 	pDHCPMSG->OPT[k++] = endOption;
 940              		.loc 1 408 21 view .LVU333
 941 01b4 3B23     		movs	r3, #59
 942 01b6 82F8EC30 		strb	r3, [r2, #236]
 409:ioLIB/dhcp.c  **** 
 943              		.loc 1 409 2 is_stmt 1 view .LVU334
 411:ioLIB/dhcp.c  **** 
 944              		.loc 1 411 2 is_stmt 0 view .LVU335
 945 01ba B0F59C7F 		cmp	r0, #312
 409:ioLIB/dhcp.c  **** 
 946              		.loc 1 409 21 view .LVU336
 947 01be 4FF0FF03 		mov	r3, #255
 948 01c2 85F8EC30 		strb	r3, [r5, #236]
 411:ioLIB/dhcp.c  **** 
 949              		.loc 1 411 2 is_stmt 1 view .LVU337
 411:ioLIB/dhcp.c  **** 
 950              		.loc 1 411 14 view .LVU338
 411:ioLIB/dhcp.c  **** 
 951              		.loc 1 411 2 is_stmt 0 view .LVU339
 952 01c6 08D2     		bcs	.L47
 411:ioLIB/dhcp.c  **** 
 953              		.loc 1 411 50 view .LVU340
 954 01c8 C0F59C72 		rsb	r2, r0, #312
 955 01cc EC30     		adds	r0, r0, #236
 956 01ce 92B2     		uxth	r2, r2
 957 01d0 0021     		movs	r1, #0
 958 01d2 14FA80F0 		uxtah	r0, r4, r0
 959 01d6 FFF7FEFF 		bl	memset
 960              	.LVL42:
 961              	.L47:
 414:ioLIB/dhcp.c  **** 	ip[1] = 255;
 962              		.loc 1 414 2 is_stmt 1 view .LVU341
 415:ioLIB/dhcp.c  **** 	ip[2] = 255;
 963              		.loc 1 415 2 view .LVU342
 416:ioLIB/dhcp.c  **** 	ip[3] = 255;
 964              		.loc 1 416 2 view .LVU343
 417:ioLIB/dhcp.c  **** 
 965              		.loc 1 417 2 view .LVU344
 423:ioLIB/dhcp.c  **** }
 966              		.loc 1 423 2 is_stmt 0 view .LVU345
 967 01da 1F4A     		ldr	r2, .L52+24
 968 01dc 4323     		movs	r3, #67
 969 01de 1078     		ldrb	r0, [r2]	@ zero_extendqisi2
 970 01e0 0093     		str	r3, [sp]
 414:ioLIB/dhcp.c  **** 	ip[1] = 255;
 971              		.loc 1 414 8 view .LVU346
 972 01e2 4FF0FF35 		mov	r5, #-1
 423:ioLIB/dhcp.c  **** }
 973              		.loc 1 423 2 view .LVU347
ARM GAS  C:\Users\clay0\AppData\Local\Temp\ccgGhwt3.s 			page 40


 974 01e6 0DAB     		add	r3, sp, #52
 975 01e8 4FF40972 		mov	r2, #548
 976 01ec 2146     		mov	r1, r4
 414:ioLIB/dhcp.c  **** 	ip[1] = 255;
 977              		.loc 1 414 8 view .LVU348
 978 01ee 0D95     		str	r5, [sp, #52]
 423:ioLIB/dhcp.c  **** }
 979              		.loc 1 423 2 is_stmt 1 view .LVU349
 980 01f0 FFF7FEFF 		bl	sendto
 981              	.LVL43:
 424:ioLIB/dhcp.c  **** 
 982              		.loc 1 424 1 is_stmt 0 view .LVU350
 983 01f4 0FB0     		add	sp, sp, #60
 984              	.LCFI13:
 985              		.cfi_remember_state
 986              		.cfi_def_cfa_offset 36
 987              		@ sp needed
 988 01f6 BDE8F08F 		pop	{r4, r5, r6, r7, r8, r9, r10, fp, pc}
 989              	.LVL44:
 990              	.L48:
 991              	.LCFI14:
 992              		.cfi_restore_state
 391:ioLIB/dhcp.c  ****    	pDHCPMSG->OPT[k++] = HOST_NAME[i];
 993              		.loc 1 391 2 view .LVU351
 994 01fa 1F23     		movs	r3, #31
 995 01fc 1D27     		movs	r7, #29
 996 01fe 0B93     		str	r3, [sp, #44]
 997 0200 1C23     		movs	r3, #28
 998 0202 CDE90937 		strd	r3, r7, [sp, #36]
 999 0206 4FF01B0E 		mov	lr, #27
 1000 020a 1A23     		movs	r3, #26
 1001 020c CDE9073E 		strd	r3, lr, [sp, #28]
 1002 0210 4FF01908 		mov	r8, #25
 1003 0214 0623     		movs	r3, #6
 1004 0216 CDE90538 		strd	r3, r8, [sp, #20]
 1005 021a 1123     		movs	r3, #17
 1006 021c 0493     		str	r3, [sp, #16]
 1007 021e 1723     		movs	r3, #23
 1008 0220 0393     		str	r3, [sp, #12]
 1009 0222 2120     		movs	r0, #33
 1010 0224 2025     		movs	r5, #32
 1011 0226 1E26     		movs	r6, #30
 1012 0228 4FF0180E 		mov	lr, #24
 1013 022c 1627     		movs	r7, #22
 1014 022e 4FF01508 		mov	r8, #21
 1015 0232 4FF01409 		mov	r9, #20
 1016 0236 4FF0130A 		mov	r10, #19
 1017 023a 1223     		movs	r3, #18
 1018 023c 50E7     		b	.L32
 1019              	.L53:
 1020 023e 00BF     		.align	2
 1021              	.L52:
 1022 0240 00000000 		.word	.LANCHOR7
 1023 0244 00000000 		.word	.LANCHOR9
 1024 0248 00000000 		.word	.LANCHOR3
 1025 024c 00000000 		.word	.LANCHOR11
 1026 0250 00000000 		.word	.LANCHOR10
ARM GAS  C:\Users\clay0\AppData\Local\Temp\ccgGhwt3.s 			page 41


 1027 0254 3501013D 		.word	1023476021
 1028 0258 00000000 		.word	.LANCHOR12
 1029              		.cfi_endproc
 1030              	.LFE5:
 1032              		.section	.text.send_DHCP_REQUEST,"ax",%progbits
 1033              		.align	1
 1034              		.p2align 2,,3
 1035              		.global	send_DHCP_REQUEST
 1036              		.syntax unified
 1037              		.thumb
 1038              		.thumb_func
 1040              	send_DHCP_REQUEST:
 1041              	.LFB6:
 428:ioLIB/dhcp.c  **** 	int i;
 1042              		.loc 1 428 1 is_stmt 1 view -0
 1043              		.cfi_startproc
 1044              		@ args = 0, pretend = 0, frame = 64
 1045              		@ frame_needed = 0, uses_anonymous_args = 0
 429:ioLIB/dhcp.c  **** 	uint8_t ip[4];
 1046              		.loc 1 429 2 view .LVU353
 430:ioLIB/dhcp.c  **** 	uint16_t k = 0;
 1047              		.loc 1 430 2 view .LVU354
 431:ioLIB/dhcp.c  **** 
 1048              		.loc 1 431 2 view .LVU355
 1049              	.LVL45:
 433:ioLIB/dhcp.c  **** 
 1050              		.loc 1 433 4 view .LVU356
 428:ioLIB/dhcp.c  **** 	int i;
 1051              		.loc 1 428 1 is_stmt 0 view .LVU357
 1052 0000 2DE9F04F 		push	{r4, r5, r6, r7, r8, r9, r10, fp, lr}
 1053              	.LCFI15:
 1054              		.cfi_def_cfa_offset 36
 1055              		.cfi_offset 4, -36
 1056              		.cfi_offset 5, -32
 1057              		.cfi_offset 6, -28
 1058              		.cfi_offset 7, -24
 1059              		.cfi_offset 8, -20
 1060              		.cfi_offset 9, -16
 1061              		.cfi_offset 10, -12
 1062              		.cfi_offset 11, -8
 1063              		.cfi_offset 14, -4
 1064 0004 93B0     		sub	sp, sp, #76
 1065              	.LCFI16:
 1066              		.cfi_def_cfa_offset 112
 433:ioLIB/dhcp.c  **** 
 1067              		.loc 1 433 4 view .LVU358
 1068 0006 FFF7FEFF 		bl	makeDHCPMSG
 1069              	.LVL46:
 435:ioLIB/dhcp.c  ****    {
 1070              		.loc 1 435 4 is_stmt 1 view .LVU359
 435:ioLIB/dhcp.c  ****    {
 1071              		.loc 1 435 39 is_stmt 0 view .LVU360
 1072 000a BD4B     		ldr	r3, .L84
 1073 000c 1B78     		ldrb	r3, [r3]	@ zero_extendqisi2
 435:ioLIB/dhcp.c  ****    {
 1074              		.loc 1 435 6 view .LVU361
 1075 000e 033B     		subs	r3, r3, #3
ARM GAS  C:\Users\clay0\AppData\Local\Temp\ccgGhwt3.s 			page 42


 1076 0010 012B     		cmp	r3, #1
 1077 0012 40F28581 		bls	.L83
 450:ioLIB/dhcp.c  ****    	ip[1] = 255;
 1078              		.loc 1 450 5 is_stmt 1 view .LVU362
 451:ioLIB/dhcp.c  ****    	ip[2] = 255;
 1079              		.loc 1 451 5 view .LVU363
 452:ioLIB/dhcp.c  ****    	ip[3] = 255;   	   	   	
 1080              		.loc 1 452 5 view .LVU364
 453:ioLIB/dhcp.c  ****    }
 1081              		.loc 1 453 5 view .LVU365
 437:ioLIB/dhcp.c  ****    	*((uint8_t*)(&pDHCPMSG->flags)+1) = (DHCP_FLAGSUNICAST & 0x00FF);
 1082              		.loc 1 437 27 is_stmt 0 view .LVU366
 1083 0016 BB4A     		ldr	r2, .L84+4
 469:ioLIB/dhcp.c  **** 	pDHCPMSG->OPT[k++] = DHCP_CHADDR[4];
 1084              		.loc 1 469 34 view .LVU367
 1085 0018 BB4B     		ldr	r3, .L84+8
 437:ioLIB/dhcp.c  ****    	*((uint8_t*)(&pDHCPMSG->flags)+1) = (DHCP_FLAGSUNICAST & 0x00FF);
 1086              		.loc 1 437 27 view .LVU368
 1087 001a D2F80090 		ldr	r9, [r2]
 456:ioLIB/dhcp.c  **** 	
 1088              		.loc 1 456 4 is_stmt 1 view .LVU369
 1089              	.LVL47:
 459:ioLIB/dhcp.c  **** 	pDHCPMSG->OPT[k++] = 0x01;
 1090              		.loc 1 459 2 view .LVU370
 460:ioLIB/dhcp.c  **** 	pDHCPMSG->OPT[k++] = DHCP_REQUEST;
 1091              		.loc 1 460 2 view .LVU371
 461:ioLIB/dhcp.c  **** 
 1092              		.loc 1 461 2 view .LVU372
 463:ioLIB/dhcp.c  **** 	pDHCPMSG->OPT[k++] = 0x07;
 1093              		.loc 1 463 2 view .LVU373
 464:ioLIB/dhcp.c  **** 	pDHCPMSG->OPT[k++] = 0x01;
 1094              		.loc 1 464 2 view .LVU374
 465:ioLIB/dhcp.c  **** 	pDHCPMSG->OPT[k++] = DHCP_CHADDR[0];
 1095              		.loc 1 465 2 view .LVU375
 468:ioLIB/dhcp.c  **** 	pDHCPMSG->OPT[k++] = DHCP_CHADDR[3];
 1096              		.loc 1 468 34 is_stmt 0 view .LVU376
 1097 001e D3F80220 		ldr	r2, [r3, #2]	@ unaligned
 468:ioLIB/dhcp.c  **** 	pDHCPMSG->OPT[k++] = DHCP_CHADDR[3];
 1098              		.loc 1 468 21 view .LVU377
 1099 0022 C9F8F820 		str	r2, [r9, #248]
 464:ioLIB/dhcp.c  **** 	pDHCPMSG->OPT[k++] = 0x01;
 1100              		.loc 1 464 21 view .LVU378
 1101 0026 40F20712 		movw	r2, #263
 459:ioLIB/dhcp.c  **** 	pDHCPMSG->OPT[k++] = 0x01;
 1102              		.loc 1 459 21 view .LVU379
 1103 002a B849     		ldr	r1, .L84+12
 464:ioLIB/dhcp.c  **** 	pDHCPMSG->OPT[k++] = 0x01;
 1104              		.loc 1 464 21 view .LVU380
 1105 002c A9F8F420 		strh	r2, [r9, #244]	@ movhi
 466:ioLIB/dhcp.c  **** 	pDHCPMSG->OPT[k++] = DHCP_CHADDR[1];
 1106              		.loc 1 466 2 is_stmt 1 view .LVU381
 1107              	.LVL48:
 467:ioLIB/dhcp.c  **** 	pDHCPMSG->OPT[k++] = DHCP_CHADDR[2];
 1108              		.loc 1 467 2 view .LVU382
 468:ioLIB/dhcp.c  **** 	pDHCPMSG->OPT[k++] = DHCP_CHADDR[3];
 1109              		.loc 1 468 2 view .LVU383
 469:ioLIB/dhcp.c  **** 	pDHCPMSG->OPT[k++] = DHCP_CHADDR[4];
ARM GAS  C:\Users\clay0\AppData\Local\Temp\ccgGhwt3.s 			page 43


 1110              		.loc 1 469 2 view .LVU384
 470:ioLIB/dhcp.c  **** 	pDHCPMSG->OPT[k++] = DHCP_CHADDR[5];
 1111              		.loc 1 470 2 view .LVU385
 471:ioLIB/dhcp.c  **** 
 1112              		.loc 1 471 2 view .LVU386
 473:ioLIB/dhcp.c  ****    {
 1113              		.loc 1 473 4 view .LVU387
 450:ioLIB/dhcp.c  ****    	ip[1] = 255;
 1114              		.loc 1 450 11 is_stmt 0 view .LVU388
 1115 0030 4FF0FF30 		mov	r0, #-1
 466:ioLIB/dhcp.c  **** 	pDHCPMSG->OPT[k++] = DHCP_CHADDR[1];
 1116              		.loc 1 466 21 view .LVU389
 1117 0034 1A88     		ldrh	r2, [r3]
 450:ioLIB/dhcp.c  ****    	ip[1] = 255;
 1118              		.loc 1 450 11 view .LVU390
 1119 0036 1190     		str	r0, [sp, #68]
 459:ioLIB/dhcp.c  **** 	pDHCPMSG->OPT[k++] = 0x01;
 1120              		.loc 1 459 21 view .LVU391
 1121 0038 C9F8F010 		str	r1, [r9, #240]
 466:ioLIB/dhcp.c  **** 	pDHCPMSG->OPT[k++] = DHCP_CHADDR[1];
 1122              		.loc 1 466 21 view .LVU392
 1123 003c A9F8F620 		strh	r2, [r9, #246]	@ movhi
 469:ioLIB/dhcp.c  **** 	pDHCPMSG->OPT[k++] = DHCP_CHADDR[4];
 1124              		.loc 1 469 34 view .LVU393
 1125 0040 DD78     		ldrb	r5, [r3, #3]	@ zero_extendqisi2
 470:ioLIB/dhcp.c  **** 	pDHCPMSG->OPT[k++] = DHCP_CHADDR[5];
 1126              		.loc 1 470 34 view .LVU394
 1127 0042 1C79     		ldrb	r4, [r3, #4]	@ zero_extendqisi2
 471:ioLIB/dhcp.c  **** 
 1128              		.loc 1 471 34 view .LVU395
 1129 0044 5979     		ldrb	r1, [r3, #5]	@ zero_extendqisi2
 1130 0046 B248     		ldr	r0, .L84+16
 1131 0048 B24A     		ldr	r2, .L84+20
 1132              	.L56:
 475:ioLIB/dhcp.c  **** 		pDHCPMSG->OPT[k++] = 0x04;
 1133              		.loc 1 475 3 is_stmt 1 view .LVU396
 1134              	.LVL49:
 476:ioLIB/dhcp.c  **** 		pDHCPMSG->OPT[k++] = DHCP_allocated_ip[0];
 1135              		.loc 1 476 3 view .LVU397
 484:ioLIB/dhcp.c  **** 		pDHCPMSG->OPT[k++] = DHCP_SIP[1];
 1136              		.loc 1 484 22 is_stmt 0 view .LVU398
 1137 004a 1368     		ldr	r3, [r2]
 1138 004c C9F80431 		str	r3, [r9, #260]
 477:ioLIB/dhcp.c  **** 		pDHCPMSG->OPT[k++] = DHCP_allocated_ip[1];
 1139              		.loc 1 477 22 view .LVU399
 1140 0050 0388     		ldrh	r3, [r0]
 1141 0052 A9F8FE30 		strh	r3, [r9, #254]	@ movhi
 479:ioLIB/dhcp.c  **** 		pDHCPMSG->OPT[k++] = DHCP_allocated_ip[3];
 1142              		.loc 1 479 22 view .LVU400
 1143 0056 4388     		ldrh	r3, [r0, #2]
 1144 0058 A9F80031 		strh	r3, [r9, #256]	@ movhi
 482:ioLIB/dhcp.c  **** 		pDHCPMSG->OPT[k++] = 0x04;
 1145              		.loc 1 482 22 view .LVU401
 1146 005c 40F23643 		movw	r3, #1078
 1147 0060 A9F80231 		strh	r3, [r9, #258]	@ movhi
 475:ioLIB/dhcp.c  **** 		pDHCPMSG->OPT[k++] = 0x04;
 1148              		.loc 1 475 22 view .LVU402
ARM GAS  C:\Users\clay0\AppData\Local\Temp\ccgGhwt3.s 			page 44


 1149 0064 40F23243 		movw	r3, #1074
 1150 0068 A9F8FC30 		strh	r3, [r9, #252]	@ movhi
 477:ioLIB/dhcp.c  **** 		pDHCPMSG->OPT[k++] = DHCP_allocated_ip[1];
 1151              		.loc 1 477 3 is_stmt 1 view .LVU403
 1152              	.LVL50:
 478:ioLIB/dhcp.c  **** 		pDHCPMSG->OPT[k++] = DHCP_allocated_ip[2];
 1153              		.loc 1 478 3 view .LVU404
 479:ioLIB/dhcp.c  **** 		pDHCPMSG->OPT[k++] = DHCP_allocated_ip[3];
 1154              		.loc 1 479 3 view .LVU405
 480:ioLIB/dhcp.c  **** 	
 1155              		.loc 1 480 3 view .LVU406
 482:ioLIB/dhcp.c  **** 		pDHCPMSG->OPT[k++] = 0x04;
 1156              		.loc 1 482 3 view .LVU407
 483:ioLIB/dhcp.c  **** 		pDHCPMSG->OPT[k++] = DHCP_SIP[0];
 1157              		.loc 1 483 3 view .LVU408
 484:ioLIB/dhcp.c  **** 		pDHCPMSG->OPT[k++] = DHCP_SIP[1];
 1158              		.loc 1 484 3 view .LVU409
 485:ioLIB/dhcp.c  **** 		pDHCPMSG->OPT[k++] = DHCP_SIP[2];
 1159              		.loc 1 485 3 view .LVU410
 486:ioLIB/dhcp.c  **** 		pDHCPMSG->OPT[k++] = DHCP_SIP[3];
 1160              		.loc 1 486 3 view .LVU411
 487:ioLIB/dhcp.c  **** 	}
 1161              		.loc 1 487 3 view .LVU412
 484:ioLIB/dhcp.c  **** 		pDHCPMSG->OPT[k++] = DHCP_SIP[1];
 1162              		.loc 1 484 22 is_stmt 0 view .LVU413
 1163 006c 2E26     		movs	r6, #46
 1164 006e 2D23     		movs	r3, #45
 1165 0070 2C27     		movs	r7, #44
 1166 0072 CDE90E36 		strd	r3, r6, [sp, #56]
 1167 0076 2B23     		movs	r3, #43
 1168 0078 CDE90C37 		strd	r3, r7, [sp, #48]
 1169 007c 4FF02A0C 		mov	ip, #42
 1170 0080 2923     		movs	r3, #41
 1171 0082 CDE90A3C 		strd	r3, ip, [sp, #40]
 1172 0086 4FF0280E 		mov	lr, #40
 1173 008a 2723     		movs	r3, #39
 1174 008c CDE9083E 		strd	r3, lr, [sp, #32]
 1175 0090 4FF02608 		mov	r8, #38
 1176 0094 2523     		movs	r3, #37
 1177 0096 CDE90638 		strd	r3, r8, [sp, #24]
 1178 009a 4FF0230A 		mov	r10, #35
 1179 009e 2223     		movs	r3, #34
 1180 00a0 CDE9043A 		strd	r3, r10, [sp, #16]
 1181 00a4 1E20     		movs	r0, #30
 1182 00a6 2023     		movs	r3, #32
 1183 00a8 2F22     		movs	r2, #47
 1184 00aa 4FF0240E 		mov	lr, #36
 1185 00ae 4FF0210A 		mov	r10, #33
 1186 00b2 0393     		str	r3, [sp, #12]
 1187 00b4 1F27     		movs	r7, #31
 1188 00b6 8446     		mov	ip, r0
 1189 00b8 4FF01D0B 		mov	fp, #29
 1190 00bc 4FF01C08 		mov	r8, #28
 1191              	.LVL51:
 1192              	.L57:
 491:ioLIB/dhcp.c  **** 	pDHCPMSG->OPT[k++] = 0; // length of hostname
 1193              		.loc 1 491 2 is_stmt 1 view .LVU414
ARM GAS  C:\Users\clay0\AppData\Local\Temp\ccgGhwt3.s 			page 45


 491:ioLIB/dhcp.c  **** 	pDHCPMSG->OPT[k++] = 0; // length of hostname
 1194              		.loc 1 491 21 is_stmt 0 view .LVU415
 1195 00c0 C844     		add	r8, r8, r9
 493:ioLIB/dhcp.c  ****    	pDHCPMSG->OPT[k++] = HOST_NAME[i];
 1196              		.loc 1 493 23 view .LVU416
 1197 00c2 954B     		ldr	r3, .L84+24
 491:ioLIB/dhcp.c  **** 	pDHCPMSG->OPT[k++] = 0; // length of hostname
 1198              		.loc 1 491 21 view .LVU417
 1199 00c4 4FF00C06 		mov	r6, #12
 1200 00c8 88F8EC60 		strb	r6, [r8, #236]
 492:ioLIB/dhcp.c  **** 	for(i = 0 ; HOST_NAME[i] != 0; i++)
 1201              		.loc 1 492 2 is_stmt 1 view .LVU418
 492:ioLIB/dhcp.c  **** 	for(i = 0 ; HOST_NAME[i] != 0; i++)
 1202              		.loc 1 492 21 is_stmt 0 view .LVU419
 1203 00cc CB44     		add	fp, fp, r9
 493:ioLIB/dhcp.c  ****    	pDHCPMSG->OPT[k++] = HOST_NAME[i];
 1204              		.loc 1 493 23 view .LVU420
 1205 00ce 93F80080 		ldrb	r8, [r3]	@ zero_extendqisi2
 492:ioLIB/dhcp.c  **** 	for(i = 0 ; HOST_NAME[i] != 0; i++)
 1206              		.loc 1 492 21 view .LVU421
 1207 00d2 4FF00006 		mov	r6, #0
 1208 00d6 8BF8EC60 		strb	r6, [fp, #236]
 493:ioLIB/dhcp.c  ****    	pDHCPMSG->OPT[k++] = HOST_NAME[i];
 1209              		.loc 1 493 2 is_stmt 1 view .LVU422
 1210              	.LVL52:
 493:ioLIB/dhcp.c  ****    	pDHCPMSG->OPT[k++] = HOST_NAME[i];
 1211              		.loc 1 493 14 view .LVU423
 493:ioLIB/dhcp.c  ****    	pDHCPMSG->OPT[k++] = HOST_NAME[i];
 1212              		.loc 1 493 2 is_stmt 0 view .LVU424
 1213 00da B8F1000F 		cmp	r8, #0
 1214 00de 00F07181 		beq	.L72
 1215              	.LVL53:
 494:ioLIB/dhcp.c  **** 	pDHCPMSG->OPT[k++] = NibbleToHex(DHCP_CHADDR[3] >> 4); 
 1216              		.loc 1 494 5 is_stmt 1 view .LVU425
 494:ioLIB/dhcp.c  **** 	pDHCPMSG->OPT[k++] = NibbleToHex(DHCP_CHADDR[3] >> 4); 
 1217              		.loc 1 494 24 is_stmt 0 view .LVU426
 1218 00e2 09EB0C02 		add	r2, r9, ip
 494:ioLIB/dhcp.c  **** 	pDHCPMSG->OPT[k++] = NibbleToHex(DHCP_CHADDR[3] >> 4); 
 1219              		.loc 1 494 20 view .LVU427
 1220 00e6 0CF10100 		add	r0, ip, #1
 1221              	.LVL54:
 493:ioLIB/dhcp.c  ****    	pDHCPMSG->OPT[k++] = HOST_NAME[i];
 1222              		.loc 1 493 33 is_stmt 1 view .LVU428
 493:ioLIB/dhcp.c  ****    	pDHCPMSG->OPT[k++] = HOST_NAME[i];
 1223              		.loc 1 493 14 view .LVU429
 494:ioLIB/dhcp.c  **** 	pDHCPMSG->OPT[k++] = NibbleToHex(DHCP_CHADDR[3] >> 4); 
 1224              		.loc 1 494 24 is_stmt 0 view .LVU430
 1225 00ea 82F8EC80 		strb	r8, [r2, #236]
 493:ioLIB/dhcp.c  ****    	pDHCPMSG->OPT[k++] = HOST_NAME[i];
 1226              		.loc 1 493 23 view .LVU431
 1227 00ee 5A78     		ldrb	r2, [r3, #1]	@ zero_extendqisi2
 493:ioLIB/dhcp.c  ****    	pDHCPMSG->OPT[k++] = HOST_NAME[i];
 1228              		.loc 1 493 2 view .LVU432
 1229 00f0 002A     		cmp	r2, #0
 1230 00f2 00F06A81 		beq	.L73
 494:ioLIB/dhcp.c  **** 	pDHCPMSG->OPT[k++] = NibbleToHex(DHCP_CHADDR[3] >> 4); 
 1231              		.loc 1 494 5 is_stmt 1 view .LVU433
ARM GAS  C:\Users\clay0\AppData\Local\Temp\ccgGhwt3.s 			page 46


 494:ioLIB/dhcp.c  **** 	pDHCPMSG->OPT[k++] = NibbleToHex(DHCP_CHADDR[3] >> 4); 
 1232              		.loc 1 494 24 is_stmt 0 view .LVU434
 1233 00f6 4844     		add	r0, r0, r9
 1234              	.LVL55:
 494:ioLIB/dhcp.c  **** 	pDHCPMSG->OPT[k++] = NibbleToHex(DHCP_CHADDR[3] >> 4); 
 1235              		.loc 1 494 24 view .LVU435
 1236 00f8 80F8EC20 		strb	r2, [r0, #236]
 493:ioLIB/dhcp.c  ****    	pDHCPMSG->OPT[k++] = HOST_NAME[i];
 1237              		.loc 1 493 23 view .LVU436
 1238 00fc 9A78     		ldrb	r2, [r3, #2]	@ zero_extendqisi2
 494:ioLIB/dhcp.c  **** 	pDHCPMSG->OPT[k++] = NibbleToHex(DHCP_CHADDR[3] >> 4); 
 1239              		.loc 1 494 20 view .LVU437
 1240 00fe 0CF10200 		add	r0, ip, #2
 1241              	.LVL56:
 493:ioLIB/dhcp.c  ****    	pDHCPMSG->OPT[k++] = HOST_NAME[i];
 1242              		.loc 1 493 33 is_stmt 1 view .LVU438
 493:ioLIB/dhcp.c  ****    	pDHCPMSG->OPT[k++] = HOST_NAME[i];
 1243              		.loc 1 493 14 view .LVU439
 493:ioLIB/dhcp.c  ****    	pDHCPMSG->OPT[k++] = HOST_NAME[i];
 1244              		.loc 1 493 2 is_stmt 0 view .LVU440
 1245 0102 002A     		cmp	r2, #0
 1246 0104 00F06381 		beq	.L74
 494:ioLIB/dhcp.c  **** 	pDHCPMSG->OPT[k++] = NibbleToHex(DHCP_CHADDR[3] >> 4); 
 1247              		.loc 1 494 5 is_stmt 1 view .LVU441
 494:ioLIB/dhcp.c  **** 	pDHCPMSG->OPT[k++] = NibbleToHex(DHCP_CHADDR[3] >> 4); 
 1248              		.loc 1 494 24 is_stmt 0 view .LVU442
 1249 0108 4844     		add	r0, r0, r9
 1250              	.LVL57:
 494:ioLIB/dhcp.c  **** 	pDHCPMSG->OPT[k++] = NibbleToHex(DHCP_CHADDR[3] >> 4); 
 1251              		.loc 1 494 24 view .LVU443
 1252 010a 80F8EC20 		strb	r2, [r0, #236]
 493:ioLIB/dhcp.c  ****    	pDHCPMSG->OPT[k++] = HOST_NAME[i];
 1253              		.loc 1 493 23 view .LVU444
 1254 010e DA78     		ldrb	r2, [r3, #3]	@ zero_extendqisi2
 494:ioLIB/dhcp.c  **** 	pDHCPMSG->OPT[k++] = NibbleToHex(DHCP_CHADDR[3] >> 4); 
 1255              		.loc 1 494 20 view .LVU445
 1256 0110 0CF10300 		add	r0, ip, #3
 1257              	.LVL58:
 493:ioLIB/dhcp.c  ****    	pDHCPMSG->OPT[k++] = HOST_NAME[i];
 1258              		.loc 1 493 33 is_stmt 1 view .LVU446
 493:ioLIB/dhcp.c  ****    	pDHCPMSG->OPT[k++] = HOST_NAME[i];
 1259              		.loc 1 493 14 view .LVU447
 493:ioLIB/dhcp.c  ****    	pDHCPMSG->OPT[k++] = HOST_NAME[i];
 1260              		.loc 1 493 2 is_stmt 0 view .LVU448
 1261 0114 002A     		cmp	r2, #0
 1262 0116 00F05C81 		beq	.L75
 494:ioLIB/dhcp.c  **** 	pDHCPMSG->OPT[k++] = NibbleToHex(DHCP_CHADDR[3] >> 4); 
 1263              		.loc 1 494 5 is_stmt 1 view .LVU449
 494:ioLIB/dhcp.c  **** 	pDHCPMSG->OPT[k++] = NibbleToHex(DHCP_CHADDR[3] >> 4); 
 1264              		.loc 1 494 24 is_stmt 0 view .LVU450
 1265 011a 4844     		add	r0, r0, r9
 1266              	.LVL59:
 494:ioLIB/dhcp.c  **** 	pDHCPMSG->OPT[k++] = NibbleToHex(DHCP_CHADDR[3] >> 4); 
 1267              		.loc 1 494 24 view .LVU451
 1268 011c 80F8EC20 		strb	r2, [r0, #236]
 493:ioLIB/dhcp.c  ****    	pDHCPMSG->OPT[k++] = HOST_NAME[i];
 1269              		.loc 1 493 23 view .LVU452
ARM GAS  C:\Users\clay0\AppData\Local\Temp\ccgGhwt3.s 			page 47


 1270 0120 1A79     		ldrb	r2, [r3, #4]	@ zero_extendqisi2
 494:ioLIB/dhcp.c  **** 	pDHCPMSG->OPT[k++] = NibbleToHex(DHCP_CHADDR[3] >> 4); 
 1271              		.loc 1 494 20 view .LVU453
 1272 0122 0CF10400 		add	r0, ip, #4
 1273              	.LVL60:
 493:ioLIB/dhcp.c  ****    	pDHCPMSG->OPT[k++] = HOST_NAME[i];
 1274              		.loc 1 493 33 is_stmt 1 view .LVU454
 493:ioLIB/dhcp.c  ****    	pDHCPMSG->OPT[k++] = HOST_NAME[i];
 1275              		.loc 1 493 14 view .LVU455
 493:ioLIB/dhcp.c  ****    	pDHCPMSG->OPT[k++] = HOST_NAME[i];
 1276              		.loc 1 493 2 is_stmt 0 view .LVU456
 1277 0126 002A     		cmp	r2, #0
 1278 0128 00F05581 		beq	.L76
 494:ioLIB/dhcp.c  **** 	pDHCPMSG->OPT[k++] = NibbleToHex(DHCP_CHADDR[3] >> 4); 
 1279              		.loc 1 494 5 is_stmt 1 view .LVU457
 494:ioLIB/dhcp.c  **** 	pDHCPMSG->OPT[k++] = NibbleToHex(DHCP_CHADDR[3] >> 4); 
 1280              		.loc 1 494 24 is_stmt 0 view .LVU458
 1281 012c 4844     		add	r0, r0, r9
 1282              	.LVL61:
 494:ioLIB/dhcp.c  **** 	pDHCPMSG->OPT[k++] = NibbleToHex(DHCP_CHADDR[3] >> 4); 
 1283              		.loc 1 494 24 view .LVU459
 1284 012e 80F8EC20 		strb	r2, [r0, #236]
 493:ioLIB/dhcp.c  ****    	pDHCPMSG->OPT[k++] = HOST_NAME[i];
 1285              		.loc 1 493 23 view .LVU460
 1286 0132 5A79     		ldrb	r2, [r3, #5]	@ zero_extendqisi2
 494:ioLIB/dhcp.c  **** 	pDHCPMSG->OPT[k++] = NibbleToHex(DHCP_CHADDR[3] >> 4); 
 1287              		.loc 1 494 20 view .LVU461
 1288 0134 0CF10500 		add	r0, ip, #5
 1289              	.LVL62:
 493:ioLIB/dhcp.c  ****    	pDHCPMSG->OPT[k++] = HOST_NAME[i];
 1290              		.loc 1 493 33 is_stmt 1 view .LVU462
 493:ioLIB/dhcp.c  ****    	pDHCPMSG->OPT[k++] = HOST_NAME[i];
 1291              		.loc 1 493 14 view .LVU463
 493:ioLIB/dhcp.c  ****    	pDHCPMSG->OPT[k++] = HOST_NAME[i];
 1292              		.loc 1 493 2 is_stmt 0 view .LVU464
 1293 0138 002A     		cmp	r2, #0
 1294 013a 00F04181 		beq	.L77
 494:ioLIB/dhcp.c  **** 	pDHCPMSG->OPT[k++] = NibbleToHex(DHCP_CHADDR[3] >> 4); 
 1295              		.loc 1 494 5 is_stmt 1 view .LVU465
 494:ioLIB/dhcp.c  **** 	pDHCPMSG->OPT[k++] = NibbleToHex(DHCP_CHADDR[3] >> 4); 
 1296              		.loc 1 494 24 is_stmt 0 view .LVU466
 1297 013e 4844     		add	r0, r0, r9
 1298              	.LVL63:
 493:ioLIB/dhcp.c  ****    	pDHCPMSG->OPT[k++] = HOST_NAME[i];
 1299              		.loc 1 493 23 view .LVU467
 1300 0140 9B79     		ldrb	r3, [r3, #6]	@ zero_extendqisi2
 494:ioLIB/dhcp.c  **** 	pDHCPMSG->OPT[k++] = NibbleToHex(DHCP_CHADDR[3] >> 4); 
 1301              		.loc 1 494 24 view .LVU468
 1302 0142 80F8EC20 		strb	r2, [r0, #236]
 494:ioLIB/dhcp.c  **** 	pDHCPMSG->OPT[k++] = NibbleToHex(DHCP_CHADDR[3] >> 4); 
 1303              		.loc 1 494 20 view .LVU469
 1304 0146 0CF10600 		add	r0, ip, #6
 1305              	.LVL64:
 493:ioLIB/dhcp.c  ****    	pDHCPMSG->OPT[k++] = HOST_NAME[i];
 1306              		.loc 1 493 33 is_stmt 1 view .LVU470
 493:ioLIB/dhcp.c  ****    	pDHCPMSG->OPT[k++] = HOST_NAME[i];
 1307              		.loc 1 493 14 view .LVU471
ARM GAS  C:\Users\clay0\AppData\Local\Temp\ccgGhwt3.s 			page 48


 493:ioLIB/dhcp.c  ****    	pDHCPMSG->OPT[k++] = HOST_NAME[i];
 1308              		.loc 1 493 2 is_stmt 0 view .LVU472
 1309 014a 002B     		cmp	r3, #0
 1310 014c 00F04581 		beq	.L78
 494:ioLIB/dhcp.c  **** 	pDHCPMSG->OPT[k++] = NibbleToHex(DHCP_CHADDR[3] >> 4); 
 1311              		.loc 1 494 5 is_stmt 1 discriminator 3 view .LVU473
 494:ioLIB/dhcp.c  **** 	pDHCPMSG->OPT[k++] = NibbleToHex(DHCP_CHADDR[3] >> 4); 
 1312              		.loc 1 494 24 is_stmt 0 discriminator 3 view .LVU474
 1313 0150 4844     		add	r0, r0, r9
 1314              	.LVL65:
 493:ioLIB/dhcp.c  ****    	pDHCPMSG->OPT[k++] = HOST_NAME[i];
 1315              		.loc 1 493 34 discriminator 3 view .LVU475
 1316 0152 0722     		movs	r2, #7
 494:ioLIB/dhcp.c  **** 	pDHCPMSG->OPT[k++] = NibbleToHex(DHCP_CHADDR[3] >> 4); 
 1317              		.loc 1 494 24 discriminator 3 view .LVU476
 1318 0154 80F8EC30 		strb	r3, [r0, #236]
 494:ioLIB/dhcp.c  **** 	pDHCPMSG->OPT[k++] = NibbleToHex(DHCP_CHADDR[3] >> 4); 
 1319              		.loc 1 494 20 discriminator 3 view .LVU477
 1320 0158 0CF10700 		add	r0, ip, #7
 1321              	.LVL66:
 493:ioLIB/dhcp.c  ****    	pDHCPMSG->OPT[k++] = HOST_NAME[i];
 1322              		.loc 1 493 33 is_stmt 1 discriminator 3 view .LVU478
 493:ioLIB/dhcp.c  ****    	pDHCPMSG->OPT[k++] = HOST_NAME[i];
 1323              		.loc 1 493 14 discriminator 3 view .LVU479
 1324              	.L59:
 500:ioLIB/dhcp.c  **** 	pDHCPMSG->OPT[k - (i+6+1)] = i+6; // length of hostname
 1325              		.loc 1 500 17 is_stmt 0 view .LVU480
 1326 015c 831D     		adds	r3, r0, #6
 496:ioLIB/dhcp.c  **** 	pDHCPMSG->OPT[k++] = NibbleToHex(DHCP_CHADDR[4] >> 4); 
 1327              		.loc 1 496 17 view .LVU481
 1328 015e 861C     		adds	r6, r0, #2
 501:ioLIB/dhcp.c  **** 	
 1329              		.loc 1 501 18 view .LVU482
 1330 0160 1FFA83FE 		uxth	lr, r3
 497:ioLIB/dhcp.c  **** 	pDHCPMSG->OPT[k++] = NibbleToHex(DHCP_CHADDR[4]);
 1331              		.loc 1 497 17 view .LVU483
 1332 0164 B3B2     		uxth	r3, r6
 1333 0166 0393     		str	r3, [sp, #12]
 498:ioLIB/dhcp.c  **** 	pDHCPMSG->OPT[k++] = NibbleToHex(DHCP_CHADDR[5] >> 4); 
 1334              		.loc 1 498 17 view .LVU484
 1335 0168 031D     		adds	r3, r0, #4
 499:ioLIB/dhcp.c  **** 	pDHCPMSG->OPT[k++] = NibbleToHex(DHCP_CHADDR[5]);
 1336              		.loc 1 499 17 view .LVU485
 1337 016a 9BB2     		uxth	r3, r3
 1338 016c 0493     		str	r3, [sp, #16]
 1339 016e 431D     		adds	r3, r0, #5
 500:ioLIB/dhcp.c  **** 	pDHCPMSG->OPT[k - (i+6+1)] = i+6; // length of hostname
 1340              		.loc 1 500 17 view .LVU486
 1341 0170 9BB2     		uxth	r3, r3
 1342 0172 0593     		str	r3, [sp, #20]
 503:ioLIB/dhcp.c  **** 	pDHCPMSG->OPT[k++] = 0x08;
 1343              		.loc 1 503 17 view .LVU487
 1344 0174 C31D     		adds	r3, r0, #7
 504:ioLIB/dhcp.c  **** 	pDHCPMSG->OPT[k++] = subnetMask;
 1345              		.loc 1 504 17 view .LVU488
 1346 0176 9BB2     		uxth	r3, r3
 1347 0178 0693     		str	r3, [sp, #24]
ARM GAS  C:\Users\clay0\AppData\Local\Temp\ccgGhwt3.s 			page 49


 1348 017a 00F10803 		add	r3, r0, #8
 505:ioLIB/dhcp.c  **** 	pDHCPMSG->OPT[k++] = routersOnSubnet;
 1349              		.loc 1 505 17 view .LVU489
 1350 017e 9BB2     		uxth	r3, r3
 1351 0180 00F10908 		add	r8, r0, #9
 1352 0184 0793     		str	r3, [sp, #28]
 506:ioLIB/dhcp.c  **** 	pDHCPMSG->OPT[k++] = dns;
 1353              		.loc 1 506 17 view .LVU490
 1354 0186 1FFA88F3 		uxth	r3, r8
 1355 018a 0893     		str	r3, [sp, #32]
 1356 018c 00F10A03 		add	r3, r0, #10
 507:ioLIB/dhcp.c  **** 	pDHCPMSG->OPT[k++] = domainName;
 1357              		.loc 1 507 17 view .LVU491
 1358 0190 9BB2     		uxth	r3, r3
 1359 0192 0993     		str	r3, [sp, #36]
 1360 0194 00F10B03 		add	r3, r0, #11
 508:ioLIB/dhcp.c  **** 	pDHCPMSG->OPT[k++] = dhcpT1value;
 1361              		.loc 1 508 17 view .LVU492
 1362 0198 9BB2     		uxth	r3, r3
 1363 019a 0A93     		str	r3, [sp, #40]
 1364 019c 00F10C03 		add	r3, r0, #12
 509:ioLIB/dhcp.c  **** 	pDHCPMSG->OPT[k++] = dhcpT2value;
 1365              		.loc 1 509 17 view .LVU493
 1366 01a0 9BB2     		uxth	r3, r3
 1367 01a2 0B93     		str	r3, [sp, #44]
 1368 01a4 00F10D03 		add	r3, r0, #13
 510:ioLIB/dhcp.c  **** 	pDHCPMSG->OPT[k++] = performRouterDiscovery;
 1369              		.loc 1 510 17 view .LVU494
 1370 01a8 9BB2     		uxth	r3, r3
 1371 01aa 0C93     		str	r3, [sp, #48]
 1372 01ac 00F10E03 		add	r3, r0, #14
 511:ioLIB/dhcp.c  **** 	pDHCPMSG->OPT[k++] = staticRoute;
 1373              		.loc 1 511 17 view .LVU495
 1374 01b0 9BB2     		uxth	r3, r3
 1375 01b2 0D93     		str	r3, [sp, #52]
 1376 01b4 00F10F03 		add	r3, r0, #15
 512:ioLIB/dhcp.c  **** 	pDHCPMSG->OPT[k++] = endOption;
 1377              		.loc 1 512 17 view .LVU496
 1378 01b8 9BB2     		uxth	r3, r3
 501:ioLIB/dhcp.c  **** 	
 1379              		.loc 1 501 24 view .LVU497
 1380 01ba 02F1070B 		add	fp, r2, #7
 512:ioLIB/dhcp.c  **** 	pDHCPMSG->OPT[k++] = endOption;
 1381              		.loc 1 512 17 view .LVU498
 1382 01be 0E93     		str	r3, [sp, #56]
 1383 01c0 00F11003 		add	r3, r0, #16
 501:ioLIB/dhcp.c  **** 	
 1384              		.loc 1 501 18 view .LVU499
 1385 01c4 AEEB0B0B 		sub	fp, lr, fp
 501:ioLIB/dhcp.c  **** 	
 1386              		.loc 1 501 32 view .LVU500
 1387 01c8 02F1060C 		add	ip, r2, #6
 495:ioLIB/dhcp.c  **** 	pDHCPMSG->OPT[k++] = NibbleToHex(DHCP_CHADDR[3]);
 1388              		.loc 1 495 17 view .LVU501
 1389 01cc 471C     		adds	r7, r0, #1
 497:ioLIB/dhcp.c  **** 	pDHCPMSG->OPT[k++] = NibbleToHex(DHCP_CHADDR[4]);
 1390              		.loc 1 497 17 view .LVU502
ARM GAS  C:\Users\clay0\AppData\Local\Temp\ccgGhwt3.s 			page 50


 1391 01ce 00F1030A 		add	r10, r0, #3
 513:ioLIB/dhcp.c  **** 
 1392              		.loc 1 513 17 view .LVU503
 1393 01d2 9BB2     		uxth	r3, r3
 1394 01d4 00F11102 		add	r2, r0, #17
 1395 01d8 CB44     		add	fp, fp, r9
 496:ioLIB/dhcp.c  **** 	pDHCPMSG->OPT[k++] = NibbleToHex(DHCP_CHADDR[4] >> 4); 
 1396              		.loc 1 496 17 view .LVU504
 1397 01da BFB2     		uxth	r7, r7
 498:ioLIB/dhcp.c  **** 	pDHCPMSG->OPT[k++] = NibbleToHex(DHCP_CHADDR[5] >> 4); 
 1398              		.loc 1 498 17 view .LVU505
 1399 01dc 1FFA8AFA 		uxth	r10, r10
 513:ioLIB/dhcp.c  **** 
 1400              		.loc 1 513 17 view .LVU506
 1401 01e0 0F93     		str	r3, [sp, #60]
 515:ioLIB/dhcp.c  **** 
 1402              		.loc 1 515 9 view .LVU507
 1403 01e2 92B2     		uxth	r2, r2
 1404              	.LVL67:
 1405              	.L58:
 495:ioLIB/dhcp.c  **** 	pDHCPMSG->OPT[k++] = NibbleToHex(DHCP_CHADDR[3]);
 1406              		.loc 1 495 2 is_stmt 1 view .LVU508
 495:ioLIB/dhcp.c  **** 	pDHCPMSG->OPT[k++] = NibbleToHex(DHCP_CHADDR[3]);
 1407              		.loc 1 495 23 is_stmt 0 view .LVU509
 1408 01e4 2B09     		lsrs	r3, r5, #4
 1409              	.LVL68:
 1410              	.LBB86:
 1411              	.LBI86:
1014:ioLIB/dhcp.c  **** {
 1412              		.loc 1 1014 6 is_stmt 1 view .LVU510
 1413              	.LBB87:
1016:ioLIB/dhcp.c  ****   if (nibble <= 9)
 1414              		.loc 1 1016 3 view .LVU511
1017:ioLIB/dhcp.c  ****     return nibble + '0';
 1415              		.loc 1 1017 3 view .LVU512
1018:ioLIB/dhcp.c  ****   else 
 1416              		.loc 1 1018 5 view .LVU513
 1417              		.loc 1 1020 5 view .LVU514
 1418              		.loc 1 1020 5 is_stmt 0 view .LVU515
 1419              	.LBE87:
 1420              	.LBE86:
 497:ioLIB/dhcp.c  **** 	pDHCPMSG->OPT[k++] = NibbleToHex(DHCP_CHADDR[4]);
 1421              		.loc 1 497 21 view .LVU516
 1422 01e6 039E     		ldr	r6, [sp, #12]
 1423              	.LBB90:
 1424              	.LBB88:
1017:ioLIB/dhcp.c  ****     return nibble + '0';
 1425              		.loc 1 1017 6 view .LVU517
 1426 01e8 9F2D     		cmp	r5, #159
 1427              	.LBE88:
 1428              	.LBE90:
 495:ioLIB/dhcp.c  **** 	pDHCPMSG->OPT[k++] = NibbleToHex(DHCP_CHADDR[3]);
 1429              		.loc 1 495 21 view .LVU518
 1430 01ea 4844     		add	r0, r0, r9
 1431              	.LBB91:
 1432              	.LBB92:
1016:ioLIB/dhcp.c  ****   if (nibble <= 9)
ARM GAS  C:\Users\clay0\AppData\Local\Temp\ccgGhwt3.s 			page 51


 1433              		.loc 1 1016 10 view .LVU519
 1434 01ec 05F00F05 		and	r5, r5, #15
 1435              	.LBE92:
 1436              	.LBE91:
 1437              	.LBB96:
 1438              	.LBB89:
1018:ioLIB/dhcp.c  ****   else 
 1439              		.loc 1 1018 19 view .LVU520
 1440 01f0 94BF     		ite	ls
 1441 01f2 3033     		addls	r3, r3, #48
 1442              		.loc 1 1020 19 view .LVU521
 1443 01f4 3733     		addhi	r3, r3, #55
 1444              	.LBE89:
 1445              	.LBE96:
 1446              	.LBB97:
 1447              	.LBB93:
1017:ioLIB/dhcp.c  ****     return nibble + '0';
 1448              		.loc 1 1017 6 view .LVU522
 1449 01f6 092D     		cmp	r5, #9
 1450              	.LBE93:
 1451              	.LBE97:
 495:ioLIB/dhcp.c  **** 	pDHCPMSG->OPT[k++] = NibbleToHex(DHCP_CHADDR[3]);
 1452              		.loc 1 495 21 view .LVU523
 1453 01f8 80F8EC30 		strb	r3, [r0, #236]
 496:ioLIB/dhcp.c  **** 	pDHCPMSG->OPT[k++] = NibbleToHex(DHCP_CHADDR[4] >> 4); 
 1454              		.loc 1 496 2 is_stmt 1 view .LVU524
 1455              	.LBB98:
 1456              	.LBI91:
1014:ioLIB/dhcp.c  **** {
 1457              		.loc 1 1014 6 view .LVU525
 1458              	.LBB94:
1016:ioLIB/dhcp.c  ****   if (nibble <= 9)
 1459              		.loc 1 1016 3 view .LVU526
 1460              	.LVL69:
1017:ioLIB/dhcp.c  ****     return nibble + '0';
 1461              		.loc 1 1017 3 view .LVU527
1018:ioLIB/dhcp.c  ****   else 
 1462              		.loc 1 1018 5 view .LVU528
 1463              		.loc 1 1020 5 view .LVU529
1018:ioLIB/dhcp.c  ****   else 
 1464              		.loc 1 1018 19 is_stmt 0 view .LVU530
 1465 01fc 98BF     		it	ls
 1466 01fe 3035     		addls	r5, r5, #48
 1467              	.LBE94:
 1468              	.LBE98:
 497:ioLIB/dhcp.c  **** 	pDHCPMSG->OPT[k++] = NibbleToHex(DHCP_CHADDR[4]);
 1469              		.loc 1 497 23 view .LVU531
 1470 0200 4FEA1413 		lsr	r3, r4, #4
 499:ioLIB/dhcp.c  **** 	pDHCPMSG->OPT[k++] = NibbleToHex(DHCP_CHADDR[5]);
 1471              		.loc 1 499 21 view .LVU532
 1472 0204 0498     		ldr	r0, [sp, #16]
 1473              	.LBB99:
 1474              	.LBB95:
 1475              		.loc 1 1020 19 view .LVU533
 1476 0206 88BF     		it	hi
 1477 0208 3735     		addhi	r5, r5, #55
 1478              	.LBE95:
ARM GAS  C:\Users\clay0\AppData\Local\Temp\ccgGhwt3.s 			page 52


 1479              	.LBE99:
 496:ioLIB/dhcp.c  **** 	pDHCPMSG->OPT[k++] = NibbleToHex(DHCP_CHADDR[4] >> 4); 
 1480              		.loc 1 496 21 view .LVU534
 1481 020a 4F44     		add	r7, r7, r9
 1482              	.LBB100:
 1483              	.LBB101:
1017:ioLIB/dhcp.c  ****     return nibble + '0';
 1484              		.loc 1 1017 6 view .LVU535
 1485 020c 9F2C     		cmp	r4, #159
 1486              	.LBE101:
 1487              	.LBE100:
 497:ioLIB/dhcp.c  **** 	pDHCPMSG->OPT[k++] = NibbleToHex(DHCP_CHADDR[4]);
 1488              		.loc 1 497 21 view .LVU536
 1489 020e 4E44     		add	r6, r6, r9
 1490              	.LBB104:
 1491              	.LBB105:
1016:ioLIB/dhcp.c  ****   if (nibble <= 9)
 1492              		.loc 1 1016 10 view .LVU537
 1493 0210 04F00F04 		and	r4, r4, #15
 1494              	.LBE105:
 1495              	.LBE104:
 1496              	.LBB109:
 1497              	.LBB102:
1018:ioLIB/dhcp.c  ****   else 
 1498              		.loc 1 1018 19 view .LVU538
 1499 0214 94BF     		ite	ls
 1500 0216 3033     		addls	r3, r3, #48
 1501              		.loc 1 1020 19 view .LVU539
 1502 0218 3733     		addhi	r3, r3, #55
 1503              	.LBE102:
 1504              	.LBE109:
 1505              	.LBB110:
 1506              	.LBB106:
1017:ioLIB/dhcp.c  ****     return nibble + '0';
 1507              		.loc 1 1017 6 view .LVU540
 1508 021a 092C     		cmp	r4, #9
 1509              	.LBE106:
 1510              	.LBE110:
 496:ioLIB/dhcp.c  **** 	pDHCPMSG->OPT[k++] = NibbleToHex(DHCP_CHADDR[4] >> 4); 
 1511              		.loc 1 496 21 view .LVU541
 1512 021c 87F8EC50 		strb	r5, [r7, #236]
 497:ioLIB/dhcp.c  **** 	pDHCPMSG->OPT[k++] = NibbleToHex(DHCP_CHADDR[4]);
 1513              		.loc 1 497 2 is_stmt 1 view .LVU542
 1514              	.LBB111:
 1515              	.LBI100:
1014:ioLIB/dhcp.c  **** {
 1516              		.loc 1 1014 6 view .LVU543
 1517              	.LBB103:
1016:ioLIB/dhcp.c  ****   if (nibble <= 9)
 1518              		.loc 1 1016 3 view .LVU544
1017:ioLIB/dhcp.c  ****     return nibble + '0';
 1519              		.loc 1 1017 3 view .LVU545
1018:ioLIB/dhcp.c  ****   else 
 1520              		.loc 1 1018 5 view .LVU546
 1521              		.loc 1 1020 5 view .LVU547
 1522              	.LBE103:
 1523              	.LBE111:
ARM GAS  C:\Users\clay0\AppData\Local\Temp\ccgGhwt3.s 			page 53


 1524              	.LBB112:
 1525              	.LBB107:
1018:ioLIB/dhcp.c  ****   else 
 1526              		.loc 1 1018 19 is_stmt 0 view .LVU548
 1527 0220 98BF     		it	ls
 1528 0222 3034     		addls	r4, r4, #48
 1529              	.LBE107:
 1530              	.LBE112:
 497:ioLIB/dhcp.c  **** 	pDHCPMSG->OPT[k++] = NibbleToHex(DHCP_CHADDR[4]);
 1531              		.loc 1 497 21 view .LVU549
 1532 0224 86F8EC30 		strb	r3, [r6, #236]
 498:ioLIB/dhcp.c  **** 	pDHCPMSG->OPT[k++] = NibbleToHex(DHCP_CHADDR[5] >> 4); 
 1533              		.loc 1 498 2 is_stmt 1 view .LVU550
 1534              	.LBB113:
 1535              	.LBI104:
1014:ioLIB/dhcp.c  **** {
 1536              		.loc 1 1014 6 view .LVU551
 1537              	.LBB108:
1016:ioLIB/dhcp.c  ****   if (nibble <= 9)
 1538              		.loc 1 1016 3 view .LVU552
1017:ioLIB/dhcp.c  ****     return nibble + '0';
 1539              		.loc 1 1017 3 view .LVU553
1018:ioLIB/dhcp.c  ****   else 
 1540              		.loc 1 1018 5 view .LVU554
 1541              		.loc 1 1020 5 view .LVU555
 1542              		.loc 1 1020 19 is_stmt 0 view .LVU556
 1543 0228 88BF     		it	hi
 1544 022a 3734     		addhi	r4, r4, #55
 1545              	.LBE108:
 1546              	.LBE113:
 499:ioLIB/dhcp.c  **** 	pDHCPMSG->OPT[k++] = NibbleToHex(DHCP_CHADDR[5]);
 1547              		.loc 1 499 23 view .LVU557
 1548 022c 0B09     		lsrs	r3, r1, #4
 1549              	.LBB114:
 1550              	.LBB115:
1017:ioLIB/dhcp.c  ****     return nibble + '0';
 1551              		.loc 1 1017 6 view .LVU558
 1552 022e 9F29     		cmp	r1, #159
 1553              	.LBE115:
 1554              	.LBE114:
 498:ioLIB/dhcp.c  **** 	pDHCPMSG->OPT[k++] = NibbleToHex(DHCP_CHADDR[5] >> 4); 
 1555              		.loc 1 498 21 view .LVU559
 1556 0230 CA44     		add	r10, r10, r9
 499:ioLIB/dhcp.c  **** 	pDHCPMSG->OPT[k++] = NibbleToHex(DHCP_CHADDR[5]);
 1557              		.loc 1 499 21 view .LVU560
 1558 0232 4844     		add	r0, r0, r9
 1559              	.LBB118:
 1560              	.LBB116:
1018:ioLIB/dhcp.c  ****   else 
 1561              		.loc 1 1018 19 view .LVU561
 1562 0234 94BF     		ite	ls
 1563 0236 3033     		addls	r3, r3, #48
 1564              		.loc 1 1020 19 view .LVU562
 1565 0238 3733     		addhi	r3, r3, #55
 1566              	.LBE116:
 1567              	.LBE118:
 498:ioLIB/dhcp.c  **** 	pDHCPMSG->OPT[k++] = NibbleToHex(DHCP_CHADDR[5] >> 4); 
ARM GAS  C:\Users\clay0\AppData\Local\Temp\ccgGhwt3.s 			page 54


 1568              		.loc 1 498 21 view .LVU563
 1569 023a 8AF8EC40 		strb	r4, [r10, #236]
 499:ioLIB/dhcp.c  **** 	pDHCPMSG->OPT[k++] = NibbleToHex(DHCP_CHADDR[5]);
 1570              		.loc 1 499 2 is_stmt 1 view .LVU564
 1571              	.LBB119:
 1572              	.LBI114:
1014:ioLIB/dhcp.c  **** {
 1573              		.loc 1 1014 6 view .LVU565
 1574              	.LBB117:
1016:ioLIB/dhcp.c  ****   if (nibble <= 9)
 1575              		.loc 1 1016 3 view .LVU566
1017:ioLIB/dhcp.c  ****     return nibble + '0';
 1576              		.loc 1 1017 3 view .LVU567
1018:ioLIB/dhcp.c  ****   else 
 1577              		.loc 1 1018 5 view .LVU568
 1578              		.loc 1 1020 5 view .LVU569
 1579              	.LBE117:
 1580              	.LBE119:
 499:ioLIB/dhcp.c  **** 	pDHCPMSG->OPT[k++] = NibbleToHex(DHCP_CHADDR[5]);
 1581              		.loc 1 499 21 is_stmt 0 view .LVU570
 1582 023e 80F8EC30 		strb	r3, [r0, #236]
 500:ioLIB/dhcp.c  **** 	pDHCPMSG->OPT[k - (i+6+1)] = i+6; // length of hostname
 1583              		.loc 1 500 2 is_stmt 1 view .LVU571
 1584              	.LVL70:
 1585              	.LBB120:
 1586              	.LBI120:
1014:ioLIB/dhcp.c  **** {
 1587              		.loc 1 1014 6 view .LVU572
 1588              	.LBB121:
1016:ioLIB/dhcp.c  ****   if (nibble <= 9)
 1589              		.loc 1 1016 3 view .LVU573
 1590              	.LBE121:
 1591              	.LBE120:
 500:ioLIB/dhcp.c  **** 	pDHCPMSG->OPT[k - (i+6+1)] = i+6; // length of hostname
 1592              		.loc 1 500 21 is_stmt 0 view .LVU574
 1593 0242 059B     		ldr	r3, [sp, #20]
 506:ioLIB/dhcp.c  **** 	pDHCPMSG->OPT[k++] = dns;
 1594              		.loc 1 506 21 view .LVU575
 1595 0244 0898     		ldr	r0, [sp, #32]
 507:ioLIB/dhcp.c  **** 	pDHCPMSG->OPT[k++] = domainName;
 1596              		.loc 1 507 21 view .LVU576
 1597 0246 099F     		ldr	r7, [sp, #36]
 508:ioLIB/dhcp.c  **** 	pDHCPMSG->OPT[k++] = dhcpT1value;
 1598              		.loc 1 508 21 view .LVU577
 1599 0248 0A9E     		ldr	r6, [sp, #40]
 509:ioLIB/dhcp.c  **** 	pDHCPMSG->OPT[k++] = dhcpT2value;
 1600              		.loc 1 509 21 view .LVU578
 1601 024a 0B9D     		ldr	r5, [sp, #44]
 510:ioLIB/dhcp.c  **** 	pDHCPMSG->OPT[k++] = performRouterDiscovery;
 1602              		.loc 1 510 21 view .LVU579
 1603 024c 0C9C     		ldr	r4, [sp, #48]
 1604              	.LBB124:
 1605              	.LBB122:
1016:ioLIB/dhcp.c  ****   if (nibble <= 9)
 1606              		.loc 1 1016 10 view .LVU580
 1607 024e 01F00F01 		and	r1, r1, #15
 1608              	.LVL71:
ARM GAS  C:\Users\clay0\AppData\Local\Temp\ccgGhwt3.s 			page 55


1017:ioLIB/dhcp.c  ****     return nibble + '0';
 1609              		.loc 1 1017 3 is_stmt 1 view .LVU581
1018:ioLIB/dhcp.c  ****   else 
 1610              		.loc 1 1018 5 view .LVU582
 1611              		.loc 1 1020 5 view .LVU583
1017:ioLIB/dhcp.c  ****     return nibble + '0';
 1612              		.loc 1 1017 6 is_stmt 0 view .LVU584
 1613 0252 0929     		cmp	r1, #9
 1614              	.LBE122:
 1615              	.LBE124:
 500:ioLIB/dhcp.c  **** 	pDHCPMSG->OPT[k - (i+6+1)] = i+6; // length of hostname
 1616              		.loc 1 500 21 view .LVU585
 1617 0254 4B44     		add	r3, r3, r9
 1618              	.LBB125:
 1619              	.LBB123:
1018:ioLIB/dhcp.c  ****   else 
 1620              		.loc 1 1018 19 view .LVU586
 1621 0256 94BF     		ite	ls
 1622 0258 3031     		addls	r1, r1, #48
 1623              		.loc 1 1020 19 view .LVU587
 1624 025a 3731     		addhi	r1, r1, #55
 1625              	.LBE123:
 1626              	.LBE125:
 500:ioLIB/dhcp.c  **** 	pDHCPMSG->OPT[k - (i+6+1)] = i+6; // length of hostname
 1627              		.loc 1 500 21 view .LVU588
 1628 025c 83F8EC10 		strb	r1, [r3, #236]
 501:ioLIB/dhcp.c  **** 	
 1629              		.loc 1 501 2 is_stmt 1 view .LVU589
 504:ioLIB/dhcp.c  **** 	pDHCPMSG->OPT[k++] = subnetMask;
 1630              		.loc 1 504 21 is_stmt 0 view .LVU590
 1631 0260 0699     		ldr	r1, [sp, #24]
 501:ioLIB/dhcp.c  **** 	
 1632              		.loc 1 501 29 view .LVU591
 1633 0262 8BF8ECC0 		strb	ip, [fp, #236]
 503:ioLIB/dhcp.c  **** 	pDHCPMSG->OPT[k++] = 0x08;
 1634              		.loc 1 503 2 is_stmt 1 view .LVU592
 504:ioLIB/dhcp.c  **** 	pDHCPMSG->OPT[k++] = subnetMask;
 1635              		.loc 1 504 21 is_stmt 0 view .LVU593
 1636 0266 4944     		add	r1, r1, r9
 506:ioLIB/dhcp.c  **** 	pDHCPMSG->OPT[k++] = dns;
 1637              		.loc 1 506 21 view .LVU594
 1638 0268 4844     		add	r0, r0, r9
 503:ioLIB/dhcp.c  **** 	pDHCPMSG->OPT[k++] = 0x08;
 1639              		.loc 1 503 21 view .LVU595
 1640 026a 09EB0E03 		add	r3, r9, lr
 504:ioLIB/dhcp.c  **** 	pDHCPMSG->OPT[k++] = subnetMask;
 1641              		.loc 1 504 21 view .LVU596
 1642 026e 8A46     		mov	r10, r1
 506:ioLIB/dhcp.c  **** 	pDHCPMSG->OPT[k++] = dns;
 1643              		.loc 1 506 21 view .LVU597
 1644 0270 8046     		mov	r8, r0
 505:ioLIB/dhcp.c  **** 	pDHCPMSG->OPT[k++] = routersOnSubnet;
 1645              		.loc 1 505 21 view .LVU598
 1646 0272 0799     		ldr	r1, [sp, #28]
 511:ioLIB/dhcp.c  **** 	pDHCPMSG->OPT[k++] = staticRoute;
 1647              		.loc 1 511 21 view .LVU599
 1648 0274 0D98     		ldr	r0, [sp, #52]
ARM GAS  C:\Users\clay0\AppData\Local\Temp\ccgGhwt3.s 			page 56


 503:ioLIB/dhcp.c  **** 	pDHCPMSG->OPT[k++] = 0x08;
 1649              		.loc 1 503 21 view .LVU600
 1650 0276 4FF0370B 		mov	fp, #55
 1651 027a 83F8ECB0 		strb	fp, [r3, #236]
 504:ioLIB/dhcp.c  **** 	pDHCPMSG->OPT[k++] = subnetMask;
 1652              		.loc 1 504 2 is_stmt 1 view .LVU601
 505:ioLIB/dhcp.c  **** 	pDHCPMSG->OPT[k++] = routersOnSubnet;
 1653              		.loc 1 505 21 is_stmt 0 view .LVU602
 1654 027e 4944     		add	r1, r1, r9
 511:ioLIB/dhcp.c  **** 	pDHCPMSG->OPT[k++] = staticRoute;
 1655              		.loc 1 511 21 view .LVU603
 1656 0280 4844     		add	r0, r0, r9
 504:ioLIB/dhcp.c  **** 	pDHCPMSG->OPT[k++] = subnetMask;
 1657              		.loc 1 504 21 view .LVU604
 1658 0282 0823     		movs	r3, #8
 1659 0284 8AF8EC30 		strb	r3, [r10, #236]
 505:ioLIB/dhcp.c  **** 	pDHCPMSG->OPT[k++] = routersOnSubnet;
 1660              		.loc 1 505 2 is_stmt 1 view .LVU605
 511:ioLIB/dhcp.c  **** 	pDHCPMSG->OPT[k++] = staticRoute;
 1661              		.loc 1 511 21 is_stmt 0 view .LVU606
 1662 0288 8646     		mov	lr, r0
 505:ioLIB/dhcp.c  **** 	pDHCPMSG->OPT[k++] = routersOnSubnet;
 1663              		.loc 1 505 21 view .LVU607
 1664 028a 0123     		movs	r3, #1
 512:ioLIB/dhcp.c  **** 	pDHCPMSG->OPT[k++] = endOption;
 1665              		.loc 1 512 21 view .LVU608
 1666 028c 0E98     		ldr	r0, [sp, #56]
 505:ioLIB/dhcp.c  **** 	pDHCPMSG->OPT[k++] = routersOnSubnet;
 1667              		.loc 1 505 21 view .LVU609
 1668 028e 81F8EC30 		strb	r3, [r1, #236]
 506:ioLIB/dhcp.c  **** 	pDHCPMSG->OPT[k++] = dns;
 1669              		.loc 1 506 2 is_stmt 1 view .LVU610
 507:ioLIB/dhcp.c  **** 	pDHCPMSG->OPT[k++] = domainName;
 1670              		.loc 1 507 21 is_stmt 0 view .LVU611
 1671 0292 4F44     		add	r7, r7, r9
 506:ioLIB/dhcp.c  **** 	pDHCPMSG->OPT[k++] = dns;
 1672              		.loc 1 506 21 view .LVU612
 1673 0294 0323     		movs	r3, #3
 1674 0296 88F8EC30 		strb	r3, [r8, #236]
 507:ioLIB/dhcp.c  **** 	pDHCPMSG->OPT[k++] = domainName;
 1675              		.loc 1 507 2 is_stmt 1 view .LVU613
 512:ioLIB/dhcp.c  **** 	pDHCPMSG->OPT[k++] = endOption;
 1676              		.loc 1 512 21 is_stmt 0 view .LVU614
 1677 029a 4844     		add	r0, r0, r9
 508:ioLIB/dhcp.c  **** 	pDHCPMSG->OPT[k++] = dhcpT1value;
 1678              		.loc 1 508 21 view .LVU615
 1679 029c 4E44     		add	r6, r6, r9
 507:ioLIB/dhcp.c  **** 	pDHCPMSG->OPT[k++] = domainName;
 1680              		.loc 1 507 21 view .LVU616
 1681 029e 0623     		movs	r3, #6
 1682 02a0 87F8EC30 		strb	r3, [r7, #236]
 508:ioLIB/dhcp.c  **** 	pDHCPMSG->OPT[k++] = dhcpT1value;
 1683              		.loc 1 508 2 is_stmt 1 view .LVU617
 512:ioLIB/dhcp.c  **** 	pDHCPMSG->OPT[k++] = endOption;
 1684              		.loc 1 512 21 is_stmt 0 view .LVU618
 1685 02a4 8446     		mov	ip, r0
 509:ioLIB/dhcp.c  **** 	pDHCPMSG->OPT[k++] = dhcpT2value;
ARM GAS  C:\Users\clay0\AppData\Local\Temp\ccgGhwt3.s 			page 57


 1686              		.loc 1 509 21 view .LVU619
 1687 02a6 4D44     		add	r5, r5, r9
 513:ioLIB/dhcp.c  **** 
 1688              		.loc 1 513 21 view .LVU620
 1689 02a8 0F98     		ldr	r0, [sp, #60]
 508:ioLIB/dhcp.c  **** 	pDHCPMSG->OPT[k++] = dhcpT1value;
 1690              		.loc 1 508 21 view .LVU621
 1691 02aa 0F23     		movs	r3, #15
 1692 02ac 86F8EC30 		strb	r3, [r6, #236]
 509:ioLIB/dhcp.c  **** 	pDHCPMSG->OPT[k++] = dhcpT2value;
 1693              		.loc 1 509 2 is_stmt 1 view .LVU622
 510:ioLIB/dhcp.c  **** 	pDHCPMSG->OPT[k++] = performRouterDiscovery;
 1694              		.loc 1 510 21 is_stmt 0 view .LVU623
 1695 02b0 4C44     		add	r4, r4, r9
 509:ioLIB/dhcp.c  **** 	pDHCPMSG->OPT[k++] = dhcpT2value;
 1696              		.loc 1 509 21 view .LVU624
 1697 02b2 3A23     		movs	r3, #58
 1698 02b4 85F8EC30 		strb	r3, [r5, #236]
 510:ioLIB/dhcp.c  **** 	pDHCPMSG->OPT[k++] = performRouterDiscovery;
 1699              		.loc 1 510 2 is_stmt 1 view .LVU625
 513:ioLIB/dhcp.c  **** 
 1700              		.loc 1 513 21 is_stmt 0 view .LVU626
 1701 02b8 4844     		add	r0, r0, r9
 510:ioLIB/dhcp.c  **** 	pDHCPMSG->OPT[k++] = performRouterDiscovery;
 1702              		.loc 1 510 21 view .LVU627
 1703 02ba 3B23     		movs	r3, #59
 1704 02bc 84F8EC30 		strb	r3, [r4, #236]
 511:ioLIB/dhcp.c  **** 	pDHCPMSG->OPT[k++] = staticRoute;
 1705              		.loc 1 511 2 is_stmt 1 view .LVU628
 513:ioLIB/dhcp.c  **** 
 1706              		.loc 1 513 21 is_stmt 0 view .LVU629
 1707 02c0 0390     		str	r0, [sp, #12]
 511:ioLIB/dhcp.c  **** 	pDHCPMSG->OPT[k++] = staticRoute;
 1708              		.loc 1 511 21 view .LVU630
 1709 02c2 1F23     		movs	r3, #31
 1710 02c4 8EF8EC30 		strb	r3, [lr, #236]
 512:ioLIB/dhcp.c  **** 	pDHCPMSG->OPT[k++] = endOption;
 1711              		.loc 1 512 2 is_stmt 1 view .LVU631
 513:ioLIB/dhcp.c  **** 
 1712              		.loc 1 513 21 is_stmt 0 view .LVU632
 1713 02c8 0399     		ldr	r1, [sp, #12]
 512:ioLIB/dhcp.c  **** 	pDHCPMSG->OPT[k++] = endOption;
 1714              		.loc 1 512 21 view .LVU633
 1715 02ca 2123     		movs	r3, #33
 1716 02cc 8CF8EC30 		strb	r3, [ip, #236]
 513:ioLIB/dhcp.c  **** 
 1717              		.loc 1 513 2 is_stmt 1 view .LVU634
 515:ioLIB/dhcp.c  **** 
 1718              		.loc 1 515 50 is_stmt 0 view .LVU635
 1719 02d0 02F1EC00 		add	r0, r2, #236
 513:ioLIB/dhcp.c  **** 
 1720              		.loc 1 513 21 view .LVU636
 1721 02d4 FF23     		movs	r3, #255
 1722 02d6 81F8EC30 		strb	r3, [r1, #236]
 515:ioLIB/dhcp.c  **** 
 1723              		.loc 1 515 2 is_stmt 1 view .LVU637
 515:ioLIB/dhcp.c  **** 
ARM GAS  C:\Users\clay0\AppData\Local\Temp\ccgGhwt3.s 			page 58


 1724              		.loc 1 515 14 view .LVU638
 515:ioLIB/dhcp.c  **** 
 1725              		.loc 1 515 50 is_stmt 0 view .LVU639
 1726 02da C2F59C72 		rsb	r2, r2, #312
 1727 02de 4844     		add	r0, r0, r9
 1728 02e0 0021     		movs	r1, #0
 1729 02e2 FFF7FEFF 		bl	memset
 1730              	.LVL72:
 521:ioLIB/dhcp.c  **** 
 1731              		.loc 1 521 2 is_stmt 1 view .LVU640
 1732 02e6 0D4A     		ldr	r2, .L84+28
 1733 02e8 4323     		movs	r3, #67
 1734 02ea 1078     		ldrb	r0, [r2]	@ zero_extendqisi2
 1735 02ec 0093     		str	r3, [sp]
 1736 02ee 4FF40972 		mov	r2, #548
 1737 02f2 11AB     		add	r3, sp, #68
 1738 02f4 4946     		mov	r1, r9
 1739 02f6 FFF7FEFF 		bl	sendto
 1740              	.LVL73:
 523:ioLIB/dhcp.c  **** 
 1741              		.loc 1 523 1 is_stmt 0 view .LVU641
 1742 02fa 13B0     		add	sp, sp, #76
 1743              	.LCFI17:
 1744              		.cfi_remember_state
 1745              		.cfi_def_cfa_offset 36
 1746              		@ sp needed
 1747 02fc BDE8F08F 		pop	{r4, r5, r6, r7, r8, r9, r10, fp, pc}
 1748              	.L85:
 1749              		.align	2
 1750              	.L84:
 1751 0300 00000000 		.word	.LANCHOR13
 1752 0304 00000000 		.word	.LANCHOR7
 1753 0308 00000000 		.word	.LANCHOR3
 1754 030c 3501033D 		.word	1023607093
 1755 0310 00000000 		.word	.LANCHOR0
 1756 0314 00000000 		.word	.LANCHOR9
 1757 0318 00000000 		.word	.LANCHOR11
 1758 031c 00000000 		.word	.LANCHOR12
 1759              	.LVL74:
 1760              	.L83:
 1761              	.LCFI18:
 1762              		.cfi_restore_state
 437:ioLIB/dhcp.c  ****    	*((uint8_t*)(&pDHCPMSG->flags)+1) = (DHCP_FLAGSUNICAST & 0x00FF);
 1763              		.loc 1 437 5 is_stmt 1 view .LVU642
 437:ioLIB/dhcp.c  ****    	*((uint8_t*)(&pDHCPMSG->flags)+1) = (DHCP_FLAGSUNICAST & 0x00FF);
 1764              		.loc 1 437 27 is_stmt 0 view .LVU643
 1765 0320 2F4B     		ldr	r3, .L86
 439:ioLIB/dhcp.c  ****    	pDHCPMSG->ciaddr[1] = DHCP_allocated_ip[1];
 1766              		.loc 1 439 44 view .LVU644
 1767 0322 3048     		ldr	r0, .L86+4
 437:ioLIB/dhcp.c  ****    	*((uint8_t*)(&pDHCPMSG->flags)+1) = (DHCP_FLAGSUNICAST & 0x00FF);
 1768              		.loc 1 437 27 view .LVU645
 1769 0324 D3F80090 		ldr	r9, [r3]
 446:ioLIB/dhcp.c  ****    }
 1770              		.loc 1 446 21 view .LVU646
 1771 0328 2F4A     		ldr	r2, .L86+8
 437:ioLIB/dhcp.c  ****    	*((uint8_t*)(&pDHCPMSG->flags)+1) = (DHCP_FLAGSUNICAST & 0x00FF);
ARM GAS  C:\Users\clay0\AppData\Local\Temp\ccgGhwt3.s 			page 59


 1772              		.loc 1 437 39 view .LVU647
 1773 032a 0023     		movs	r3, #0
 1774 032c 89F80A30 		strb	r3, [r9, #10]
 438:ioLIB/dhcp.c  ****    	pDHCPMSG->ciaddr[0] = DHCP_allocated_ip[0];
 1775              		.loc 1 438 5 is_stmt 1 view .LVU648
 438:ioLIB/dhcp.c  ****    	pDHCPMSG->ciaddr[0] = DHCP_allocated_ip[0];
 1776              		.loc 1 438 39 is_stmt 0 view .LVU649
 1777 0330 89F80B30 		strb	r3, [r9, #11]
 439:ioLIB/dhcp.c  ****    	pDHCPMSG->ciaddr[1] = DHCP_allocated_ip[1];
 1778              		.loc 1 439 5 is_stmt 1 view .LVU650
 440:ioLIB/dhcp.c  ****    	pDHCPMSG->ciaddr[2] = DHCP_allocated_ip[2];
 1779              		.loc 1 440 5 view .LVU651
 441:ioLIB/dhcp.c  ****    	pDHCPMSG->ciaddr[3] = DHCP_allocated_ip[3];
 1780              		.loc 1 441 5 view .LVU652
 442:ioLIB/dhcp.c  ****    	ip[0] = DHCP_SIP[0];
 1781              		.loc 1 442 5 view .LVU653
 439:ioLIB/dhcp.c  ****    	pDHCPMSG->ciaddr[1] = DHCP_allocated_ip[1];
 1782              		.loc 1 439 25 is_stmt 0 view .LVU654
 1783 0334 0368     		ldr	r3, [r0]
 1784 0336 C9F80C30 		str	r3, [r9, #12]
 443:ioLIB/dhcp.c  ****    	ip[1] = DHCP_SIP[1];
 1785              		.loc 1 443 5 is_stmt 1 view .LVU655
 444:ioLIB/dhcp.c  ****    	ip[2] = DHCP_SIP[2];
 1786              		.loc 1 444 5 view .LVU656
 445:ioLIB/dhcp.c  ****    	ip[3] = DHCP_SIP[3];   	   	   	
 1787              		.loc 1 445 5 view .LVU657
 446:ioLIB/dhcp.c  ****    }
 1788              		.loc 1 446 5 view .LVU658
 443:ioLIB/dhcp.c  ****    	ip[1] = DHCP_SIP[1];
 1789              		.loc 1 443 11 is_stmt 0 view .LVU659
 1790 033a 1368     		ldr	r3, [r2]
 1791 033c 1193     		str	r3, [sp, #68]
 456:ioLIB/dhcp.c  **** 	
 1792              		.loc 1 456 4 is_stmt 1 view .LVU660
 1793              	.LVL75:
 459:ioLIB/dhcp.c  **** 	pDHCPMSG->OPT[k++] = 0x01;
 1794              		.loc 1 459 2 view .LVU661
 460:ioLIB/dhcp.c  **** 	pDHCPMSG->OPT[k++] = DHCP_REQUEST;
 1795              		.loc 1 460 2 view .LVU662
 461:ioLIB/dhcp.c  **** 
 1796              		.loc 1 461 2 view .LVU663
 463:ioLIB/dhcp.c  **** 	pDHCPMSG->OPT[k++] = 0x07;
 1797              		.loc 1 463 2 view .LVU664
 464:ioLIB/dhcp.c  **** 	pDHCPMSG->OPT[k++] = 0x01;
 1798              		.loc 1 464 2 view .LVU665
 465:ioLIB/dhcp.c  **** 	pDHCPMSG->OPT[k++] = DHCP_CHADDR[0];
 1799              		.loc 1 465 2 view .LVU666
 459:ioLIB/dhcp.c  **** 	pDHCPMSG->OPT[k++] = 0x01;
 1800              		.loc 1 459 21 is_stmt 0 view .LVU667
 1801 033e 2B4B     		ldr	r3, .L86+12
 1802 0340 C9F8F030 		str	r3, [r9, #240]
 464:ioLIB/dhcp.c  **** 	pDHCPMSG->OPT[k++] = 0x01;
 1803              		.loc 1 464 21 view .LVU668
 1804 0344 40F20713 		movw	r3, #263
 1805 0348 A9F8F430 		strh	r3, [r9, #244]	@ movhi
 466:ioLIB/dhcp.c  **** 	pDHCPMSG->OPT[k++] = DHCP_CHADDR[1];
 1806              		.loc 1 466 2 is_stmt 1 view .LVU669
ARM GAS  C:\Users\clay0\AppData\Local\Temp\ccgGhwt3.s 			page 60


 1807              	.LVL76:
 467:ioLIB/dhcp.c  **** 	pDHCPMSG->OPT[k++] = DHCP_CHADDR[2];
 1808              		.loc 1 467 2 view .LVU670
 468:ioLIB/dhcp.c  **** 	pDHCPMSG->OPT[k++] = DHCP_CHADDR[3];
 1809              		.loc 1 468 2 view .LVU671
 469:ioLIB/dhcp.c  **** 	pDHCPMSG->OPT[k++] = DHCP_CHADDR[4];
 1810              		.loc 1 469 2 view .LVU672
 469:ioLIB/dhcp.c  **** 	pDHCPMSG->OPT[k++] = DHCP_CHADDR[4];
 1811              		.loc 1 469 34 is_stmt 0 view .LVU673
 1812 034c 284B     		ldr	r3, .L86+16
 446:ioLIB/dhcp.c  ****    }
 1813              		.loc 1 446 21 view .LVU674
 1814 034e D678     		ldrb	r6, [r2, #3]	@ zero_extendqisi2
 468:ioLIB/dhcp.c  **** 	pDHCPMSG->OPT[k++] = DHCP_CHADDR[3];
 1815              		.loc 1 468 34 view .LVU675
 1816 0350 D3F80210 		ldr	r1, [r3, #2]	@ unaligned
 468:ioLIB/dhcp.c  **** 	pDHCPMSG->OPT[k++] = DHCP_CHADDR[3];
 1817              		.loc 1 468 21 view .LVU676
 1818 0354 C9F8F810 		str	r1, [r9, #248]
 473:ioLIB/dhcp.c  ****    {
 1819              		.loc 1 473 6 view .LVU677
 1820 0358 FF2E     		cmp	r6, #255
 466:ioLIB/dhcp.c  **** 	pDHCPMSG->OPT[k++] = DHCP_CHADDR[1];
 1821              		.loc 1 466 21 view .LVU678
 1822 035a 1988     		ldrh	r1, [r3]
 1823 035c A9F8F610 		strh	r1, [r9, #246]	@ movhi
 469:ioLIB/dhcp.c  **** 	pDHCPMSG->OPT[k++] = DHCP_CHADDR[4];
 1824              		.loc 1 469 34 view .LVU679
 1825 0360 DD78     		ldrb	r5, [r3, #3]	@ zero_extendqisi2
 470:ioLIB/dhcp.c  **** 	pDHCPMSG->OPT[k++] = DHCP_CHADDR[5];
 1826              		.loc 1 470 2 is_stmt 1 view .LVU680
 1827              	.LVL77:
 470:ioLIB/dhcp.c  **** 	pDHCPMSG->OPT[k++] = DHCP_CHADDR[5];
 1828              		.loc 1 470 34 is_stmt 0 view .LVU681
 1829 0362 1C79     		ldrb	r4, [r3, #4]	@ zero_extendqisi2
 471:ioLIB/dhcp.c  **** 
 1830              		.loc 1 471 2 is_stmt 1 view .LVU682
 1831              	.LVL78:
 473:ioLIB/dhcp.c  ****    {
 1832              		.loc 1 473 4 view .LVU683
 471:ioLIB/dhcp.c  **** 
 1833              		.loc 1 471 34 is_stmt 0 view .LVU684
 1834 0364 5979     		ldrb	r1, [r3, #5]	@ zero_extendqisi2
 473:ioLIB/dhcp.c  ****    {
 1835              		.loc 1 473 6 view .LVU685
 1836 0366 3FF470AE 		beq	.L56
 1837 036a 2123     		movs	r3, #33
 1838 036c 4FF0220B 		mov	fp, #34
 1839 0370 CDE90E3B 		strd	r3, fp, [sp, #56]
 1840 0374 2026     		movs	r6, #32
 1841 0376 1F23     		movs	r3, #31
 1842 0378 1E27     		movs	r7, #30
 1843 037a CDE90C36 		strd	r3, r6, [sp, #48]
 1844 037e 1D23     		movs	r3, #29
 1845 0380 CDE90A37 		strd	r3, r7, [sp, #40]
 1846 0384 4FF01C0C 		mov	ip, #28
 1847 0388 1B23     		movs	r3, #27
ARM GAS  C:\Users\clay0\AppData\Local\Temp\ccgGhwt3.s 			page 61


 1848 038a CDE9083C 		strd	r3, ip, [sp, #32]
 1849 038e 4FF01A0E 		mov	lr, #26
 1850 0392 1923     		movs	r3, #25
 1851 0394 CDE9063E 		strd	r3, lr, [sp, #24]
 1852 0398 4FF01708 		mov	r8, #23
 1853 039c 1623     		movs	r3, #22
 1854 039e CDE90438 		strd	r3, r8, [sp, #16]
 1855 03a2 1220     		movs	r0, #18
 1856 03a4 1423     		movs	r3, #20
 1857 03a6 2322     		movs	r2, #35
 1858 03a8 4FF0180E 		mov	lr, #24
 1859 03ac 4FF0150A 		mov	r10, #21
 1860 03b0 0393     		str	r3, [sp, #12]
 1861 03b2 1327     		movs	r7, #19
 1862 03b4 8446     		mov	ip, r0
 1863 03b6 4FF0110B 		mov	fp, #17
 1864 03ba 4FF01008 		mov	r8, #16
 1865 03be 7FE6     		b	.L57
 1866              	.LVL79:
 1867              	.L77:
 493:ioLIB/dhcp.c  ****    	pDHCPMSG->OPT[k++] = HOST_NAME[i];
 1868              		.loc 1 493 34 view .LVU686
 1869 03c0 0522     		movs	r2, #5
 1870 03c2 CBE6     		b	.L59
 1871              	.LVL80:
 1872              	.L72:
 493:ioLIB/dhcp.c  ****    	pDHCPMSG->OPT[k++] = HOST_NAME[i];
 1873              		.loc 1 493 2 view .LVU687
 1874 03c4 4FF0060C 		mov	ip, #6
 1875 03c8 0CE7     		b	.L58
 1876              	.LVL81:
 1877              	.L73:
 493:ioLIB/dhcp.c  ****    	pDHCPMSG->OPT[k++] = HOST_NAME[i];
 1878              		.loc 1 493 34 view .LVU688
 1879 03ca 0122     		movs	r2, #1
 1880 03cc C6E6     		b	.L59
 1881              	.LVL82:
 1882              	.L74:
 493:ioLIB/dhcp.c  ****    	pDHCPMSG->OPT[k++] = HOST_NAME[i];
 1883              		.loc 1 493 34 view .LVU689
 1884 03ce 0222     		movs	r2, #2
 1885 03d0 C4E6     		b	.L59
 1886              	.LVL83:
 1887              	.L75:
 493:ioLIB/dhcp.c  ****    	pDHCPMSG->OPT[k++] = HOST_NAME[i];
 1888              		.loc 1 493 34 view .LVU690
 1889 03d2 0322     		movs	r2, #3
 1890 03d4 C2E6     		b	.L59
 1891              	.LVL84:
 1892              	.L76:
 493:ioLIB/dhcp.c  ****    	pDHCPMSG->OPT[k++] = HOST_NAME[i];
 1893              		.loc 1 493 34 view .LVU691
 1894 03d6 0422     		movs	r2, #4
 1895 03d8 C0E6     		b	.L59
 1896              	.LVL85:
 1897              	.L78:
 493:ioLIB/dhcp.c  ****    	pDHCPMSG->OPT[k++] = HOST_NAME[i];
ARM GAS  C:\Users\clay0\AppData\Local\Temp\ccgGhwt3.s 			page 62


 1898              		.loc 1 493 34 view .LVU692
 1899 03da 0622     		movs	r2, #6
 1900 03dc BEE6     		b	.L59
 1901              	.L87:
 1902 03de 00BF     		.align	2
 1903              	.L86:
 1904 03e0 00000000 		.word	.LANCHOR7
 1905 03e4 00000000 		.word	.LANCHOR0
 1906 03e8 00000000 		.word	.LANCHOR9
 1907 03ec 3501033D 		.word	1023607093
 1908 03f0 00000000 		.word	.LANCHOR3
 1909              		.cfi_endproc
 1910              	.LFE6:
 1912              		.section	.text.send_DHCP_DECLINE,"ax",%progbits
 1913              		.align	1
 1914              		.p2align 2,,3
 1915              		.global	send_DHCP_DECLINE
 1916              		.syntax unified
 1917              		.thumb
 1918              		.thumb_func
 1920              	send_DHCP_DECLINE:
 1921              	.LFB7:
 527:ioLIB/dhcp.c  **** 	int i;
 1922              		.loc 1 527 1 is_stmt 1 view -0
 1923              		.cfi_startproc
 1924              		@ args = 0, pretend = 0, frame = 8
 1925              		@ frame_needed = 0, uses_anonymous_args = 0
 528:ioLIB/dhcp.c  **** 	uint8_t ip[4];
 1926              		.loc 1 528 2 view .LVU694
 529:ioLIB/dhcp.c  **** 	uint16_t k = 0;
 1927              		.loc 1 529 2 view .LVU695
 530:ioLIB/dhcp.c  **** 	
 1928              		.loc 1 530 2 view .LVU696
 1929              	.LVL86:
 532:ioLIB/dhcp.c  **** 
 1930              		.loc 1 532 2 view .LVU697
 527:ioLIB/dhcp.c  **** 	int i;
 1931              		.loc 1 527 1 is_stmt 0 view .LVU698
 1932 0000 30B5     		push	{r4, r5, lr}
 1933              	.LCFI19:
 1934              		.cfi_def_cfa_offset 12
 1935              		.cfi_offset 4, -12
 1936              		.cfi_offset 5, -8
 1937              		.cfi_offset 14, -4
 1938 0002 85B0     		sub	sp, sp, #20
 1939              	.LCFI20:
 1940              		.cfi_def_cfa_offset 32
 532:ioLIB/dhcp.c  **** 
 1941              		.loc 1 532 2 view .LVU699
 1942 0004 FFF7FEFF 		bl	makeDHCPMSG
 1943              	.LVL87:
 534:ioLIB/dhcp.c  ****    
 1944              		.loc 1 534 4 is_stmt 1 view .LVU700
 536:ioLIB/dhcp.c  **** 	*((uint8_t*)(&pDHCPMSG->flags)+1) = (DHCP_FLAGSUNICAST & 0x00FF);
 1945              		.loc 1 536 2 view .LVU701
 536:ioLIB/dhcp.c  **** 	*((uint8_t*)(&pDHCPMSG->flags)+1) = (DHCP_FLAGSUNICAST & 0x00FF);
 1946              		.loc 1 536 24 is_stmt 0 view .LVU702
ARM GAS  C:\Users\clay0\AppData\Local\Temp\ccgGhwt3.s 			page 63


 1947 0008 1E48     		ldr	r0, .L90
 549:ioLIB/dhcp.c  **** 	pDHCPMSG->OPT[k++] = DHCP_CHADDR[3];
 1948              		.loc 1 549 34 view .LVU703
 1949 000a 1F4A     		ldr	r2, .L90+4
 536:ioLIB/dhcp.c  **** 	*((uint8_t*)(&pDHCPMSG->flags)+1) = (DHCP_FLAGSUNICAST & 0x00FF);
 1950              		.loc 1 536 24 view .LVU704
 1951 000c 0468     		ldr	r4, [r0]
 537:ioLIB/dhcp.c  **** 
 1952              		.loc 1 537 2 is_stmt 1 view .LVU705
 556:ioLIB/dhcp.c  **** 	pDHCPMSG->OPT[k++] = DHCP_allocated_ip[1];
 1953              		.loc 1 556 40 is_stmt 0 view .LVU706
 1954 000e 1F4B     		ldr	r3, .L90+8
 549:ioLIB/dhcp.c  **** 	pDHCPMSG->OPT[k++] = DHCP_CHADDR[3];
 1955              		.loc 1 549 34 view .LVU707
 1956 0010 D2F80200 		ldr	r0, [r2, #2]	@ unaligned
 547:ioLIB/dhcp.c  **** 	pDHCPMSG->OPT[k++] = DHCP_CHADDR[1];
 1957              		.loc 1 547 21 view .LVU708
 1958 0014 1288     		ldrh	r2, [r2]
 556:ioLIB/dhcp.c  **** 	pDHCPMSG->OPT[k++] = DHCP_allocated_ip[1];
 1959              		.loc 1 556 21 view .LVU709
 1960 0016 1D88     		ldrh	r5, [r3]
 547:ioLIB/dhcp.c  **** 	pDHCPMSG->OPT[k++] = DHCP_CHADDR[1];
 1961              		.loc 1 547 21 view .LVU710
 1962 0018 A4F8F620 		strh	r2, [r4, #246]	@ movhi
 558:ioLIB/dhcp.c  **** 	pDHCPMSG->OPT[k++] = DHCP_allocated_ip[3];
 1963              		.loc 1 558 21 view .LVU711
 1964 001c 5A88     		ldrh	r2, [r3, #2]
 563:ioLIB/dhcp.c  **** 	pDHCPMSG->OPT[k++] = DHCP_SIP[1];
 1965              		.loc 1 563 31 view .LVU712
 1966 001e 1C49     		ldr	r1, .L90+12
 549:ioLIB/dhcp.c  **** 	pDHCPMSG->OPT[k++] = DHCP_CHADDR[3];
 1967              		.loc 1 549 21 view .LVU713
 1968 0020 C4F8F800 		str	r0, [r4, #248]
 561:ioLIB/dhcp.c  **** 	pDHCPMSG->OPT[k++] = 0x04;
 1969              		.loc 1 561 21 view .LVU714
 1970 0024 40F23643 		movw	r3, #1078
 1971 0028 A4F80231 		strh	r3, [r4, #258]	@ movhi
 568:ioLIB/dhcp.c  **** 
 1972              		.loc 1 568 21 view .LVU715
 1973 002c FF23     		movs	r3, #255
 1974 002e 84F80831 		strb	r3, [r4, #264]
 540:ioLIB/dhcp.c  **** 	pDHCPMSG->OPT[k++] = 0x01;
 1975              		.loc 1 540 21 view .LVU716
 1976 0032 184B     		ldr	r3, .L90+16
 1977 0034 C4F8F030 		str	r3, [r4, #240]
 545:ioLIB/dhcp.c  **** 	pDHCPMSG->OPT[k++] = 0x01;
 1978              		.loc 1 545 21 view .LVU717
 1979 0038 40F20713 		movw	r3, #263
 563:ioLIB/dhcp.c  **** 	pDHCPMSG->OPT[k++] = DHCP_SIP[1];
 1980              		.loc 1 563 21 view .LVU718
 1981 003c 0868     		ldr	r0, [r1]
 545:ioLIB/dhcp.c  **** 	pDHCPMSG->OPT[k++] = 0x01;
 1982              		.loc 1 545 21 view .LVU719
 1983 003e A4F8F430 		strh	r3, [r4, #244]	@ movhi
 536:ioLIB/dhcp.c  **** 	*((uint8_t*)(&pDHCPMSG->flags)+1) = (DHCP_FLAGSUNICAST & 0x00FF);
 1984              		.loc 1 536 36 view .LVU720
 1985 0042 0021     		movs	r1, #0
ARM GAS  C:\Users\clay0\AppData\Local\Temp\ccgGhwt3.s 			page 64


 554:ioLIB/dhcp.c  **** 	pDHCPMSG->OPT[k++] = 0x04;
 1986              		.loc 1 554 21 view .LVU721
 1987 0044 40F23243 		movw	r3, #1074
 556:ioLIB/dhcp.c  **** 	pDHCPMSG->OPT[k++] = DHCP_allocated_ip[1];
 1988              		.loc 1 556 21 view .LVU722
 1989 0048 A4F8FE50 		strh	r5, [r4, #254]	@ movhi
 536:ioLIB/dhcp.c  **** 	*((uint8_t*)(&pDHCPMSG->flags)+1) = (DHCP_FLAGSUNICAST & 0x00FF);
 1990              		.loc 1 536 36 view .LVU723
 1991 004c 6181     		strh	r1, [r4, #10]	@ movhi
 540:ioLIB/dhcp.c  **** 	pDHCPMSG->OPT[k++] = 0x01;
 1992              		.loc 1 540 2 is_stmt 1 view .LVU724
 1993              	.LVL88:
 541:ioLIB/dhcp.c  **** 	pDHCPMSG->OPT[k++] = DHCP_DECLINE;
 1994              		.loc 1 541 2 view .LVU725
 542:ioLIB/dhcp.c  **** 
 1995              		.loc 1 542 2 view .LVU726
 544:ioLIB/dhcp.c  **** 	pDHCPMSG->OPT[k++] = 0x07;
 1996              		.loc 1 544 2 view .LVU727
 545:ioLIB/dhcp.c  **** 	pDHCPMSG->OPT[k++] = 0x01;
 1997              		.loc 1 545 2 view .LVU728
 546:ioLIB/dhcp.c  **** 	pDHCPMSG->OPT[k++] = DHCP_CHADDR[0];
 1998              		.loc 1 546 2 view .LVU729
 547:ioLIB/dhcp.c  **** 	pDHCPMSG->OPT[k++] = DHCP_CHADDR[1];
 1999              		.loc 1 547 2 view .LVU730
 548:ioLIB/dhcp.c  **** 	pDHCPMSG->OPT[k++] = DHCP_CHADDR[2];
 2000              		.loc 1 548 2 view .LVU731
 549:ioLIB/dhcp.c  **** 	pDHCPMSG->OPT[k++] = DHCP_CHADDR[3];
 2001              		.loc 1 549 2 view .LVU732
 550:ioLIB/dhcp.c  **** 	pDHCPMSG->OPT[k++] = DHCP_CHADDR[4];
 2002              		.loc 1 550 2 view .LVU733
 551:ioLIB/dhcp.c  **** 	pDHCPMSG->OPT[k++] = DHCP_CHADDR[5];
 2003              		.loc 1 551 2 view .LVU734
 552:ioLIB/dhcp.c  **** 
 2004              		.loc 1 552 2 view .LVU735
 554:ioLIB/dhcp.c  **** 	pDHCPMSG->OPT[k++] = 0x04;
 2005              		.loc 1 554 2 view .LVU736
 555:ioLIB/dhcp.c  **** 	pDHCPMSG->OPT[k++] = DHCP_allocated_ip[0];
 2006              		.loc 1 555 2 view .LVU737
 558:ioLIB/dhcp.c  **** 	pDHCPMSG->OPT[k++] = DHCP_allocated_ip[3];
 2007              		.loc 1 558 21 is_stmt 0 view .LVU738
 2008 004e A4F80021 		strh	r2, [r4, #256]	@ movhi
 563:ioLIB/dhcp.c  **** 	pDHCPMSG->OPT[k++] = DHCP_SIP[1];
 2009              		.loc 1 563 21 view .LVU739
 2010 0052 C4F80401 		str	r0, [r4, #260]
 554:ioLIB/dhcp.c  **** 	pDHCPMSG->OPT[k++] = 0x04;
 2011              		.loc 1 554 21 view .LVU740
 2012 0056 A4F8FC30 		strh	r3, [r4, #252]	@ movhi
 556:ioLIB/dhcp.c  **** 	pDHCPMSG->OPT[k++] = DHCP_allocated_ip[1];
 2013              		.loc 1 556 2 is_stmt 1 view .LVU741
 2014              	.LVL89:
 557:ioLIB/dhcp.c  **** 	pDHCPMSG->OPT[k++] = DHCP_allocated_ip[2];
 2015              		.loc 1 557 2 view .LVU742
 558:ioLIB/dhcp.c  **** 	pDHCPMSG->OPT[k++] = DHCP_allocated_ip[3];
 2016              		.loc 1 558 2 view .LVU743
 559:ioLIB/dhcp.c  **** 
 2017              		.loc 1 559 2 view .LVU744
 561:ioLIB/dhcp.c  **** 	pDHCPMSG->OPT[k++] = 0x04;
ARM GAS  C:\Users\clay0\AppData\Local\Temp\ccgGhwt3.s 			page 65


 2018              		.loc 1 561 2 view .LVU745
 562:ioLIB/dhcp.c  **** 	pDHCPMSG->OPT[k++] = DHCP_SIP[0];
 2019              		.loc 1 562 2 view .LVU746
 563:ioLIB/dhcp.c  **** 	pDHCPMSG->OPT[k++] = DHCP_SIP[1];
 2020              		.loc 1 563 2 view .LVU747
 564:ioLIB/dhcp.c  **** 	pDHCPMSG->OPT[k++] = DHCP_SIP[2];
 2021              		.loc 1 564 2 view .LVU748
 565:ioLIB/dhcp.c  **** 	pDHCPMSG->OPT[k++] = DHCP_SIP[3];
 2022              		.loc 1 565 2 view .LVU749
 566:ioLIB/dhcp.c  **** 
 2023              		.loc 1 566 2 view .LVU750
 568:ioLIB/dhcp.c  **** 
 2024              		.loc 1 568 2 view .LVU751
 570:ioLIB/dhcp.c  **** 
 2025              		.loc 1 570 2 view .LVU752
 570:ioLIB/dhcp.c  **** 
 2026              		.loc 1 570 14 view .LVU753
 570:ioLIB/dhcp.c  **** 
 2027              		.loc 1 570 50 is_stmt 0 view .LVU754
 2028 005a 40F21B12 		movw	r2, #283
 2029 005e 04F20910 		addw	r0, r4, #265
 2030 0062 FFF7FEFF 		bl	memset
 2031              	.LVL90:
 573:ioLIB/dhcp.c  **** 	ip[1] = 0xFF;
 2032              		.loc 1 573 2 is_stmt 1 view .LVU755
 574:ioLIB/dhcp.c  **** 	ip[2] = 0xFF;
 2033              		.loc 1 574 2 view .LVU756
 575:ioLIB/dhcp.c  **** 	ip[3] = 0xFF;
 2034              		.loc 1 575 2 view .LVU757
 576:ioLIB/dhcp.c  **** 
 2035              		.loc 1 576 2 view .LVU758
 582:ioLIB/dhcp.c  **** }
 2036              		.loc 1 582 2 is_stmt 0 view .LVU759
 2037 0066 0C4A     		ldr	r2, .L90+20
 2038 0068 4323     		movs	r3, #67
 2039 006a 1078     		ldrb	r0, [r2]	@ zero_extendqisi2
 2040 006c 0093     		str	r3, [sp]
 573:ioLIB/dhcp.c  **** 	ip[1] = 0xFF;
 2041              		.loc 1 573 8 view .LVU760
 2042 006e 4FF0FF35 		mov	r5, #-1
 582:ioLIB/dhcp.c  **** }
 2043              		.loc 1 582 2 view .LVU761
 2044 0072 03AB     		add	r3, sp, #12
 2045 0074 4FF40972 		mov	r2, #548
 2046 0078 2146     		mov	r1, r4
 573:ioLIB/dhcp.c  **** 	ip[1] = 0xFF;
 2047              		.loc 1 573 8 view .LVU762
 2048 007a 0395     		str	r5, [sp, #12]
 582:ioLIB/dhcp.c  **** }
 2049              		.loc 1 582 2 is_stmt 1 view .LVU763
 2050 007c FFF7FEFF 		bl	sendto
 2051              	.LVL91:
 583:ioLIB/dhcp.c  **** 
 2052              		.loc 1 583 1 is_stmt 0 view .LVU764
 2053 0080 05B0     		add	sp, sp, #20
 2054              	.LCFI21:
 2055              		.cfi_def_cfa_offset 12
ARM GAS  C:\Users\clay0\AppData\Local\Temp\ccgGhwt3.s 			page 66


 2056              		@ sp needed
 2057 0082 30BD     		pop	{r4, r5, pc}
 2058              	.L91:
 2059              		.align	2
 2060              	.L90:
 2061 0084 00000000 		.word	.LANCHOR7
 2062 0088 00000000 		.word	.LANCHOR3
 2063 008c 00000000 		.word	.LANCHOR0
 2064 0090 00000000 		.word	.LANCHOR9
 2065 0094 3501043D 		.word	1023672629
 2066 0098 00000000 		.word	.LANCHOR12
 2067              		.cfi_endproc
 2068              	.LFE7:
 2070              		.section	.text.parseDHCPMSG,"ax",%progbits
 2071              		.align	1
 2072              		.p2align 2,,3
 2073              		.global	parseDHCPMSG
 2074              		.syntax unified
 2075              		.thumb
 2076              		.thumb_func
 2078              	parseDHCPMSG:
 2079              	.LFB8:
 587:ioLIB/dhcp.c  **** 	uint8_t svr_addr[6];
 2080              		.loc 1 587 1 is_stmt 1 view -0
 2081              		.cfi_startproc
 2082              		@ args = 0, pretend = 0, frame = 24
 2083              		@ frame_needed = 0, uses_anonymous_args = 0
 588:ioLIB/dhcp.c  **** 	uint16_t  svr_port;
 2084              		.loc 1 588 2 view .LVU766
 589:ioLIB/dhcp.c  **** 	uint16_t len;
 2085              		.loc 1 589 2 view .LVU767
 590:ioLIB/dhcp.c  **** 
 2086              		.loc 1 590 2 view .LVU768
 592:ioLIB/dhcp.c  **** 	uint8_t * e;
 2087              		.loc 1 592 2 view .LVU769
 593:ioLIB/dhcp.c  **** 	uint8_t type = 0;
 2088              		.loc 1 593 2 view .LVU770
 594:ioLIB/dhcp.c  **** 	uint8_t opt_len;
 2089              		.loc 1 594 2 view .LVU771
 2090              	.LVL92:
 595:ioLIB/dhcp.c  ****    
 2091              		.loc 1 595 2 view .LVU772
 597:ioLIB/dhcp.c  ****    {
 2092              		.loc 1 597 4 view .LVU773
 587:ioLIB/dhcp.c  **** 	uint8_t svr_addr[6];
 2093              		.loc 1 587 1 is_stmt 0 view .LVU774
 2094 0000 2DE9F04F 		push	{r4, r5, r6, r7, r8, r9, r10, fp, lr}
 2095              	.LCFI22:
 2096              		.cfi_def_cfa_offset 36
 2097              		.cfi_offset 4, -36
 2098              		.cfi_offset 5, -32
 2099              		.cfi_offset 6, -28
 2100              		.cfi_offset 7, -24
 2101              		.cfi_offset 8, -20
 2102              		.cfi_offset 9, -16
 2103              		.cfi_offset 10, -12
 2104              		.cfi_offset 11, -8
ARM GAS  C:\Users\clay0\AppData\Local\Temp\ccgGhwt3.s 			page 67


 2105              		.cfi_offset 14, -4
 597:ioLIB/dhcp.c  ****    {
 2106              		.loc 1 597 14 view .LVU775
 2107 0004 854C     		ldr	r4, .L121
 587:ioLIB/dhcp.c  **** 	uint8_t svr_addr[6];
 2108              		.loc 1 587 1 view .LVU776
 2109 0006 89B0     		sub	sp, sp, #36
 2110              	.LCFI23:
 2111              		.cfi_def_cfa_offset 72
 597:ioLIB/dhcp.c  ****    {
 2112              		.loc 1 597 14 view .LVU777
 2113 0008 2078     		ldrb	r0, [r4]	@ zero_extendqisi2
 2114 000a FFF7FEFF 		bl	getSn_RX_RSR
 2115              	.LVL93:
 597:ioLIB/dhcp.c  ****    {
 2116              		.loc 1 597 6 view .LVU778
 2117 000e 18B9     		cbnz	r0, .L93
 2118              	.L113:
 597:ioLIB/dhcp.c  ****    {
 2119              		.loc 1 597 6 view .LVU779
 2120 0010 0020     		movs	r0, #0
 2121              	.LVL94:
 703:ioLIB/dhcp.c  **** }
 2122              		.loc 1 703 2 is_stmt 1 view .LVU780
 2123              	.L94:
 704:ioLIB/dhcp.c  **** 
 2124              		.loc 1 704 1 is_stmt 0 view .LVU781
 2125 0012 09B0     		add	sp, sp, #36
 2126              	.LCFI24:
 2127              		.cfi_remember_state
 2128              		.cfi_def_cfa_offset 36
 2129              		@ sp needed
 2130 0014 BDE8F08F 		pop	{r4, r5, r6, r7, r8, r9, r10, fp, pc}
 2131              	.LVL95:
 2132              	.L93:
 2133              	.LCFI25:
 2134              		.cfi_restore_state
 599:ioLIB/dhcp.c  ****    #ifdef _DHCP_DEBUG_   
 2135              		.loc 1 599 5 is_stmt 1 view .LVU782
 599:ioLIB/dhcp.c  ****    #ifdef _DHCP_DEBUG_   
 2136              		.loc 1 599 11 is_stmt 0 view .LVU783
 2137 0018 814D     		ldr	r5, .L121+4
 2138 001a 0DF11603 		add	r3, sp, #22
 2139 001e 0246     		mov	r2, r0
 2140 0020 2968     		ldr	r1, [r5]
 2141 0022 2078     		ldrb	r0, [r4]	@ zero_extendqisi2
 2142              	.LVL96:
 599:ioLIB/dhcp.c  ****    #ifdef _DHCP_DEBUG_   
 2143              		.loc 1 599 11 view .LVU784
 2144 0024 0093     		str	r3, [sp]
 2145 0026 06AB     		add	r3, sp, #24
 2146 0028 FFF7FEFF 		bl	recvfrom
 2147              	.LVL97:
 605:ioLIB/dhcp.c  ****       // compare mac address
 2148              		.loc 1 605 5 view .LVU785
 2149 002c BDF81620 		ldrh	r2, [sp, #22]
 2150              	.LVL98:
ARM GAS  C:\Users\clay0\AppData\Local\Temp\ccgGhwt3.s 			page 68


 605:ioLIB/dhcp.c  ****       // compare mac address
 2151              		.loc 1 605 2 is_stmt 1 view .LVU786
 605:ioLIB/dhcp.c  ****       // compare mac address
 2152              		.loc 1 605 5 is_stmt 0 view .LVU787
 2153 0030 432A     		cmp	r2, #67
 2154 0032 EDD1     		bne	.L113
 607:ioLIB/dhcp.c  **** 		     (pDHCPMSG->chaddr[2] != DHCP_CHADDR[2]) || (pDHCPMSG->chaddr[3] != DHCP_CHADDR[3]) ||
 2155              		.loc 1 607 3 is_stmt 1 view .LVU788
 607:ioLIB/dhcp.c  **** 		     (pDHCPMSG->chaddr[2] != DHCP_CHADDR[2]) || (pDHCPMSG->chaddr[3] != DHCP_CHADDR[3]) ||
 2156              		.loc 1 607 17 is_stmt 0 view .LVU789
 2157 0034 2A68     		ldr	r2, [r5]
 607:ioLIB/dhcp.c  **** 		     (pDHCPMSG->chaddr[2] != DHCP_CHADDR[2]) || (pDHCPMSG->chaddr[3] != DHCP_CHADDR[3]) ||
 2158              		.loc 1 607 43 view .LVU790
 2159 0036 7B4B     		ldr	r3, .L121+8
 607:ioLIB/dhcp.c  **** 		     (pDHCPMSG->chaddr[2] != DHCP_CHADDR[2]) || (pDHCPMSG->chaddr[3] != DHCP_CHADDR[3]) ||
 2160              		.loc 1 607 6 view .LVU791
 2161 0038 147F     		ldrb	r4, [r2, #28]	@ zero_extendqisi2
 2162 003a 1978     		ldrb	r1, [r3]	@ zero_extendqisi2
 2163 003c 8C42     		cmp	r4, r1
 2164 003e E7D1     		bne	.L113
 607:ioLIB/dhcp.c  **** 		     (pDHCPMSG->chaddr[2] != DHCP_CHADDR[2]) || (pDHCPMSG->chaddr[3] != DHCP_CHADDR[3]) ||
 2165              		.loc 1 607 48 discriminator 1 view .LVU792
 2166 0040 547F     		ldrb	r4, [r2, #29]	@ zero_extendqisi2
 2167 0042 5978     		ldrb	r1, [r3, #1]	@ zero_extendqisi2
 2168 0044 8C42     		cmp	r4, r1
 2169 0046 E3D1     		bne	.L113
 607:ioLIB/dhcp.c  **** 		     (pDHCPMSG->chaddr[2] != DHCP_CHADDR[2]) || (pDHCPMSG->chaddr[3] != DHCP_CHADDR[3]) ||
 2170              		.loc 1 607 91 discriminator 2 view .LVU793
 2171 0048 947F     		ldrb	r4, [r2, #30]	@ zero_extendqisi2
 2172 004a 9978     		ldrb	r1, [r3, #2]	@ zero_extendqisi2
 2173 004c 8C42     		cmp	r4, r1
 2174 004e DFD1     		bne	.L113
 608:ioLIB/dhcp.c  **** 		     (pDHCPMSG->chaddr[4] != DHCP_CHADDR[4]) || (pDHCPMSG->chaddr[5] != DHCP_CHADDR[5])   )
 2175              		.loc 1 608 48 view .LVU794
 2176 0050 D47F     		ldrb	r4, [r2, #31]	@ zero_extendqisi2
 2177 0052 D978     		ldrb	r1, [r3, #3]	@ zero_extendqisi2
 2178 0054 8C42     		cmp	r4, r1
 2179 0056 DBD1     		bne	.L113
 608:ioLIB/dhcp.c  **** 		     (pDHCPMSG->chaddr[4] != DHCP_CHADDR[4]) || (pDHCPMSG->chaddr[5] != DHCP_CHADDR[5])   )
 2180              		.loc 1 608 91 discriminator 1 view .LVU795
 2181 0058 92F82040 		ldrb	r4, [r2, #32]	@ zero_extendqisi2
 2182 005c 1979     		ldrb	r1, [r3, #4]	@ zero_extendqisi2
 2183 005e 8C42     		cmp	r4, r1
 2184 0060 D6D1     		bne	.L113
 609:ioLIB/dhcp.c  **** 		{
 2185              		.loc 1 609 48 view .LVU796
 2186 0062 92F82110 		ldrb	r1, [r2, #33]	@ zero_extendqisi2
 2187 0066 5B79     		ldrb	r3, [r3, #5]	@ zero_extendqisi2
 2188 0068 9942     		cmp	r1, r3
 2189 006a D1D1     		bne	.L113
 617:ioLIB/dhcp.c  ****             if( ((svr_addr[0]!=DHCP_SIP[0])|| (svr_addr[1]!=DHCP_SIP[1])|| (svr_addr[2]!=DHCP_SIP[2
 2190              		.loc 1 617 9 is_stmt 1 view .LVU797
 617:ioLIB/dhcp.c  ****             if( ((svr_addr[0]!=DHCP_SIP[0])|| (svr_addr[1]!=DHCP_SIP[1])|| (svr_addr[2]!=DHCP_SIP[2
 2191              		.loc 1 617 21 is_stmt 0 view .LVU798
 2192 006c 6E49     		ldr	r1, .L121+12
 618:ioLIB/dhcp.c  ****                 ((svr_addr[0]!=DHCP_REAL_SIP[0])|| (svr_addr[1]!=DHCP_REAL_SIP[1])|| (svr_addr[2]!=
 2193              		.loc 1 618 27 view .LVU799
ARM GAS  C:\Users\clay0\AppData\Local\Temp\ccgGhwt3.s 			page 69


 2194 006e 9DF818C0 		ldrb	ip, [sp, #24]	@ zero_extendqisi2
 617:ioLIB/dhcp.c  ****             if( ((svr_addr[0]!=DHCP_SIP[0])|| (svr_addr[1]!=DHCP_SIP[1])|| (svr_addr[2]!=DHCP_SIP[2
 2195              		.loc 1 617 21 view .LVU800
 2196 0072 0C78     		ldrb	r4, [r1]	@ zero_extendqisi2
 617:ioLIB/dhcp.c  ****             if( ((svr_addr[0]!=DHCP_SIP[0])|| (svr_addr[1]!=DHCP_SIP[1])|| (svr_addr[2]!=DHCP_SIP[2
 2197              		.loc 1 617 41 view .LVU801
 2198 0074 4F78     		ldrb	r7, [r1, #1]	@ zero_extendqisi2
 617:ioLIB/dhcp.c  ****             if( ((svr_addr[0]!=DHCP_SIP[0])|| (svr_addr[1]!=DHCP_SIP[1])|| (svr_addr[2]!=DHCP_SIP[2
 2199              		.loc 1 617 61 view .LVU802
 2200 0076 8D78     		ldrb	r5, [r1, #2]	@ zero_extendqisi2
 617:ioLIB/dhcp.c  ****             if( ((svr_addr[0]!=DHCP_SIP[0])|| (svr_addr[1]!=DHCP_SIP[1])|| (svr_addr[2]!=DHCP_SIP[2
 2201              		.loc 1 617 81 view .LVU803
 2202 0078 CE78     		ldrb	r6, [r1, #3]	@ zero_extendqisi2
 617:ioLIB/dhcp.c  ****             if( ((svr_addr[0]!=DHCP_SIP[0])|| (svr_addr[1]!=DHCP_SIP[1])|| (svr_addr[2]!=DHCP_SIP[2
 2203              		.loc 1 617 69 view .LVU804
 2204 007a 44EA0703 		orr	r3, r4, r7
 2205 007e 2B43     		orrs	r3, r3, r5
 2206 0080 3343     		orrs	r3, r6, r3
 2207 0082 40F0A180 		bne	.L117
 2208 0086 9DF819E0 		ldrb	lr, [sp, #25]	@ zero_extendqisi2
 2209 008a 9DF81A40 		ldrb	r4, [sp, #26]	@ zero_extendqisi2
 2210 008e 9DF81B50 		ldrb	r5, [sp, #27]	@ zero_extendqisi2
 2211              	.L97:
 627:ioLIB/dhcp.c  **** 		p = p + 240;      // 240 = sizeof(RIP_MSG) + MAGIC_COOKIE size in RIP_MSG.opt - sizeof(RIP_MSG.op
 2212              		.loc 1 627 3 is_stmt 1 view .LVU805
 2213              	.LVL99:
 628:ioLIB/dhcp.c  **** 		e = p + (len - 240);
 2214              		.loc 1 628 3 view .LVU806
 629:ioLIB/dhcp.c  **** 
 2215              		.loc 1 629 3 view .LVU807
 675:ioLIB/dhcp.c  ****    				dhcp_lease_time  = (dhcp_lease_time << 8) + *p++;
 2216              		.loc 1 675 25 is_stmt 0 view .LVU808
 2217 0092 DFF8A0A1 		ldr	r10, .L121+24
 666:ioLIB/dhcp.c  ****    				DHCP_allocated_dns[1] = *p++;
 2218              		.loc 1 666 30 view .LVU809
 2219 0096 DFF8A091 		ldr	r9, .L121+28
 657:ioLIB/dhcp.c  ****    				DHCP_allocated_gw[1] = *p++;
 2220              		.loc 1 657 29 view .LVU810
 2221 009a DFF8A081 		ldr	r8, .L121+32
 649:ioLIB/dhcp.c  ****    				DHCP_allocated_sn[1] = *p++;
 2222              		.loc 1 649 29 view .LVU811
 2223 009e 634F     		ldr	r7, .L121+16
 2224 00a0 0394     		str	r4, [sp, #12]
 629:ioLIB/dhcp.c  **** 
 2225              		.loc 1 629 5 view .LVU812
 2226 00a2 12FA80F3 		uxtah	r3, r2, r0
 2227              	.LVL100:
 631:ioLIB/dhcp.c  **** 
 2228              		.loc 1 631 3 is_stmt 1 view .LVU813
 629:ioLIB/dhcp.c  **** 
 2229              		.loc 1 629 9 is_stmt 0 view .LVU814
 2230 00a6 F032     		adds	r2, r2, #240
 2231              	.LVL101:
 594:ioLIB/dhcp.c  **** 	uint8_t opt_len;
 2232              		.loc 1 594 10 view .LVU815
 2233 00a8 0020     		movs	r0, #0
 2234              	.LVL102:
ARM GAS  C:\Users\clay0\AppData\Local\Temp\ccgGhwt3.s 			page 70


 2235              	.L110:
 631:ioLIB/dhcp.c  **** 
 2236              		.loc 1 631 9 is_stmt 1 view .LVU816
 2237 00aa 9A42     		cmp	r2, r3
 2238 00ac 80F0B380 		bcs	.L119
 633:ioLIB/dhcp.c  **** 
 2239              		.loc 1 633 4 view .LVU817
 633:ioLIB/dhcp.c  **** 
 2240              		.loc 1 633 13 is_stmt 0 view .LVU818
 2241 00b0 1678     		ldrb	r6, [r2]	@ zero_extendqisi2
 633:ioLIB/dhcp.c  **** 
 2242              		.loc 1 633 4 view .LVU819
 2243 00b2 362E     		cmp	r6, #54
 2244 00b4 00F28480 		bhi	.L100
 2245 00b8 362E     		cmp	r6, #54
 2246 00ba 1DD8     		bhi	.L101
 2247 00bc DFE806F0 		tbb	[pc, r6]
 2248              	.L103:
 2249 00c0 7E       		.byte	(.L109-.L103)/2
 2250 00c1 74       		.byte	(.L108-.L103)/2
 2251 00c2 1C       		.byte	(.L101-.L103)/2
 2252 00c3 61       		.byte	(.L107-.L103)/2
 2253 00c4 1C       		.byte	(.L101-.L103)/2
 2254 00c5 1C       		.byte	(.L101-.L103)/2
 2255 00c6 4E       		.byte	(.L106-.L103)/2
 2256 00c7 1C       		.byte	(.L101-.L103)/2
 2257 00c8 1C       		.byte	(.L101-.L103)/2
 2258 00c9 1C       		.byte	(.L101-.L103)/2
 2259 00ca 1C       		.byte	(.L101-.L103)/2
 2260 00cb 1C       		.byte	(.L101-.L103)/2
 2261 00cc 1C       		.byte	(.L101-.L103)/2
 2262 00cd 1C       		.byte	(.L101-.L103)/2
 2263 00ce 1C       		.byte	(.L101-.L103)/2
 2264 00cf 1C       		.byte	(.L101-.L103)/2
 2265 00d0 1C       		.byte	(.L101-.L103)/2
 2266 00d1 1C       		.byte	(.L101-.L103)/2
 2267 00d2 1C       		.byte	(.L101-.L103)/2
 2268 00d3 1C       		.byte	(.L101-.L103)/2
 2269 00d4 1C       		.byte	(.L101-.L103)/2
 2270 00d5 1C       		.byte	(.L101-.L103)/2
 2271 00d6 1C       		.byte	(.L101-.L103)/2
 2272 00d7 1C       		.byte	(.L101-.L103)/2
 2273 00d8 1C       		.byte	(.L101-.L103)/2
 2274 00d9 1C       		.byte	(.L101-.L103)/2
 2275 00da 1C       		.byte	(.L101-.L103)/2
 2276 00db 1C       		.byte	(.L101-.L103)/2
 2277 00dc 1C       		.byte	(.L101-.L103)/2
 2278 00dd 1C       		.byte	(.L101-.L103)/2
 2279 00de 1C       		.byte	(.L101-.L103)/2
 2280 00df 1C       		.byte	(.L101-.L103)/2
 2281 00e0 1C       		.byte	(.L101-.L103)/2
 2282 00e1 1C       		.byte	(.L101-.L103)/2
 2283 00e2 1C       		.byte	(.L101-.L103)/2
 2284 00e3 1C       		.byte	(.L101-.L103)/2
 2285 00e4 1C       		.byte	(.L101-.L103)/2
 2286 00e5 1C       		.byte	(.L101-.L103)/2
 2287 00e6 1C       		.byte	(.L101-.L103)/2
ARM GAS  C:\Users\clay0\AppData\Local\Temp\ccgGhwt3.s 			page 71


 2288 00e7 1C       		.byte	(.L101-.L103)/2
 2289 00e8 1C       		.byte	(.L101-.L103)/2
 2290 00e9 1C       		.byte	(.L101-.L103)/2
 2291 00ea 1C       		.byte	(.L101-.L103)/2
 2292 00eb 1C       		.byte	(.L101-.L103)/2
 2293 00ec 1C       		.byte	(.L101-.L103)/2
 2294 00ed 1C       		.byte	(.L101-.L103)/2
 2295 00ee 1C       		.byte	(.L101-.L103)/2
 2296 00ef 1C       		.byte	(.L101-.L103)/2
 2297 00f0 1C       		.byte	(.L101-.L103)/2
 2298 00f1 1C       		.byte	(.L101-.L103)/2
 2299 00f2 1C       		.byte	(.L101-.L103)/2
 2300 00f3 3D       		.byte	(.L105-.L103)/2
 2301 00f4 1C       		.byte	(.L101-.L103)/2
 2302 00f5 3A       		.byte	(.L104-.L103)/2
 2303 00f6 20       		.byte	(.L102-.L103)/2
 2304 00f7 00       		.p2align 1
 2305              	.L101:
 696:ioLIB/dhcp.c  ****    				opt_len = *p++;
 2306              		.loc 1 696 8 is_stmt 1 view .LVU820
 2307              	.LVL103:
 697:ioLIB/dhcp.c  ****    				p += opt_len;
 2308              		.loc 1 697 8 view .LVU821
 698:ioLIB/dhcp.c  ****    				break;
 2309              		.loc 1 698 10 is_stmt 0 view .LVU822
 2310 00f8 5678     		ldrb	r6, [r2, #1]	@ zero_extendqisi2
 697:ioLIB/dhcp.c  ****    				p += opt_len;
 2311              		.loc 1 697 20 view .LVU823
 2312 00fa 0232     		adds	r2, r2, #2
 2313              	.LVL104:
 698:ioLIB/dhcp.c  ****    				break;
 2314              		.loc 1 698 8 is_stmt 1 view .LVU824
 698:ioLIB/dhcp.c  ****    				break;
 2315              		.loc 1 698 10 is_stmt 0 view .LVU825
 2316 00fc 3244     		add	r2, r2, r6
 2317              	.LVL105:
 699:ioLIB/dhcp.c  **** 			} // switch
 2318              		.loc 1 699 8 is_stmt 1 view .LVU826
 2319 00fe D4E7     		b	.L110
 2320              	.L102:
 684:ioLIB/dhcp.c  ****    				opt_len = *p++;
 2321              		.loc 1 684 8 view .LVU827
 2322              	.LVL106:
 685:ioLIB/dhcp.c  ****    				DHCP_SIP[0] = *p++;
 2323              		.loc 1 685 8 view .LVU828
 686:ioLIB/dhcp.c  ****    				DHCP_SIP[1] = *p++;
 2324              		.loc 1 686 8 view .LVU829
 690:ioLIB/dhcp.c  ****                 DHCP_REAL_SIP[1]=svr_addr[1];
 2325              		.loc 1 690 33 is_stmt 0 view .LVU830
 2326 0100 0026     		movs	r6, #0
 2327 0102 039C     		ldr	r4, [sp, #12]
 686:ioLIB/dhcp.c  ****    				DHCP_SIP[1] = *p++;
 2328              		.loc 1 686 20 view .LVU831
 2329 0104 92F802B0 		ldrb	fp, [r2, #2]	@ zero_extendqisi2
 2330 0108 81F800B0 		strb	fp, [r1]
 687:ioLIB/dhcp.c  ****    				DHCP_SIP[2] = *p++;
 2331              		.loc 1 687 8 is_stmt 1 view .LVU832
ARM GAS  C:\Users\clay0\AppData\Local\Temp\ccgGhwt3.s 			page 72


 2332              	.LVL107:
 690:ioLIB/dhcp.c  ****                 DHCP_REAL_SIP[1]=svr_addr[1];
 2333              		.loc 1 690 33 is_stmt 0 view .LVU833
 2334 010c 6CF30706 		bfi	r6, ip, #0, #8
 2335 0110 6EF30F26 		bfi	r6, lr, #8, #8
 2336 0114 64F31746 		bfi	r6, r4, #16, #8
 2337 0118 454C     		ldr	r4, .L121+20
 687:ioLIB/dhcp.c  ****    				DHCP_SIP[2] = *p++;
 2338              		.loc 1 687 20 view .LVU834
 2339 011a 92F803B0 		ldrb	fp, [r2, #3]	@ zero_extendqisi2
 2340 011e 81F801B0 		strb	fp, [r1, #1]
 2341              	.LVL108:
 688:ioLIB/dhcp.c  ****    				DHCP_SIP[3] = *p++;
 2342              		.loc 1 688 8 is_stmt 1 view .LVU835
 690:ioLIB/dhcp.c  ****                 DHCP_REAL_SIP[1]=svr_addr[1];
 2343              		.loc 1 690 33 is_stmt 0 view .LVU836
 2344 0122 65F31F66 		bfi	r6, r5, #24, #8
 2345 0126 2660     		str	r6, [r4]
 688:ioLIB/dhcp.c  ****    				DHCP_SIP[3] = *p++;
 2346              		.loc 1 688 20 view .LVU837
 2347 0128 1679     		ldrb	r6, [r2, #4]	@ zero_extendqisi2
 2348 012a 8E70     		strb	r6, [r1, #2]
 689:ioLIB/dhcp.c  ****                 DHCP_REAL_SIP[0]=svr_addr[0];
 2349              		.loc 1 689 8 is_stmt 1 view .LVU838
 2350              	.LVL109:
 689:ioLIB/dhcp.c  ****                 DHCP_REAL_SIP[0]=svr_addr[0];
 2351              		.loc 1 689 20 is_stmt 0 view .LVU839
 2352 012c 5679     		ldrb	r6, [r2, #5]	@ zero_extendqisi2
 2353 012e CE70     		strb	r6, [r1, #3]
 690:ioLIB/dhcp.c  ****                 DHCP_REAL_SIP[1]=svr_addr[1];
 2354              		.loc 1 690 17 is_stmt 1 view .LVU840
 691:ioLIB/dhcp.c  ****                 DHCP_REAL_SIP[2]=svr_addr[2];
 2355              		.loc 1 691 17 view .LVU841
 692:ioLIB/dhcp.c  ****                 DHCP_REAL_SIP[3]=svr_addr[3];
 2356              		.loc 1 692 17 view .LVU842
 693:ioLIB/dhcp.c  ****    				break;
 2357              		.loc 1 693 17 view .LVU843
 694:ioLIB/dhcp.c  ****    			default :
 2358              		.loc 1 694 8 view .LVU844
 689:ioLIB/dhcp.c  ****                 DHCP_REAL_SIP[0]=svr_addr[0];
 2359              		.loc 1 689 24 is_stmt 0 view .LVU845
 2360 0130 0632     		adds	r2, r2, #6
 2361              	.LVL110:
 694:ioLIB/dhcp.c  ****    			default :
 2362              		.loc 1 694 8 view .LVU846
 2363 0132 BAE7     		b	.L110
 2364              	.L104:
 642:ioLIB/dhcp.c  ****    				p++;
 2365              		.loc 1 642 8 is_stmt 1 view .LVU847
 2366              	.LVL111:
 643:ioLIB/dhcp.c  ****    				type = *p++;
 2367              		.loc 1 643 8 view .LVU848
 644:ioLIB/dhcp.c  ****    				break;
 2368              		.loc 1 644 8 view .LVU849
 644:ioLIB/dhcp.c  ****    				break;
 2369              		.loc 1 644 13 is_stmt 0 view .LVU850
 2370 0134 9078     		ldrb	r0, [r2, #2]	@ zero_extendqisi2
ARM GAS  C:\Users\clay0\AppData\Local\Temp\ccgGhwt3.s 			page 73


 2371              	.LVL112:
 645:ioLIB/dhcp.c  ****    			case subnetMask :
 2372              		.loc 1 645 8 is_stmt 1 view .LVU851
 644:ioLIB/dhcp.c  ****    				break;
 2373              		.loc 1 644 17 is_stmt 0 view .LVU852
 2374 0136 0332     		adds	r2, r2, #3
 2375              	.LVL113:
 645:ioLIB/dhcp.c  ****    			case subnetMask :
 2376              		.loc 1 645 8 view .LVU853
 2377 0138 B7E7     		b	.L110
 2378              	.LVL114:
 2379              	.L105:
 673:ioLIB/dhcp.c  ****    				opt_len = *p++;
 2380              		.loc 1 673 8 is_stmt 1 view .LVU854
 674:ioLIB/dhcp.c  ****    				dhcp_lease_time  = *p++;
 2381              		.loc 1 674 8 view .LVU855
 675:ioLIB/dhcp.c  ****    				dhcp_lease_time  = (dhcp_lease_time << 8) + *p++;
 2382              		.loc 1 675 8 view .LVU856
 675:ioLIB/dhcp.c  ****    				dhcp_lease_time  = (dhcp_lease_time << 8) + *p++;
 2383              		.loc 1 675 27 is_stmt 0 view .LVU857
 2384 013a 9678     		ldrb	r6, [r2, #2]	@ zero_extendqisi2
 675:ioLIB/dhcp.c  ****    				dhcp_lease_time  = (dhcp_lease_time << 8) + *p++;
 2385              		.loc 1 675 25 view .LVU858
 2386 013c CAF80060 		str	r6, [r10]
 2387              	.LVL115:
 676:ioLIB/dhcp.c  ****    				dhcp_lease_time  = (dhcp_lease_time << 8) + *p++;
 2388              		.loc 1 676 8 is_stmt 1 view .LVU859
 677:ioLIB/dhcp.c  ****    				dhcp_lease_time  = (dhcp_lease_time << 8) + *p++;
 2389              		.loc 1 677 8 view .LVU860
 678:ioLIB/dhcp.c  ****             #ifdef _DHCP_DEBUG_  
 2390              		.loc 1 678 8 view .LVU861
 676:ioLIB/dhcp.c  ****    				dhcp_lease_time  = (dhcp_lease_time << 8) + *p++;
 2391              		.loc 1 676 52 is_stmt 0 view .LVU862
 2392 0140 92F803B0 		ldrb	fp, [r2, #3]	@ zero_extendqisi2
 676:ioLIB/dhcp.c  ****    				dhcp_lease_time  = (dhcp_lease_time << 8) + *p++;
 2393              		.loc 1 676 50 view .LVU863
 2394 0144 0BEB062B 		add	fp, fp, r6, lsl #8
 677:ioLIB/dhcp.c  ****    				dhcp_lease_time  = (dhcp_lease_time << 8) + *p++;
 2395              		.loc 1 677 52 view .LVU864
 2396 0148 1679     		ldrb	r6, [r2, #4]	@ zero_extendqisi2
 677:ioLIB/dhcp.c  ****    				dhcp_lease_time  = (dhcp_lease_time << 8) + *p++;
 2397              		.loc 1 677 50 view .LVU865
 2398 014a 06EB0B2B 		add	fp, r6, fp, lsl #8
 678:ioLIB/dhcp.c  ****             #ifdef _DHCP_DEBUG_  
 2399              		.loc 1 678 52 view .LVU866
 2400 014e 5679     		ldrb	r6, [r2, #5]	@ zero_extendqisi2
 678:ioLIB/dhcp.c  ****             #ifdef _DHCP_DEBUG_  
 2401              		.loc 1 678 50 view .LVU867
 2402 0150 06EB0B26 		add	r6, r6, fp, lsl #8
 678:ioLIB/dhcp.c  ****             #ifdef _DHCP_DEBUG_  
 2403              		.loc 1 678 25 view .LVU868
 2404 0154 CAF80060 		str	r6, [r10]
 682:ioLIB/dhcp.c  ****    			case dhcpServerIdentifier :
 2405              		.loc 1 682 8 is_stmt 1 view .LVU869
 678:ioLIB/dhcp.c  ****             #ifdef _DHCP_DEBUG_  
 2406              		.loc 1 678 54 is_stmt 0 view .LVU870
 2407 0158 0632     		adds	r2, r2, #6
ARM GAS  C:\Users\clay0\AppData\Local\Temp\ccgGhwt3.s 			page 74


 2408              	.LVL116:
 682:ioLIB/dhcp.c  ****    			case dhcpServerIdentifier :
 2409              		.loc 1 682 8 view .LVU871
 2410 015a A6E7     		b	.L110
 2411              	.L106:
 664:ioLIB/dhcp.c  ****    				opt_len = *p++;       
 2412              		.loc 1 664 8 is_stmt 1 view .LVU872
 2413              	.LVL117:
 665:ioLIB/dhcp.c  ****    				DHCP_allocated_dns[0] = *p++;
 2414              		.loc 1 665 8 view .LVU873
 665:ioLIB/dhcp.c  ****    				DHCP_allocated_dns[0] = *p++;
 2415              		.loc 1 665 16 is_stmt 0 view .LVU874
 2416 015c 5678     		ldrb	r6, [r2, #1]	@ zero_extendqisi2
 2417              	.LVL118:
 666:ioLIB/dhcp.c  ****    				DHCP_allocated_dns[1] = *p++;
 2418              		.loc 1 666 8 is_stmt 1 view .LVU875
 666:ioLIB/dhcp.c  ****    				DHCP_allocated_dns[1] = *p++;
 2419              		.loc 1 666 30 is_stmt 0 view .LVU876
 2420 015e 92F802B0 		ldrb	fp, [r2, #2]	@ zero_extendqisi2
 2421 0162 89F800B0 		strb	fp, [r9]
 667:ioLIB/dhcp.c  ****    				DHCP_allocated_dns[2] = *p++;
 2422              		.loc 1 667 8 is_stmt 1 view .LVU877
 2423              	.LVL119:
 667:ioLIB/dhcp.c  ****    				DHCP_allocated_dns[2] = *p++;
 2424              		.loc 1 667 30 is_stmt 0 view .LVU878
 2425 0166 92F803B0 		ldrb	fp, [r2, #3]	@ zero_extendqisi2
 2426 016a 89F801B0 		strb	fp, [r9, #1]
 668:ioLIB/dhcp.c  ****    				DHCP_allocated_dns[3] = *p++;
 2427              		.loc 1 668 8 is_stmt 1 view .LVU879
 2428              	.LVL120:
 670:ioLIB/dhcp.c  ****    				break;
 2429              		.loc 1 670 14 is_stmt 0 view .LVU880
 2430 016e 1644     		add	r6, r6, r2
 2431              	.LVL121:
 668:ioLIB/dhcp.c  ****    				DHCP_allocated_dns[3] = *p++;
 2432              		.loc 1 668 30 view .LVU881
 2433 0170 92F804B0 		ldrb	fp, [r2, #4]	@ zero_extendqisi2
 669:ioLIB/dhcp.c  ****    				p = p + (opt_len - 4);
 2434              		.loc 1 669 30 view .LVU882
 2435 0174 5279     		ldrb	r2, [r2, #5]	@ zero_extendqisi2
 2436              	.LVL122:
 669:ioLIB/dhcp.c  ****    				p = p + (opt_len - 4);
 2437              		.loc 1 669 30 view .LVU883
 2438 0176 89F80320 		strb	r2, [r9, #3]
 668:ioLIB/dhcp.c  ****    				DHCP_allocated_dns[3] = *p++;
 2439              		.loc 1 668 30 view .LVU884
 2440 017a 89F802B0 		strb	fp, [r9, #2]
 669:ioLIB/dhcp.c  ****    				p = p + (opt_len - 4);
 2441              		.loc 1 669 8 is_stmt 1 view .LVU885
 670:ioLIB/dhcp.c  ****    				break;
 2442              		.loc 1 670 8 view .LVU886
 670:ioLIB/dhcp.c  ****    				break;
 2443              		.loc 1 670 10 is_stmt 0 view .LVU887
 2444 017e B21C     		adds	r2, r6, #2
 2445              	.LVL123:
 671:ioLIB/dhcp.c  ****    			case dhcpIPaddrLeaseTime :
 2446              		.loc 1 671 8 is_stmt 1 view .LVU888
ARM GAS  C:\Users\clay0\AppData\Local\Temp\ccgGhwt3.s 			page 75


 2447 0180 93E7     		b	.L110
 2448              	.L107:
 655:ioLIB/dhcp.c  ****    				opt_len = *p++;       
 2449              		.loc 1 655 8 view .LVU889
 2450              	.LVL124:
 656:ioLIB/dhcp.c  ****    				DHCP_allocated_gw[0] = *p++;
 2451              		.loc 1 656 8 view .LVU890
 656:ioLIB/dhcp.c  ****    				DHCP_allocated_gw[0] = *p++;
 2452              		.loc 1 656 16 is_stmt 0 view .LVU891
 2453 0182 5678     		ldrb	r6, [r2, #1]	@ zero_extendqisi2
 2454              	.LVL125:
 657:ioLIB/dhcp.c  ****    				DHCP_allocated_gw[1] = *p++;
 2455              		.loc 1 657 8 is_stmt 1 view .LVU892
 657:ioLIB/dhcp.c  ****    				DHCP_allocated_gw[1] = *p++;
 2456              		.loc 1 657 29 is_stmt 0 view .LVU893
 2457 0184 92F802B0 		ldrb	fp, [r2, #2]	@ zero_extendqisi2
 2458 0188 88F800B0 		strb	fp, [r8]
 658:ioLIB/dhcp.c  ****    				DHCP_allocated_gw[2] = *p++;
 2459              		.loc 1 658 8 is_stmt 1 view .LVU894
 2460              	.LVL126:
 658:ioLIB/dhcp.c  ****    				DHCP_allocated_gw[2] = *p++;
 2461              		.loc 1 658 29 is_stmt 0 view .LVU895
 2462 018c 92F803B0 		ldrb	fp, [r2, #3]	@ zero_extendqisi2
 2463 0190 88F801B0 		strb	fp, [r8, #1]
 659:ioLIB/dhcp.c  ****    				DHCP_allocated_gw[3] = *p++;
 2464              		.loc 1 659 8 is_stmt 1 view .LVU896
 2465              	.LVL127:
 661:ioLIB/dhcp.c  ****    				break;
 2466              		.loc 1 661 14 is_stmt 0 view .LVU897
 2467 0194 1644     		add	r6, r6, r2
 2468              	.LVL128:
 659:ioLIB/dhcp.c  ****    				DHCP_allocated_gw[3] = *p++;
 2469              		.loc 1 659 29 view .LVU898
 2470 0196 92F804B0 		ldrb	fp, [r2, #4]	@ zero_extendqisi2
 660:ioLIB/dhcp.c  ****    				p = p + (opt_len - 4);
 2471              		.loc 1 660 29 view .LVU899
 2472 019a 5279     		ldrb	r2, [r2, #5]	@ zero_extendqisi2
 2473              	.LVL129:
 660:ioLIB/dhcp.c  ****    				p = p + (opt_len - 4);
 2474              		.loc 1 660 29 view .LVU900
 2475 019c 88F80320 		strb	r2, [r8, #3]
 659:ioLIB/dhcp.c  ****    				DHCP_allocated_gw[3] = *p++;
 2476              		.loc 1 659 29 view .LVU901
 2477 01a0 88F802B0 		strb	fp, [r8, #2]
 660:ioLIB/dhcp.c  ****    				p = p + (opt_len - 4);
 2478              		.loc 1 660 8 is_stmt 1 view .LVU902
 661:ioLIB/dhcp.c  ****    				break;
 2479              		.loc 1 661 8 view .LVU903
 661:ioLIB/dhcp.c  ****    				break;
 2480              		.loc 1 661 10 is_stmt 0 view .LVU904
 2481 01a4 B21C     		adds	r2, r6, #2
 2482              	.LVL130:
 662:ioLIB/dhcp.c  ****    			case dns :
 2483              		.loc 1 662 8 is_stmt 1 view .LVU905
 2484 01a6 80E7     		b	.L110
 2485              	.L108:
 647:ioLIB/dhcp.c  ****    				p++;
ARM GAS  C:\Users\clay0\AppData\Local\Temp\ccgGhwt3.s 			page 76


 2486              		.loc 1 647 8 view .LVU906
 2487              	.LVL131:
 648:ioLIB/dhcp.c  ****    				DHCP_allocated_sn[0] = *p++;
 2488              		.loc 1 648 8 view .LVU907
 649:ioLIB/dhcp.c  ****    				DHCP_allocated_sn[1] = *p++;
 2489              		.loc 1 649 8 view .LVU908
 649:ioLIB/dhcp.c  ****    				DHCP_allocated_sn[1] = *p++;
 2490              		.loc 1 649 29 is_stmt 0 view .LVU909
 2491 01a8 9678     		ldrb	r6, [r2, #2]	@ zero_extendqisi2
 2492 01aa 3E70     		strb	r6, [r7]
 650:ioLIB/dhcp.c  ****    				DHCP_allocated_sn[2] = *p++;
 2493              		.loc 1 650 8 is_stmt 1 view .LVU910
 2494              	.LVL132:
 650:ioLIB/dhcp.c  ****    				DHCP_allocated_sn[2] = *p++;
 2495              		.loc 1 650 29 is_stmt 0 view .LVU911
 2496 01ac D678     		ldrb	r6, [r2, #3]	@ zero_extendqisi2
 2497 01ae 7E70     		strb	r6, [r7, #1]
 651:ioLIB/dhcp.c  ****    				DHCP_allocated_sn[3] = *p++;
 2498              		.loc 1 651 8 is_stmt 1 view .LVU912
 2499              	.LVL133:
 651:ioLIB/dhcp.c  ****    				DHCP_allocated_sn[3] = *p++;
 2500              		.loc 1 651 29 is_stmt 0 view .LVU913
 2501 01b0 1679     		ldrb	r6, [r2, #4]	@ zero_extendqisi2
 2502 01b2 BE70     		strb	r6, [r7, #2]
 652:ioLIB/dhcp.c  ****    				break;
 2503              		.loc 1 652 8 is_stmt 1 view .LVU914
 2504              	.LVL134:
 652:ioLIB/dhcp.c  ****    				break;
 2505              		.loc 1 652 29 is_stmt 0 view .LVU915
 2506 01b4 5679     		ldrb	r6, [r2, #5]	@ zero_extendqisi2
 2507 01b6 FE70     		strb	r6, [r7, #3]
 653:ioLIB/dhcp.c  ****    			case routersOnSubnet :
 2508              		.loc 1 653 8 is_stmt 1 view .LVU916
 652:ioLIB/dhcp.c  ****    				break;
 2509              		.loc 1 652 33 is_stmt 0 view .LVU917
 2510 01b8 0632     		adds	r2, r2, #6
 2511              	.LVL135:
 653:ioLIB/dhcp.c  ****    			case routersOnSubnet :
 2512              		.loc 1 653 8 view .LVU918
 2513 01ba 76E7     		b	.L110
 2514              	.L109:
 639:ioLIB/dhcp.c  ****    				break;
 2515              		.loc 1 639 8 is_stmt 1 view .LVU919
 639:ioLIB/dhcp.c  ****    				break;
 2516              		.loc 1 639 9 is_stmt 0 view .LVU920
 2517 01bc 0132     		adds	r2, r2, #1
 2518              	.LVL136:
 640:ioLIB/dhcp.c  ****    			case dhcpMessageType :
 2519              		.loc 1 640 8 is_stmt 1 view .LVU921
 2520 01be 74E7     		b	.L110
 2521              	.L100:
 633:ioLIB/dhcp.c  **** 
 2522              		.loc 1 633 4 is_stmt 0 view .LVU922
 2523 01c0 FF2E     		cmp	r6, #255
 2524 01c2 99D1     		bne	.L101
 2525 01c4 1A46     		mov	r2, r3
 2526              	.LVL137:
ARM GAS  C:\Users\clay0\AppData\Local\Temp\ccgGhwt3.s 			page 77


 633:ioLIB/dhcp.c  **** 
 2527              		.loc 1 633 4 view .LVU923
 2528 01c6 70E7     		b	.L110
 2529              	.LVL138:
 2530              	.L117:
 618:ioLIB/dhcp.c  ****                 ((svr_addr[0]!=DHCP_REAL_SIP[0])|| (svr_addr[1]!=DHCP_REAL_SIP[1])|| (svr_addr[2]!=
 2531              		.loc 1 618 13 is_stmt 1 view .LVU924
 618:ioLIB/dhcp.c  ****                 ((svr_addr[0]!=DHCP_REAL_SIP[0])|| (svr_addr[1]!=DHCP_REAL_SIP[1])|| (svr_addr[2]!=
 2532              		.loc 1 618 15 is_stmt 0 view .LVU925
 2533 01c8 6445     		cmp	r4, ip
 2534 01ca 17D0     		beq	.L120
 2535              	.L98:
 619:ioLIB/dhcp.c  ****             {
 2536              		.loc 1 619 45 discriminator 7 view .LVU926
 2537 01cc 184B     		ldr	r3, .L121+20
 618:ioLIB/dhcp.c  ****                 ((svr_addr[0]!=DHCP_REAL_SIP[0])|| (svr_addr[1]!=DHCP_REAL_SIP[1])|| (svr_addr[2]!=
 2538              		.loc 1 618 133 discriminator 7 view .LVU927
 2539 01ce 1C78     		ldrb	r4, [r3]	@ zero_extendqisi2
 2540 01d0 6445     		cmp	r4, ip
 2541 01d2 7FF41DAF 		bne	.L113
 619:ioLIB/dhcp.c  ****             {
 2542              		.loc 1 619 49 view .LVU928
 2543 01d6 9DF819E0 		ldrb	lr, [sp, #25]	@ zero_extendqisi2
 2544 01da 5C78     		ldrb	r4, [r3, #1]	@ zero_extendqisi2
 2545 01dc A645     		cmp	lr, r4
 2546 01de 7FF417AF 		bne	.L113
 619:ioLIB/dhcp.c  ****             {
 2547              		.loc 1 619 83 discriminator 1 view .LVU929
 2548 01e2 9DF81A40 		ldrb	r4, [sp, #26]	@ zero_extendqisi2
 2549 01e6 9D78     		ldrb	r5, [r3, #2]	@ zero_extendqisi2
 2550 01e8 AC42     		cmp	r4, r5
 2551 01ea 7FF411AF 		bne	.L113
 619:ioLIB/dhcp.c  ****             {
 2552              		.loc 1 619 117 discriminator 2 view .LVU930
 2553 01ee DB78     		ldrb	r3, [r3, #3]	@ zero_extendqisi2
 2554 01f0 9DF81B50 		ldrb	r5, [sp, #27]	@ zero_extendqisi2
 2555 01f4 9D42     		cmp	r5, r3
 2556 01f6 7FF40BAF 		bne	.L113
 2557 01fa 4AE7     		b	.L97
 2558              	.L120:
 618:ioLIB/dhcp.c  ****                 ((svr_addr[0]!=DHCP_REAL_SIP[0])|| (svr_addr[1]!=DHCP_REAL_SIP[1])|| (svr_addr[2]!=
 2559              		.loc 1 618 44 discriminator 2 view .LVU931
 2560 01fc 9DF819E0 		ldrb	lr, [sp, #25]	@ zero_extendqisi2
 2561 0200 BE45     		cmp	lr, r7
 2562 0202 E3D1     		bne	.L98
 618:ioLIB/dhcp.c  ****                 ((svr_addr[0]!=DHCP_REAL_SIP[0])|| (svr_addr[1]!=DHCP_REAL_SIP[1])|| (svr_addr[2]!=
 2563              		.loc 1 618 73 discriminator 4 view .LVU932
 2564 0204 9DF81A40 		ldrb	r4, [sp, #26]	@ zero_extendqisi2
 2565 0208 AC42     		cmp	r4, r5
 2566 020a DFD1     		bne	.L98
 618:ioLIB/dhcp.c  ****                 ((svr_addr[0]!=DHCP_REAL_SIP[0])|| (svr_addr[1]!=DHCP_REAL_SIP[1])|| (svr_addr[2]!=
 2567              		.loc 1 618 102 discriminator 6 view .LVU933
 2568 020c 9DF81B50 		ldrb	r5, [sp, #27]	@ zero_extendqisi2
 2569 0210 B542     		cmp	r5, r6
 2570 0212 DBD1     		bne	.L98
 2571 0214 3DE7     		b	.L97
 2572              	.LVL139:
ARM GAS  C:\Users\clay0\AppData\Local\Temp\ccgGhwt3.s 			page 78


 2573              	.L119:
 703:ioLIB/dhcp.c  **** }
 2574              		.loc 1 703 9 view .LVU934
 2575 0216 40B2     		sxtb	r0, r0
 2576 0218 FBE6     		b	.L94
 2577              	.L122:
 2578 021a 00BF     		.align	2
 2579              	.L121:
 2580 021c 00000000 		.word	.LANCHOR12
 2581 0220 00000000 		.word	.LANCHOR7
 2582 0224 00000000 		.word	.LANCHOR3
 2583 0228 00000000 		.word	.LANCHOR9
 2584 022c 00000000 		.word	.LANCHOR1
 2585 0230 00000000 		.word	.LANCHOR10
 2586 0234 00000000 		.word	.LANCHOR15
 2587 0238 00000000 		.word	.LANCHOR14
 2588 023c 00000000 		.word	.LANCHOR2
 2589              		.cfi_endproc
 2590              	.LFE8:
 2592              		.section	.text.DHCP_stop,"ax",%progbits
 2593              		.align	1
 2594              		.p2align 2,,3
 2595              		.global	DHCP_stop
 2596              		.syntax unified
 2597              		.thumb
 2598              		.thumb_func
 2600              	DHCP_stop:
 2601              	.LFB10:
 837:ioLIB/dhcp.c  ****    close(DHCP_SOCKET);
 2602              		.loc 1 837 1 is_stmt 1 view -0
 2603              		.cfi_startproc
 2604              		@ args = 0, pretend = 0, frame = 0
 2605              		@ frame_needed = 0, uses_anonymous_args = 0
 838:ioLIB/dhcp.c  ****    dhcp_state = STATE_DHCP_STOP;
 2606              		.loc 1 838 4 view .LVU936
 837:ioLIB/dhcp.c  ****    close(DHCP_SOCKET);
 2607              		.loc 1 837 1 is_stmt 0 view .LVU937
 2608 0000 08B5     		push	{r3, lr}
 2609              	.LCFI26:
 2610              		.cfi_def_cfa_offset 8
 2611              		.cfi_offset 3, -8
 2612              		.cfi_offset 14, -4
 838:ioLIB/dhcp.c  ****    dhcp_state = STATE_DHCP_STOP;
 2613              		.loc 1 838 4 view .LVU938
 2614 0002 044B     		ldr	r3, .L125
 2615 0004 1878     		ldrb	r0, [r3]	@ zero_extendqisi2
 2616 0006 FFF7FEFF 		bl	close
 2617              	.LVL140:
 839:ioLIB/dhcp.c  **** }
 2618              		.loc 1 839 4 is_stmt 1 view .LVU939
 839:ioLIB/dhcp.c  **** }
 2619              		.loc 1 839 15 is_stmt 0 view .LVU940
 2620 000a 034B     		ldr	r3, .L125+4
 2621 000c 0622     		movs	r2, #6
 2622 000e 1A70     		strb	r2, [r3]
 840:ioLIB/dhcp.c  **** 
 2623              		.loc 1 840 1 view .LVU941
ARM GAS  C:\Users\clay0\AppData\Local\Temp\ccgGhwt3.s 			page 79


 2624 0010 08BD     		pop	{r3, pc}
 2625              	.L126:
 2626 0012 00BF     		.align	2
 2627              	.L125:
 2628 0014 00000000 		.word	.LANCHOR12
 2629 0018 00000000 		.word	.LANCHOR13
 2630              		.cfi_endproc
 2631              	.LFE10:
 2633              		.section	.text.check_DHCP_timeout,"ax",%progbits
 2634              		.align	1
 2635              		.p2align 2,,3
 2636              		.global	check_DHCP_timeout
 2637              		.syntax unified
 2638              		.thumb
 2639              		.thumb_func
 2641              	check_DHCP_timeout:
 2642              	.LFB11:
 843:ioLIB/dhcp.c  **** 	uint8_t ret = DHCP_RUNNING;
 2643              		.loc 1 843 1 is_stmt 1 view -0
 2644              		.cfi_startproc
 2645              		@ args = 0, pretend = 0, frame = 0
 2646              		@ frame_needed = 0, uses_anonymous_args = 0
 844:ioLIB/dhcp.c  **** 	
 2647              		.loc 1 844 2 view .LVU943
 2648              	.LVL141:
 846:ioLIB/dhcp.c  **** 		if (dhcp_tick_next < dhcp_tick_1s) {
 2649              		.loc 1 846 2 view .LVU944
 843:ioLIB/dhcp.c  **** 	uint8_t ret = DHCP_RUNNING;
 2650              		.loc 1 843 1 is_stmt 0 view .LVU945
 2651 0000 70B5     		push	{r4, r5, r6, lr}
 2652              	.LCFI27:
 2653              		.cfi_def_cfa_offset 16
 2654              		.cfi_offset 4, -16
 2655              		.cfi_offset 5, -12
 2656              		.cfi_offset 6, -8
 2657              		.cfi_offset 14, -4
 846:ioLIB/dhcp.c  **** 		if (dhcp_tick_next < dhcp_tick_1s) {
 2658              		.loc 1 846 23 view .LVU946
 2659 0002 214C     		ldr	r4, .L152
 2660 0004 94F90030 		ldrsb	r3, [r4]
 846:ioLIB/dhcp.c  **** 		if (dhcp_tick_next < dhcp_tick_1s) {
 2661              		.loc 1 846 5 view .LVU947
 2662 0008 012B     		cmp	r3, #1
 2663 000a 11DD     		ble	.L149
 877:ioLIB/dhcp.c  **** 			case STATE_DHCP_DISCOVER:
 2664              		.loc 1 877 3 is_stmt 1 view .LVU948
 2665 000c 1F4D     		ldr	r5, .L152+4
 2666 000e 95F90030 		ldrsb	r3, [r5]
 2667 0012 022B     		cmp	r3, #2
 2668 0014 29D0     		beq	.L132
 2669 0016 042B     		cmp	r3, #4
 2670 0018 27D0     		beq	.L132
 2671 001a 012B     		cmp	r3, #1
 2672 001c 22D0     		beq	.L150
 2673 001e 0120     		movs	r0, #1
 2674              	.LVL142:
 2675              	.L133:
ARM GAS  C:\Users\clay0\AppData\Local\Temp\ccgGhwt3.s 			page 80


 890:ioLIB/dhcp.c  **** 	}
 2676              		.loc 1 890 3 view .LVU949
 2677              	.LBB132:
 2678              	.LBI132:
 965:ioLIB/dhcp.c  **** {
 2679              		.loc 1 965 6 view .LVU950
 2680              	.LBB133:
 967:ioLIB/dhcp.c  **** 	dhcp_tick_next = DHCP_WAIT_TIME;
 2681              		.loc 1 967 2 view .LVU951
 967:ioLIB/dhcp.c  **** 	dhcp_tick_next = DHCP_WAIT_TIME;
 2682              		.loc 1 967 15 is_stmt 0 view .LVU952
 2683 0020 1B49     		ldr	r1, .L152+8
 968:ioLIB/dhcp.c  **** 	dhcp_retry_count = 0;
 2684              		.loc 1 968 17 view .LVU953
 2685 0022 1C4A     		ldr	r2, .L152+12
 967:ioLIB/dhcp.c  **** 	dhcp_tick_next = DHCP_WAIT_TIME;
 2686              		.loc 1 967 15 view .LVU954
 2687 0024 0023     		movs	r3, #0
 2688 0026 0B60     		str	r3, [r1]
 968:ioLIB/dhcp.c  **** 	dhcp_retry_count = 0;
 2689              		.loc 1 968 2 is_stmt 1 view .LVU955
 968:ioLIB/dhcp.c  **** 	dhcp_retry_count = 0;
 2690              		.loc 1 968 17 is_stmt 0 view .LVU956
 2691 0028 0A21     		movs	r1, #10
 2692 002a 1160     		str	r1, [r2]
 969:ioLIB/dhcp.c  **** }
 2693              		.loc 1 969 2 is_stmt 1 view .LVU957
 969:ioLIB/dhcp.c  **** }
 2694              		.loc 1 969 19 is_stmt 0 view .LVU958
 2695 002c 2370     		strb	r3, [r4]
 969:ioLIB/dhcp.c  **** }
 2696              		.loc 1 969 19 view .LVU959
 2697              	.LBE133:
 2698              	.LBE132:
 892:ioLIB/dhcp.c  **** }
 2699              		.loc 1 892 2 is_stmt 1 view .LVU960
 893:ioLIB/dhcp.c  **** 
 2700              		.loc 1 893 1 is_stmt 0 view .LVU961
 2701 002e 70BD     		pop	{r4, r5, r6, pc}
 2702              	.LVL143:
 2703              	.L149:
 847:ioLIB/dhcp.c  **** 
 2704              		.loc 1 847 3 is_stmt 1 view .LVU962
 847:ioLIB/dhcp.c  **** 
 2705              		.loc 1 847 22 is_stmt 0 view .LVU963
 2706 0030 174D     		ldr	r5, .L152+8
 2707 0032 184E     		ldr	r6, .L152+12
 2708 0034 2A68     		ldr	r2, [r5]
 847:ioLIB/dhcp.c  **** 
 2709              		.loc 1 847 6 view .LVU964
 2710 0036 3168     		ldr	r1, [r6]
 2711 0038 9142     		cmp	r1, r2
 2712 003a 11D2     		bcs	.L134
 2713              	.LBB134:
 2714              	.LBI134:
 842:ioLIB/dhcp.c  **** {
 2715              		.loc 1 842 9 is_stmt 1 view .LVU965
ARM GAS  C:\Users\clay0\AppData\Local\Temp\ccgGhwt3.s 			page 81


 2716              	.LBB135:
 849:ioLIB/dhcp.c  **** 				case STATE_DHCP_DISCOVER :
 2717              		.loc 1 849 4 view .LVU966
 2718 003c 134A     		ldr	r2, .L152+4
 2719 003e 92F90020 		ldrsb	r2, [r2]
 2720 0042 022A     		cmp	r2, #2
 2721 0044 16D0     		beq	.L130
 2722 0046 042A     		cmp	r2, #4
 2723 0048 14D0     		beq	.L130
 2724 004a 012A     		cmp	r2, #1
 2725 004c 17D0     		beq	.L151
 2726              	.L131:
 871:ioLIB/dhcp.c  **** 			dhcp_tick_next = dhcp_tick_1s + DHCP_WAIT_TIME;
 2727              		.loc 1 871 4 view .LVU967
 871:ioLIB/dhcp.c  **** 			dhcp_tick_next = dhcp_tick_1s + DHCP_WAIT_TIME;
 2728              		.loc 1 871 17 is_stmt 0 view .LVU968
 2729 004e 0022     		movs	r2, #0
 2730 0050 2A60     		str	r2, [r5]
 872:ioLIB/dhcp.c  **** 			dhcp_retry_count++;
 2731              		.loc 1 872 4 is_stmt 1 view .LVU969
 872:ioLIB/dhcp.c  **** 			dhcp_retry_count++;
 2732              		.loc 1 872 34 is_stmt 0 view .LVU970
 2733 0052 2A68     		ldr	r2, [r5]
 873:ioLIB/dhcp.c  **** 		}
 2734              		.loc 1 873 20 view .LVU971
 2735 0054 0133     		adds	r3, r3, #1
 872:ioLIB/dhcp.c  **** 			dhcp_retry_count++;
 2736              		.loc 1 872 34 view .LVU972
 2737 0056 0A32     		adds	r2, r2, #10
 872:ioLIB/dhcp.c  **** 			dhcp_retry_count++;
 2738              		.loc 1 872 19 view .LVU973
 2739 0058 3260     		str	r2, [r6]
 873:ioLIB/dhcp.c  **** 		}
 2740              		.loc 1 873 4 is_stmt 1 view .LVU974
 873:ioLIB/dhcp.c  **** 		}
 2741              		.loc 1 873 20 is_stmt 0 view .LVU975
 2742 005a 2370     		strb	r3, [r4]
 2743              	.LVL144:
 892:ioLIB/dhcp.c  **** }
 2744              		.loc 1 892 2 is_stmt 1 view .LVU976
 873:ioLIB/dhcp.c  **** 		}
 2745              		.loc 1 873 20 is_stmt 0 view .LVU977
 2746 005c 0120     		movs	r0, #1
 2747              	.LVL145:
 873:ioLIB/dhcp.c  **** 		}
 2748              		.loc 1 873 20 view .LVU978
 2749              	.LBE135:
 2750              	.LBE134:
 892:ioLIB/dhcp.c  **** }
 2751              		.loc 1 892 2 is_stmt 1 view .LVU979
 893:ioLIB/dhcp.c  **** 
 2752              		.loc 1 893 1 is_stmt 0 view .LVU980
 2753 005e 70BD     		pop	{r4, r5, r6, pc}
 2754              	.LVL146:
 2755              	.L134:
 844:ioLIB/dhcp.c  **** 	
 2756              		.loc 1 844 10 view .LVU981
ARM GAS  C:\Users\clay0\AppData\Local\Temp\ccgGhwt3.s 			page 82


 2757 0060 0120     		movs	r0, #1
 2758              	.LVL147:
 892:ioLIB/dhcp.c  **** }
 2759              		.loc 1 892 2 is_stmt 1 view .LVU982
 893:ioLIB/dhcp.c  **** 
 2760              		.loc 1 893 1 is_stmt 0 view .LVU983
 2761 0062 70BD     		pop	{r4, r5, r6, pc}
 2762              	.LVL148:
 2763              	.L150:
 879:ioLIB/dhcp.c  **** 				ret = DHCP_FAILED;
 2764              		.loc 1 879 5 is_stmt 1 view .LVU984
 879:ioLIB/dhcp.c  **** 				ret = DHCP_FAILED;
 2765              		.loc 1 879 16 is_stmt 0 view .LVU985
 2766 0064 0020     		movs	r0, #0
 2767 0066 2870     		strb	r0, [r5]
 880:ioLIB/dhcp.c  **** 				break;
 2768              		.loc 1 880 5 is_stmt 1 view .LVU986
 2769              	.LVL149:
 881:ioLIB/dhcp.c  **** 			case STATE_DHCP_REQUEST:
 2770              		.loc 1 881 5 view .LVU987
 2771 0068 DAE7     		b	.L133
 2772              	.LVL150:
 2773              	.L132:
 884:ioLIB/dhcp.c  **** 				dhcp_state = STATE_DHCP_DISCOVER;
 2774              		.loc 1 884 5 view .LVU988
 2775 006a FFF7FEFF 		bl	send_DHCP_DISCOVER
 2776              	.LVL151:
 885:ioLIB/dhcp.c  **** 				break;
 2777              		.loc 1 885 5 view .LVU989
 885:ioLIB/dhcp.c  **** 				break;
 2778              		.loc 1 885 16 is_stmt 0 view .LVU990
 2779 006e 0120     		movs	r0, #1
 2780 0070 2870     		strb	r0, [r5]
 886:ioLIB/dhcp.c  **** 			default :
 2781              		.loc 1 886 5 is_stmt 1 view .LVU991
 2782 0072 D5E7     		b	.L133
 2783              	.L130:
 2784              	.LBB137:
 2785              	.LBB136:
 858:ioLIB/dhcp.c  **** 				break;
 2786              		.loc 1 858 6 view .LVU992
 2787 0074 FFF7FEFF 		bl	send_DHCP_REQUEST
 2788              	.LVL152:
 859:ioLIB/dhcp.c  **** 
 2789              		.loc 1 859 5 view .LVU993
 873:ioLIB/dhcp.c  **** 		}
 2790              		.loc 1 873 20 is_stmt 0 view .LVU994
 2791 0078 94F90030 		ldrsb	r3, [r4]
 859:ioLIB/dhcp.c  **** 
 2792              		.loc 1 859 5 view .LVU995
 2793 007c E7E7     		b	.L131
 2794              	.L151:
 852:ioLIB/dhcp.c  **** 				break;
 2795              		.loc 1 852 6 is_stmt 1 view .LVU996
 2796 007e FFF7FEFF 		bl	send_DHCP_DISCOVER
 2797              	.LVL153:
 853:ioLIB/dhcp.c  **** 		
ARM GAS  C:\Users\clay0\AppData\Local\Temp\ccgGhwt3.s 			page 83


 2798              		.loc 1 853 5 view .LVU997
 873:ioLIB/dhcp.c  **** 		}
 2799              		.loc 1 873 20 is_stmt 0 view .LVU998
 2800 0082 94F90030 		ldrsb	r3, [r4]
 853:ioLIB/dhcp.c  **** 		
 2801              		.loc 1 853 5 view .LVU999
 2802 0086 E2E7     		b	.L131
 2803              	.L153:
 2804              		.align	2
 2805              	.L152:
 2806 0088 00000000 		.word	.LANCHOR16
 2807 008c 00000000 		.word	.LANCHOR13
 2808 0090 00000000 		.word	.LANCHOR17
 2809 0094 00000000 		.word	.LANCHOR18
 2810              	.LBE136:
 2811              	.LBE137:
 2812              		.cfi_endproc
 2813              	.LFE11:
 2815              		.section	.rodata.DHCP_run.str1.4,"aMS",%progbits,1
 2816              		.align	2
 2817              	.LC0:
 2818 0000 43484543 		.ascii	"CHECK_IP_CONFLICT\000"
 2818      4B5F4950 
 2818      5F434F4E 
 2818      464C4943 
 2818      5400
 2819              		.section	.text.DHCP_run,"ax",%progbits
 2820              		.align	1
 2821              		.p2align 2,,3
 2822              		.global	DHCP_run
 2823              		.syntax unified
 2824              		.thumb
 2825              		.thumb_func
 2827              	DHCP_run:
 2828              	.LFB9:
 707:ioLIB/dhcp.c  **** 	uint8_t  type;
 2829              		.loc 1 707 1 is_stmt 1 view -0
 2830              		.cfi_startproc
 2831              		@ args = 0, pretend = 0, frame = 0
 2832              		@ frame_needed = 0, uses_anonymous_args = 0
 708:ioLIB/dhcp.c  **** 	uint8_t  ret;
 2833              		.loc 1 708 2 view .LVU1001
 709:ioLIB/dhcp.c  **** 
 2834              		.loc 1 709 2 view .LVU1002
 711:ioLIB/dhcp.c  **** 
 2835              		.loc 1 711 2 view .LVU1003
 707:ioLIB/dhcp.c  **** 	uint8_t  type;
 2836              		.loc 1 707 1 is_stmt 0 view .LVU1004
 2837 0000 F0B5     		push	{r4, r5, r6, r7, lr}
 2838              	.LCFI28:
 2839              		.cfi_def_cfa_offset 20
 2840              		.cfi_offset 4, -20
 2841              		.cfi_offset 5, -16
 2842              		.cfi_offset 6, -12
 2843              		.cfi_offset 7, -8
 2844              		.cfi_offset 14, -4
 711:ioLIB/dhcp.c  **** 
ARM GAS  C:\Users\clay0\AppData\Local\Temp\ccgGhwt3.s 			page 84


 2845              		.loc 1 711 16 view .LVU1005
 2846 0002 724C     		ldr	r4, .L188
 711:ioLIB/dhcp.c  **** 
 2847              		.loc 1 711 4 view .LVU1006
 2848 0004 94F90030 		ldrsb	r3, [r4]
 2849 0008 062B     		cmp	r3, #6
 707:ioLIB/dhcp.c  **** 	uint8_t  type;
 2850              		.loc 1 707 1 view .LVU1007
 2851 000a 83B0     		sub	sp, sp, #12
 2852              	.LCFI29:
 2853              		.cfi_def_cfa_offset 32
 711:ioLIB/dhcp.c  **** 
 2854              		.loc 1 711 4 view .LVU1008
 2855 000c 1CD0     		beq	.L171
 713:ioLIB/dhcp.c  **** 	   socket(DHCP_SOCKET, Sn_MR_UDP, DHCP_CLIENT_PORT, 0x00);
 2856              		.loc 1 713 2 is_stmt 1 view .LVU1009
 713:ioLIB/dhcp.c  **** 	   socket(DHCP_SOCKET, Sn_MR_UDP, DHCP_CLIENT_PORT, 0x00);
 2857              		.loc 1 713 5 is_stmt 0 view .LVU1010
 2858 000e 704E     		ldr	r6, .L188+4
 2859 0010 3078     		ldrb	r0, [r6]	@ zero_extendqisi2
 2860 0012 4001     		lsls	r0, r0, #5
 2861 0014 00F54270 		add	r0, r0, #776
 2862 0018 FFF7FEFF 		bl	WIZCHIP_READ
 2863              	.LVL154:
 713:ioLIB/dhcp.c  **** 	   socket(DHCP_SOCKET, Sn_MR_UDP, DHCP_CLIENT_PORT, 0x00);
 2864              		.loc 1 713 4 view .LVU1011
 2865 001c 2228     		cmp	r0, #34
 2866 001e 0CD1     		bne	.L182
 2867              	.L156:
 716:ioLIB/dhcp.c  **** 	type = parseDHCPMSG();
 2868              		.loc 1 716 2 is_stmt 1 view .LVU1012
 2869              	.LVL155:
 717:ioLIB/dhcp.c  **** 
 2870              		.loc 1 717 2 view .LVU1013
 717:ioLIB/dhcp.c  **** 
 2871              		.loc 1 717 9 is_stmt 0 view .LVU1014
 2872 0020 FFF7FEFF 		bl	parseDHCPMSG
 2873              	.LVL156:
 719:ioLIB/dhcp.c  **** 	   case STATE_DHCP_INIT     :
 2874              		.loc 1 719 2 view .LVU1015
 2875 0024 94F90030 		ldrsb	r3, [r4]
 717:ioLIB/dhcp.c  **** 
 2876              		.loc 1 717 7 view .LVU1016
 2877 0028 C5B2     		uxtb	r5, r0
 2878              	.LVL157:
 719:ioLIB/dhcp.c  **** 	   case STATE_DHCP_INIT     :
 2879              		.loc 1 719 2 is_stmt 1 view .LVU1017
 2880 002a 042B     		cmp	r3, #4
 2881 002c 00F2CB80 		bhi	.L172
 2882 0030 DFE803F0 		tbb	[pc, r3]
 2883              	.L158:
 2884 0034 16       		.byte	(.L162-.L158)/2
 2885 0035 1F       		.byte	(.L161-.L158)/2
 2886 0036 2B       		.byte	(.L160-.L158)/2
 2887 0037 3A       		.byte	(.L159-.L158)/2
 2888 0038 0D       		.byte	(.L157-.L158)/2
 2889              	.LVL158:
ARM GAS  C:\Users\clay0\AppData\Local\Temp\ccgGhwt3.s 			page 85


 2890 0039 00       		.p2align 1
 2891              	.L182:
 714:ioLIB/dhcp.c  **** 
 2892              		.loc 1 714 5 view .LVU1018
 2893 003a 3078     		ldrb	r0, [r6]	@ zero_extendqisi2
 2894 003c 0023     		movs	r3, #0
 2895 003e 4422     		movs	r2, #68
 2896 0040 0221     		movs	r1, #2
 2897 0042 FFF7FEFF 		bl	socket
 2898              	.LVL159:
 2899 0046 EBE7     		b	.L156
 2900              	.L171:
 711:ioLIB/dhcp.c  **** 
 2901              		.loc 1 711 43 is_stmt 0 view .LVU1019
 2902 0048 0520     		movs	r0, #5
 2903              	.L155:
 834:ioLIB/dhcp.c  **** 
 2904              		.loc 1 834 1 view .LVU1020
 2905 004a 03B0     		add	sp, sp, #12
 2906              	.LCFI30:
 2907              		.cfi_remember_state
 2908              		.cfi_def_cfa_offset 20
 2909              		@ sp needed
 2910 004c F0BD     		pop	{r4, r5, r6, r7, pc}
 2911              	.LVL160:
 2912              	.L157:
 2913              	.LCFI31:
 2914              		.cfi_restore_state
 798:ioLIB/dhcp.c  **** 			if (type == DHCP_ACK) {
 2915              		.loc 1 798 6 is_stmt 1 view .LVU1021
 799:ioLIB/dhcp.c  **** 				dhcp_retry_count = 0;
 2916              		.loc 1 799 4 view .LVU1022
 799:ioLIB/dhcp.c  **** 				dhcp_retry_count = 0;
 2917              		.loc 1 799 7 is_stmt 0 view .LVU1023
 2918 004e 052D     		cmp	r5, #5
 2919 0050 35D0     		beq	.L183
 818:ioLIB/dhcp.c  **** 
 2920              		.loc 1 818 11 is_stmt 1 view .LVU1024
 818:ioLIB/dhcp.c  **** 
 2921              		.loc 1 818 14 is_stmt 0 view .LVU1025
 2922 0052 062D     		cmp	r5, #6
 2923 0054 5ED0     		beq	.L184
 2924              	.LVL161:
 2925              	.L163:
 740:ioLIB/dhcp.c  ****          break;
 2926              		.loc 1 740 11 is_stmt 1 view .LVU1026
 834:ioLIB/dhcp.c  **** 
 2927              		.loc 1 834 1 is_stmt 0 view .LVU1027
 2928 0056 03B0     		add	sp, sp, #12
 2929              	.LCFI32:
 2930              		.cfi_remember_state
 2931              		.cfi_def_cfa_offset 20
 2932              		@ sp needed
 2933 0058 BDE8F040 		pop	{r4, r5, r6, r7, lr}
 2934              	.LCFI33:
 2935              		.cfi_restore 14
 2936              		.cfi_restore 7
ARM GAS  C:\Users\clay0\AppData\Local\Temp\ccgGhwt3.s 			page 86


 2937              		.cfi_restore 6
 2938              		.cfi_restore 5
 2939              		.cfi_restore 4
 2940              		.cfi_def_cfa_offset 0
 2941              	.LVL162:
 740:ioLIB/dhcp.c  ****          break;
 2942              		.loc 1 740 17 view .LVU1028
 2943 005c FFF7FEBF 		b	check_DHCP_timeout
 2944              	.LVL163:
 2945              	.L162:
 2946              	.LCFI34:
 2947              		.cfi_restore_state
 721:ioLIB/dhcp.c  ****          DHCP_allocated_ip[1] = 0;
 2948              		.loc 1 721 10 is_stmt 1 view .LVU1029
 722:ioLIB/dhcp.c  ****          DHCP_allocated_ip[2] = 0;
 2949              		.loc 1 722 10 view .LVU1030
 723:ioLIB/dhcp.c  ****          DHCP_allocated_ip[3] = 0;
 2950              		.loc 1 723 10 view .LVU1031
 724:ioLIB/dhcp.c  ****    		send_DHCP_DISCOVER();
 2951              		.loc 1 724 10 view .LVU1032
 721:ioLIB/dhcp.c  ****          DHCP_allocated_ip[1] = 0;
 2952              		.loc 1 721 31 is_stmt 0 view .LVU1033
 2953 0060 5C4B     		ldr	r3, .L188+8
 2954 0062 0022     		movs	r2, #0
 2955 0064 1A60     		str	r2, [r3]
 725:ioLIB/dhcp.c  ****    		dhcp_state = STATE_DHCP_DISCOVER;
 2956              		.loc 1 725 6 is_stmt 1 view .LVU1034
 2957 0066 FFF7FEFF 		bl	send_DHCP_DISCOVER
 2958              	.LVL164:
 726:ioLIB/dhcp.c  ****    		break;
 2959              		.loc 1 726 6 view .LVU1035
 726:ioLIB/dhcp.c  ****    		break;
 2960              		.loc 1 726 17 is_stmt 0 view .LVU1036
 2961 006a 0120     		movs	r0, #1
 2962 006c 2070     		strb	r0, [r4]
 727:ioLIB/dhcp.c  **** 		case STATE_DHCP_DISCOVER :
 2963              		.loc 1 727 6 is_stmt 1 view .LVU1037
 2964              	.LVL165:
 834:ioLIB/dhcp.c  **** 
 2965              		.loc 1 834 1 is_stmt 0 view .LVU1038
 2966 006e 03B0     		add	sp, sp, #12
 2967              	.LCFI35:
 2968              		.cfi_remember_state
 2969              		.cfi_def_cfa_offset 20
 2970              		@ sp needed
 2971 0070 F0BD     		pop	{r4, r5, r6, r7, pc}
 2972              	.LVL166:
 2973              	.L161:
 2974              	.LCFI36:
 2975              		.cfi_restore_state
 729:ioLIB/dhcp.c  **** #ifdef _DHCP_DEBUG_
 2976              		.loc 1 729 4 is_stmt 1 view .LVU1039
 729:ioLIB/dhcp.c  **** #ifdef _DHCP_DEBUG_
 2977              		.loc 1 729 7 is_stmt 0 view .LVU1040
 2978 0072 022D     		cmp	r5, #2
 2979 0074 EFD1     		bne	.L163
 733:ioLIB/dhcp.c  ****             DHCP_allocated_ip[1] = pDHCPMSG->yiaddr[1];
ARM GAS  C:\Users\clay0\AppData\Local\Temp\ccgGhwt3.s 			page 87


 2980              		.loc 1 733 13 is_stmt 1 view .LVU1041
 734:ioLIB/dhcp.c  ****             DHCP_allocated_ip[2] = pDHCPMSG->yiaddr[2];
 2981              		.loc 1 734 13 view .LVU1042
 735:ioLIB/dhcp.c  ****             DHCP_allocated_ip[3] = pDHCPMSG->yiaddr[3];
 2982              		.loc 1 735 13 view .LVU1043
 736:ioLIB/dhcp.c  **** 
 2983              		.loc 1 736 13 view .LVU1044
 733:ioLIB/dhcp.c  ****             DHCP_allocated_ip[1] = pDHCPMSG->yiaddr[1];
 2984              		.loc 1 733 44 is_stmt 0 view .LVU1045
 2985 0076 584A     		ldr	r2, .L188+12
 733:ioLIB/dhcp.c  ****             DHCP_allocated_ip[1] = pDHCPMSG->yiaddr[1];
 2986              		.loc 1 733 34 view .LVU1046
 2987 0078 564B     		ldr	r3, .L188+8
 733:ioLIB/dhcp.c  ****             DHCP_allocated_ip[1] = pDHCPMSG->yiaddr[1];
 2988              		.loc 1 733 52 view .LVU1047
 2989 007a 1268     		ldr	r2, [r2]
 733:ioLIB/dhcp.c  ****             DHCP_allocated_ip[1] = pDHCPMSG->yiaddr[1];
 2990              		.loc 1 733 34 view .LVU1048
 2991 007c 1269     		ldr	r2, [r2, #16]
 2992 007e 1A60     		str	r2, [r3]
 738:ioLIB/dhcp.c  **** 				dhcp_state = STATE_DHCP_REQUEST;
 2993              		.loc 1 738 5 is_stmt 1 view .LVU1049
 2994 0080 FFF7FEFF 		bl	send_DHCP_REQUEST
 2995              	.LVL167:
 739:ioLIB/dhcp.c  **** 			} else ret = check_DHCP_timeout();
 2996              		.loc 1 739 5 view .LVU1050
 739:ioLIB/dhcp.c  **** 			} else ret = check_DHCP_timeout();
 2997              		.loc 1 739 16 is_stmt 0 view .LVU1051
 2998 0084 2570     		strb	r5, [r4]
 716:ioLIB/dhcp.c  **** 	type = parseDHCPMSG();
 2999              		.loc 1 716 6 view .LVU1052
 3000 0086 0120     		movs	r0, #1
 3001 0088 DFE7     		b	.L155
 3002              	.L160:
 744:ioLIB/dhcp.c  **** 
 3003              		.loc 1 744 4 is_stmt 1 view .LVU1053
 744:ioLIB/dhcp.c  **** 
 3004              		.loc 1 744 7 is_stmt 0 view .LVU1054
 3005 008a 052D     		cmp	r5, #5
 3006 008c 4ED0     		beq	.L185
 761:ioLIB/dhcp.c  **** 
 3007              		.loc 1 761 11 is_stmt 1 view .LVU1055
 761:ioLIB/dhcp.c  **** 
 3008              		.loc 1 761 14 is_stmt 0 view .LVU1056
 3009 008e 062D     		cmp	r5, #6
 3010 0090 E1D1     		bne	.L163
 767:ioLIB/dhcp.c  **** 
 3011              		.loc 1 767 5 is_stmt 1 view .LVU1057
 3012              	.LBB154:
 3013              	.LBI154:
 965:ioLIB/dhcp.c  **** {
 3014              		.loc 1 965 6 view .LVU1058
 3015              	.LBB155:
 967:ioLIB/dhcp.c  **** 	dhcp_tick_next = DHCP_WAIT_TIME;
 3016              		.loc 1 967 2 view .LVU1059
 967:ioLIB/dhcp.c  **** 	dhcp_tick_next = DHCP_WAIT_TIME;
 3017              		.loc 1 967 15 is_stmt 0 view .LVU1060
ARM GAS  C:\Users\clay0\AppData\Local\Temp\ccgGhwt3.s 			page 88


 3018 0092 5248     		ldr	r0, .L188+16
 968:ioLIB/dhcp.c  **** 	dhcp_retry_count = 0;
 3019              		.loc 1 968 17 view .LVU1061
 3020 0094 5249     		ldr	r1, .L188+20
 969:ioLIB/dhcp.c  **** }
 3021              		.loc 1 969 19 view .LVU1062
 3022 0096 534A     		ldr	r2, .L188+24
 967:ioLIB/dhcp.c  **** 	dhcp_tick_next = DHCP_WAIT_TIME;
 3023              		.loc 1 967 15 view .LVU1063
 3024 0098 0023     		movs	r3, #0
 3025 009a 0360     		str	r3, [r0]
 968:ioLIB/dhcp.c  **** 	dhcp_retry_count = 0;
 3026              		.loc 1 968 2 is_stmt 1 view .LVU1064
 968:ioLIB/dhcp.c  **** 	dhcp_retry_count = 0;
 3027              		.loc 1 968 17 is_stmt 0 view .LVU1065
 3028 009c 0A20     		movs	r0, #10
 3029 009e 0860     		str	r0, [r1]
 969:ioLIB/dhcp.c  **** }
 3030              		.loc 1 969 2 is_stmt 1 view .LVU1066
 3031              	.LBE155:
 3032              	.LBE154:
 769:ioLIB/dhcp.c  **** 			} else ret = check_DHCP_timeout();
 3033              		.loc 1 769 16 is_stmt 0 view .LVU1067
 3034 00a0 0120     		movs	r0, #1
 3035              	.LBB157:
 3036              	.LBB156:
 969:ioLIB/dhcp.c  **** }
 3037              		.loc 1 969 19 view .LVU1068
 3038 00a2 1370     		strb	r3, [r2]
 3039              	.LBE156:
 3040              	.LBE157:
 769:ioLIB/dhcp.c  **** 			} else ret = check_DHCP_timeout();
 3041              		.loc 1 769 5 is_stmt 1 view .LVU1069
 769:ioLIB/dhcp.c  **** 			} else ret = check_DHCP_timeout();
 3042              		.loc 1 769 16 is_stmt 0 view .LVU1070
 3043 00a4 2070     		strb	r0, [r4]
 3044 00a6 D0E7     		b	.L155
 3045              	.L159:
 774:ioLIB/dhcp.c  **** 			if ((dhcp_lease_time != INFINITE_LEASETIME) && ((dhcp_lease_time/2) < dhcp_tick_1s)) {
 3046              		.loc 1 774 6 is_stmt 1 view .LVU1071
 3047              	.LVL168:
 775:ioLIB/dhcp.c  **** 				
 3048              		.loc 1 775 4 view .LVU1072
 775:ioLIB/dhcp.c  **** 				
 3049              		.loc 1 775 25 is_stmt 0 view .LVU1073
 3050 00a8 4F4B     		ldr	r3, .L188+28
 3051 00aa 1B68     		ldr	r3, [r3]
 775:ioLIB/dhcp.c  **** 				
 3052              		.loc 1 775 7 view .LVU1074
 3053 00ac 5A1C     		adds	r2, r3, #1
 3054 00ae 04D0     		beq	.L174
 775:ioLIB/dhcp.c  **** 				
 3055              		.loc 1 775 72 discriminator 1 view .LVU1075
 3056 00b0 4A4D     		ldr	r5, .L188+16
 3057              	.LVL169:
 775:ioLIB/dhcp.c  **** 				
 3058              		.loc 1 775 72 discriminator 1 view .LVU1076
ARM GAS  C:\Users\clay0\AppData\Local\Temp\ccgGhwt3.s 			page 89


 3059 00b2 2A68     		ldr	r2, [r5]
 775:ioLIB/dhcp.c  **** 				
 3060              		.loc 1 775 48 discriminator 1 view .LVU1077
 3061 00b4 B2EB530F 		cmp	r2, r3, lsr #1
 3062 00b8 18D8     		bhi	.L186
 3063              	.L174:
 774:ioLIB/dhcp.c  **** 			if ((dhcp_lease_time != INFINITE_LEASETIME) && ((dhcp_lease_time/2) < dhcp_tick_1s)) {
 3064              		.loc 1 774 10 view .LVU1078
 3065 00ba 0420     		movs	r0, #4
 3066              	.LVL170:
 774:ioLIB/dhcp.c  **** 			if ((dhcp_lease_time != INFINITE_LEASETIME) && ((dhcp_lease_time/2) < dhcp_tick_1s)) {
 3067              		.loc 1 774 10 view .LVU1079
 3068 00bc C5E7     		b	.L155
 3069              	.LVL171:
 3070              	.L183:
 800:ioLIB/dhcp.c  **** 				if (OLD_allocated_ip[0] != DHCP_allocated_ip[0] || 
 3071              		.loc 1 800 5 is_stmt 1 view .LVU1080
 801:ioLIB/dhcp.c  **** 				    OLD_allocated_ip[1] != DHCP_allocated_ip[1] ||
 3072              		.loc 1 801 25 is_stmt 0 view .LVU1081
 3073 00be 4B4A     		ldr	r2, .L188+32
 801:ioLIB/dhcp.c  **** 				    OLD_allocated_ip[1] != DHCP_allocated_ip[1] ||
 3074              		.loc 1 801 49 view .LVU1082
 3075 00c0 444B     		ldr	r3, .L188+8
 800:ioLIB/dhcp.c  **** 				if (OLD_allocated_ip[0] != DHCP_allocated_ip[0] || 
 3076              		.loc 1 800 22 view .LVU1083
 3077 00c2 484D     		ldr	r5, .L188+24
 3078              	.LVL172:
 801:ioLIB/dhcp.c  **** 				    OLD_allocated_ip[1] != DHCP_allocated_ip[1] ||
 3079              		.loc 1 801 8 view .LVU1084
 3080 00c4 1078     		ldrb	r0, [r2]	@ zero_extendqisi2
 3081              	.LVL173:
 800:ioLIB/dhcp.c  **** 				if (OLD_allocated_ip[0] != DHCP_allocated_ip[0] || 
 3082              		.loc 1 800 22 view .LVU1085
 3083 00c6 0021     		movs	r1, #0
 3084 00c8 2970     		strb	r1, [r5]
 801:ioLIB/dhcp.c  **** 				    OLD_allocated_ip[1] != DHCP_allocated_ip[1] ||
 3085              		.loc 1 801 5 is_stmt 1 view .LVU1086
 801:ioLIB/dhcp.c  **** 				    OLD_allocated_ip[1] != DHCP_allocated_ip[1] ||
 3086              		.loc 1 801 8 is_stmt 0 view .LVU1087
 3087 00ca 1978     		ldrb	r1, [r3]	@ zero_extendqisi2
 3088 00cc 8842     		cmp	r0, r1
 3089 00ce 5DD0     		beq	.L187
 3090              	.L169:
 806:ioLIB/dhcp.c  **** 					dhcp_ip_update();
 3091              		.loc 1 806 6 is_stmt 1 view .LVU1088
 3092              	.LVL174:
 807:ioLIB/dhcp.c  ****                #ifdef _DHCP_DEBUG_
 3093              		.loc 1 807 6 view .LVU1089
 3094 00d0 474B     		ldr	r3, .L188+36
 3095 00d2 1B68     		ldr	r3, [r3]
 3096 00d4 9847     		blx	r3
 3097              	.LVL175:
 806:ioLIB/dhcp.c  **** 					dhcp_ip_update();
 3098              		.loc 1 806 10 is_stmt 0 view .LVU1090
 3099 00d6 0320     		movs	r0, #3
 3100              	.LVL176:
 3101              	.L170:
ARM GAS  C:\Users\clay0\AppData\Local\Temp\ccgGhwt3.s 			page 90


 816:ioLIB/dhcp.c  **** 				dhcp_state = STATE_DHCP_LEASED;
 3102              		.loc 1 816 5 is_stmt 1 view .LVU1091
 3103              	.LBB158:
 3104              	.LBI158:
 965:ioLIB/dhcp.c  **** {
 3105              		.loc 1 965 6 view .LVU1092
 3106              	.LBB159:
 967:ioLIB/dhcp.c  **** 	dhcp_tick_next = DHCP_WAIT_TIME;
 3107              		.loc 1 967 2 view .LVU1093
 967:ioLIB/dhcp.c  **** 	dhcp_tick_next = DHCP_WAIT_TIME;
 3108              		.loc 1 967 15 is_stmt 0 view .LVU1094
 3109 00d8 4049     		ldr	r1, .L188+16
 3110 00da 0023     		movs	r3, #0
 3111 00dc 0B60     		str	r3, [r1]
 968:ioLIB/dhcp.c  **** 	dhcp_retry_count = 0;
 3112              		.loc 1 968 2 is_stmt 1 view .LVU1095
 969:ioLIB/dhcp.c  **** }
 3113              		.loc 1 969 19 is_stmt 0 view .LVU1096
 3114 00de 2B70     		strb	r3, [r5]
 968:ioLIB/dhcp.c  **** 	dhcp_retry_count = 0;
 3115              		.loc 1 968 17 view .LVU1097
 3116 00e0 3F4B     		ldr	r3, .L188+20
 3117              	.LBE159:
 3118              	.LBE158:
 817:ioLIB/dhcp.c  **** 			} else if (type == DHCP_NAK) {
 3119              		.loc 1 817 16 view .LVU1098
 3120 00e2 0322     		movs	r2, #3
 3121              	.LBB161:
 3122              	.LBB160:
 968:ioLIB/dhcp.c  **** 	dhcp_retry_count = 0;
 3123              		.loc 1 968 17 view .LVU1099
 3124 00e4 0A21     		movs	r1, #10
 3125 00e6 1960     		str	r1, [r3]
 969:ioLIB/dhcp.c  **** }
 3126              		.loc 1 969 2 is_stmt 1 view .LVU1100
 3127              	.LBE160:
 3128              	.LBE161:
 817:ioLIB/dhcp.c  **** 			} else if (type == DHCP_NAK) {
 3129              		.loc 1 817 5 view .LVU1101
 817:ioLIB/dhcp.c  **** 			} else if (type == DHCP_NAK) {
 3130              		.loc 1 817 16 is_stmt 0 view .LVU1102
 3131 00e8 2270     		strb	r2, [r4]
 3132 00ea AEE7     		b	.L155
 3133              	.LVL177:
 3134              	.L186:
 781:ioLIB/dhcp.c  **** 				OLD_allocated_ip[0] = DHCP_allocated_ip[0];
 3135              		.loc 1 781 5 is_stmt 1 view .LVU1103
 782:ioLIB/dhcp.c  **** 				OLD_allocated_ip[1] = DHCP_allocated_ip[1];
 3136              		.loc 1 782 5 view .LVU1104
 783:ioLIB/dhcp.c  **** 				OLD_allocated_ip[2] = DHCP_allocated_ip[2];
 3137              		.loc 1 783 5 view .LVU1105
 784:ioLIB/dhcp.c  **** 				OLD_allocated_ip[3] = DHCP_allocated_ip[3];
 3138              		.loc 1 784 5 view .LVU1106
 785:ioLIB/dhcp.c  **** 				
 3139              		.loc 1 785 5 view .LVU1107
 787:ioLIB/dhcp.c  **** 
 3140              		.loc 1 787 13 is_stmt 0 view .LVU1108
ARM GAS  C:\Users\clay0\AppData\Local\Temp\ccgGhwt3.s 			page 91


 3141 00ec 414A     		ldr	r2, .L188+40
 782:ioLIB/dhcp.c  **** 				OLD_allocated_ip[1] = DHCP_allocated_ip[1];
 3142              		.loc 1 782 44 view .LVU1109
 3143 00ee 3948     		ldr	r0, .L188+8
 787:ioLIB/dhcp.c  **** 
 3144              		.loc 1 787 13 view .LVU1110
 3145 00f0 1368     		ldr	r3, [r2]
 782:ioLIB/dhcp.c  **** 				OLD_allocated_ip[1] = DHCP_allocated_ip[1];
 3146              		.loc 1 782 25 view .LVU1111
 3147 00f2 3E49     		ldr	r1, .L188+32
 3148 00f4 0068     		ldr	r0, [r0]
 3149 00f6 0860     		str	r0, [r1]
 787:ioLIB/dhcp.c  **** 
 3150              		.loc 1 787 5 is_stmt 1 view .LVU1112
 787:ioLIB/dhcp.c  **** 
 3151              		.loc 1 787 13 is_stmt 0 view .LVU1113
 3152 00f8 0133     		adds	r3, r3, #1
 3153 00fa 1360     		str	r3, [r2]
 789:ioLIB/dhcp.c  **** 
 3154              		.loc 1 789 5 is_stmt 1 view .LVU1114
 3155 00fc FFF7FEFF 		bl	send_DHCP_REQUEST
 3156              	.LVL178:
 791:ioLIB/dhcp.c  **** 
 3157              		.loc 1 791 5 view .LVU1115
 3158              	.LBB162:
 3159              	.LBI162:
 965:ioLIB/dhcp.c  **** {
 3160              		.loc 1 965 6 view .LVU1116
 3161              	.LBB163:
 967:ioLIB/dhcp.c  **** 	dhcp_tick_next = DHCP_WAIT_TIME;
 3162              		.loc 1 967 2 view .LVU1117
 968:ioLIB/dhcp.c  **** 	dhcp_retry_count = 0;
 3163              		.loc 1 968 17 is_stmt 0 view .LVU1118
 3164 0100 3749     		ldr	r1, .L188+20
 969:ioLIB/dhcp.c  **** }
 3165              		.loc 1 969 19 view .LVU1119
 3166 0102 384A     		ldr	r2, .L188+24
 968:ioLIB/dhcp.c  **** 	dhcp_retry_count = 0;
 3167              		.loc 1 968 17 view .LVU1120
 3168 0104 0A20     		movs	r0, #10
 967:ioLIB/dhcp.c  **** 	dhcp_tick_next = DHCP_WAIT_TIME;
 3169              		.loc 1 967 15 view .LVU1121
 3170 0106 0023     		movs	r3, #0
 968:ioLIB/dhcp.c  **** 	dhcp_retry_count = 0;
 3171              		.loc 1 968 17 view .LVU1122
 3172 0108 0860     		str	r0, [r1]
 3173              	.LBE163:
 3174              	.LBE162:
 793:ioLIB/dhcp.c  **** 			}
 3175              		.loc 1 793 16 view .LVU1123
 3176 010a 0420     		movs	r0, #4
 3177              	.LBB165:
 3178              	.LBB164:
 967:ioLIB/dhcp.c  **** 	dhcp_tick_next = DHCP_WAIT_TIME;
 3179              		.loc 1 967 15 view .LVU1124
 3180 010c 2B60     		str	r3, [r5]
 968:ioLIB/dhcp.c  **** 	dhcp_retry_count = 0;
ARM GAS  C:\Users\clay0\AppData\Local\Temp\ccgGhwt3.s 			page 92


 3181              		.loc 1 968 2 is_stmt 1 view .LVU1125
 969:ioLIB/dhcp.c  **** }
 3182              		.loc 1 969 2 view .LVU1126
 969:ioLIB/dhcp.c  **** }
 3183              		.loc 1 969 19 is_stmt 0 view .LVU1127
 3184 010e 1370     		strb	r3, [r2]
 3185              	.LBE164:
 3186              	.LBE165:
 793:ioLIB/dhcp.c  **** 			}
 3187              		.loc 1 793 5 is_stmt 1 view .LVU1128
 793:ioLIB/dhcp.c  **** 			}
 3188              		.loc 1 793 16 is_stmt 0 view .LVU1129
 3189 0110 2070     		strb	r0, [r4]
 3190 0112 9AE7     		b	.L155
 3191              	.LVL179:
 3192              	.L184:
 824:ioLIB/dhcp.c  **** 
 3193              		.loc 1 824 5 is_stmt 1 view .LVU1130
 3194              	.LBB166:
 3195              	.LBI166:
 965:ioLIB/dhcp.c  **** {
 3196              		.loc 1 965 6 view .LVU1131
 3197              	.LBB167:
 967:ioLIB/dhcp.c  **** 	dhcp_tick_next = DHCP_WAIT_TIME;
 3198              		.loc 1 967 2 view .LVU1132
 967:ioLIB/dhcp.c  **** 	dhcp_tick_next = DHCP_WAIT_TIME;
 3199              		.loc 1 967 15 is_stmt 0 view .LVU1133
 3200 0114 3148     		ldr	r0, .L188+16
 968:ioLIB/dhcp.c  **** 	dhcp_retry_count = 0;
 3201              		.loc 1 968 17 view .LVU1134
 3202 0116 324A     		ldr	r2, .L188+20
 969:ioLIB/dhcp.c  **** }
 3203              		.loc 1 969 19 view .LVU1135
 3204 0118 3249     		ldr	r1, .L188+24
 967:ioLIB/dhcp.c  **** 	dhcp_tick_next = DHCP_WAIT_TIME;
 3205              		.loc 1 967 15 view .LVU1136
 3206 011a 0023     		movs	r3, #0
 3207 011c 0360     		str	r3, [r0]
 968:ioLIB/dhcp.c  **** 	dhcp_retry_count = 0;
 3208              		.loc 1 968 2 is_stmt 1 view .LVU1137
 968:ioLIB/dhcp.c  **** 	dhcp_retry_count = 0;
 3209              		.loc 1 968 17 is_stmt 0 view .LVU1138
 3210 011e 0A20     		movs	r0, #10
 3211 0120 1060     		str	r0, [r2]
 969:ioLIB/dhcp.c  **** }
 3212              		.loc 1 969 2 is_stmt 1 view .LVU1139
 3213              	.LBE167:
 3214              	.LBE166:
 826:ioLIB/dhcp.c  **** 			} else ret = check_DHCP_timeout();
 3215              		.loc 1 826 16 is_stmt 0 view .LVU1140
 3216 0122 0122     		movs	r2, #1
 3217              	.LBB169:
 3218              	.LBB168:
 969:ioLIB/dhcp.c  **** }
 3219              		.loc 1 969 19 view .LVU1141
 3220 0124 0B70     		strb	r3, [r1]
 3221              	.LBE168:
ARM GAS  C:\Users\clay0\AppData\Local\Temp\ccgGhwt3.s 			page 93


 3222              	.LBE169:
 826:ioLIB/dhcp.c  **** 			} else ret = check_DHCP_timeout();
 3223              		.loc 1 826 5 is_stmt 1 view .LVU1142
 826:ioLIB/dhcp.c  **** 			} else ret = check_DHCP_timeout();
 3224              		.loc 1 826 16 is_stmt 0 view .LVU1143
 3225 0126 2270     		strb	r2, [r4]
 798:ioLIB/dhcp.c  **** 			if (type == DHCP_ACK) {
 3226              		.loc 1 798 10 view .LVU1144
 3227 0128 0420     		movs	r0, #4
 3228 012a 8EE7     		b	.L155
 3229              	.LVL180:
 3230              	.L185:
 749:ioLIB/dhcp.c  **** 					// Network info assignment from DHCP
 3231              		.loc 1 749 5 is_stmt 1 view .LVU1145
 3232              	.LBB170:
 3233              	.LBI170:
 895:ioLIB/dhcp.c  **** {
 3234              		.loc 1 895 8 view .LVU1146
 3235              	.LBB171:
 897:ioLIB/dhcp.c  **** 	int32_t ret;
 3236              		.loc 1 897 2 view .LVU1147
 898:ioLIB/dhcp.c  **** 
 3237              		.loc 1 898 2 view .LVU1148
 901:ioLIB/dhcp.c  **** 	setRCR(0x03);
 3238              		.loc 1 901 2 view .LVU1149
 901:ioLIB/dhcp.c  **** 	setRCR(0x03);
