ARM GAS  C:\Users\clay0\AppData\Local\Temp\ccq2B2ZX.s 			page 1


   1              		.cpu cortex-m4
   2              		.arch armv7e-m
   3              		.fpu fpv4-sp-d16
   4              		.eabi_attribute 27, 1
   5              		.eabi_attribute 28, 1
   6              		.eabi_attribute 20, 1
   7              		.eabi_attribute 21, 1
   8              		.eabi_attribute 23, 3
   9              		.eabi_attribute 24, 1
  10              		.eabi_attribute 25, 1
  11              		.eabi_attribute 26, 1
  12              		.eabi_attribute 30, 6
  13              		.eabi_attribute 34, 1
  14              		.eabi_attribute 18, 4
  15              		.file	"dhcp.c"
  16              		.text
  17              	.Ltext0:
  18              		.cfi_sections	.debug_frame
  19              		.global	DHCP_SOCKET
  20              		.section	.bss.DHCP_SOCKET,"aw",%nobits
  23              	DHCP_SOCKET:
  24 0000 00       		.space	1
  25              		.global	DHCP_SIP
  26              		.section	.bss.DHCP_SIP,"aw",%nobits
  27              		.align	2
  30              	DHCP_SIP:
  31 0000 00000000 		.space	4
  32              		.global	DHCP_REAL_SIP
  33              		.section	.bss.DHCP_REAL_SIP,"aw",%nobits
  34              		.align	2
  37              	DHCP_REAL_SIP:
  38 0000 00000000 		.space	4
  39              		.global	OLD_allocated_ip
  40              		.section	.bss.OLD_allocated_ip,"aw",%nobits
  41              		.align	2
  44              	OLD_allocated_ip:
  45 0000 00000000 		.space	4
  46              		.global	DHCP_allocated_ip
  47              		.section	.bss.DHCP_allocated_ip,"aw",%nobits
  48              		.align	2
  51              	DHCP_allocated_ip:
  52 0000 00000000 		.space	4
  53              		.global	DHCP_allocated_gw
  54              		.section	.bss.DHCP_allocated_gw,"aw",%nobits
  55              		.align	2
  58              	DHCP_allocated_gw:
  59 0000 00000000 		.space	4
  60              		.global	DHCP_allocated_sn
  61              		.section	.bss.DHCP_allocated_sn,"aw",%nobits
  62              		.align	2
  65              	DHCP_allocated_sn:
  66 0000 00000000 		.space	4
  67              		.global	DHCP_allocated_dns
  68              		.section	.bss.DHCP_allocated_dns,"aw",%nobits
  69              		.align	2
  72              	DHCP_allocated_dns:
  73 0000 00000000 		.space	4
ARM GAS  C:\Users\clay0\AppData\Local\Temp\ccq2B2ZX.s 			page 2


  74              		.global	dhcp_state
  75              		.section	.bss.dhcp_state,"aw",%nobits
  78              	dhcp_state:
  79 0000 00       		.space	1
  80              		.global	dhcp_retry_count
  81              		.section	.bss.dhcp_retry_count,"aw",%nobits
  84              	dhcp_retry_count:
  85 0000 00       		.space	1
  86              		.global	dhcp_lease_time
  87              		.section	.data.dhcp_lease_time,"aw"
  88              		.align	2
  91              	dhcp_lease_time:
  92 0000 FFFFFFFF 		.word	-1
  93              		.global	dhcp_tick_1s
  94              		.section	.bss.dhcp_tick_1s,"aw",%nobits
  95              		.align	2
  98              	dhcp_tick_1s:
  99 0000 00000000 		.space	4
 100              		.global	dhcp_tick_next
 101              		.section	.data.dhcp_tick_next,"aw"
 102              		.align	2
 105              	dhcp_tick_next:
 106 0000 0A000000 		.word	10
 107              		.global	DHCP_XID
 108              		.section	.bss.DHCP_XID,"aw",%nobits
 109              		.align	2
 112              	DHCP_XID:
 113 0000 00000000 		.space	4
 114              		.global	pDHCPMSG
 115              		.section	.bss.pDHCPMSG,"aw",%nobits
 116              		.align	2
 119              	pDHCPMSG:
 120 0000 00000000 		.space	4
 121              		.global	HOST_NAME
 122              		.section	.data.HOST_NAME,"aw"
 123              		.align	2
 126              	HOST_NAME:
 127 0000 57495A6E 		.ascii	"WIZnet\000\000"
 127      65740000 
 128              		.global	DHCP_CHADDR
 129              		.section	.bss.DHCP_CHADDR,"aw",%nobits
 130              		.align	2
 133              	DHCP_CHADDR:
 134 0000 00000000 		.space	6
 134      0000
 135              		.global	dhcp_ip_assign
 136              		.section	.data.dhcp_ip_assign,"aw"
 137              		.align	2
 140              	dhcp_ip_assign:
 141 0000 00000000 		.word	default_ip_assign
 142              		.global	dhcp_ip_update
 143              		.section	.data.dhcp_ip_update,"aw"
 144              		.align	2
 147              	dhcp_ip_update:
 148 0000 00000000 		.word	default_ip_update
 149              		.global	dhcp_ip_conflict
 150              		.section	.data.dhcp_ip_conflict,"aw"
ARM GAS  C:\Users\clay0\AppData\Local\Temp\ccq2B2ZX.s 			page 3


 151              		.align	2
 154              	dhcp_ip_conflict:
 155 0000 00000000 		.word	default_ip_conflict
 156              		.section	.text.default_ip_assign,"ax",%progbits
 157              		.align	1
 158              		.global	default_ip_assign
 159              		.syntax unified
 160              		.thumb
 161              		.thumb_func
 163              	default_ip_assign:
 164              	.LFB0:
 165              		.file 1 "ioLIB/dhcp.c"
   1:ioLIB/dhcp.c  **** //*****************************************************************************
   2:ioLIB/dhcp.c  **** //
   3:ioLIB/dhcp.c  **** //! \file dhcp.c
   4:ioLIB/dhcp.c  **** //! \brief DHCP APIs implement file.
   5:ioLIB/dhcp.c  **** //! \details Processing DHCP protocol as DISCOVER, OFFER, REQUEST, ACK, NACK and DECLINE.
   6:ioLIB/dhcp.c  **** //! \version 1.1.1
   7:ioLIB/dhcp.c  **** //! \date 2019/10/08
   8:ioLIB/dhcp.c  **** //! \par  Revision history
   9:ioLIB/dhcp.c  **** //!       <2019/10/08> compare DHCP server ip address
  10:ioLIB/dhcp.c  **** //!       <2013/11/18> 1st Release
  11:ioLIB/dhcp.c  **** //!       <2012/12/20> V1.1.0
  12:ioLIB/dhcp.c  **** //!         1. Optimize code
  13:ioLIB/dhcp.c  **** //!         2. Add reg_dhcp_cbfunc()
  14:ioLIB/dhcp.c  **** //!         3. Add DHCP_stop() 
  15:ioLIB/dhcp.c  **** //!         4. Integrate check_DHCP_state() & DHCP_run() to DHCP_run()
  16:ioLIB/dhcp.c  **** //!         5. Don't care system endian
  17:ioLIB/dhcp.c  **** //!         6. Add comments
  18:ioLIB/dhcp.c  **** //!       <2012/12/26> V1.1.1
  19:ioLIB/dhcp.c  **** //!         1. Modify variable declaration: dhcp_tick_1s is declared volatile for code optimization
  20:ioLIB/dhcp.c  **** //! \author Eric Jung & MidnightCow
  21:ioLIB/dhcp.c  **** //! \copyright
  22:ioLIB/dhcp.c  **** //!
  23:ioLIB/dhcp.c  **** //! Copyright (c)  2013, WIZnet Co., LTD.
  24:ioLIB/dhcp.c  **** //! All rights reserved.
  25:ioLIB/dhcp.c  **** //! 
  26:ioLIB/dhcp.c  **** //! Redistribution and use in source and binary forms, with or without 
  27:ioLIB/dhcp.c  **** //! modification, are permitted provided that the following conditions 
  28:ioLIB/dhcp.c  **** //! are met: 
  29:ioLIB/dhcp.c  **** //! 
  30:ioLIB/dhcp.c  **** //!     * Redistributions of source code must retain the above copyright 
  31:ioLIB/dhcp.c  **** //! notice, this list of conditions and the following disclaimer. 
  32:ioLIB/dhcp.c  **** //!     * Redistributions in binary form must reproduce the above copyright
  33:ioLIB/dhcp.c  **** //! notice, this list of conditions and the following disclaimer in the
  34:ioLIB/dhcp.c  **** //! documentation and/or other materials provided with the distribution. 
  35:ioLIB/dhcp.c  **** //!     * Neither the name of the <ORGANIZATION> nor the names of its 
  36:ioLIB/dhcp.c  **** //! contributors may be used to endorse or promote products derived 
  37:ioLIB/dhcp.c  **** //! from this software without specific prior written permission. 
  38:ioLIB/dhcp.c  **** //! 
  39:ioLIB/dhcp.c  **** //! THIS SOFTWARE IS PROVIDED BY THE COPYRIGHT HOLDERS AND CONTRIBUTORS "AS IS"
  40:ioLIB/dhcp.c  **** //! AND ANY EXPRESS OR IMPLIED WARRANTIES, INCLUDING, BUT NOT LIMITED TO, THE 
  41:ioLIB/dhcp.c  **** //! IMPLIED WARRANTIES OF MERCHANTABILITY AND FITNESS FOR A PARTICULAR PURPOSE
  42:ioLIB/dhcp.c  **** //! ARE DISCLAIMED. IN NO EVENT SHALL THE COPYRIGHT OWNER OR CONTRIBUTORS BE 
  43:ioLIB/dhcp.c  **** //! LIABLE FOR ANY DIRECT, INDIRECT, INCIDENTAL, SPECIAL, EXEMPLARY, OR 
  44:ioLIB/dhcp.c  **** //! CONSEQUENTIAL DAMAGES (INCLUDING, BUT NOT LIMITED TO, PROCUREMENT OF 
  45:ioLIB/dhcp.c  **** //! SUBSTITUTE GOODS OR SERVICES; LOSS OF USE, DATA, OR PROFITS; OR BUSINESS
ARM GAS  C:\Users\clay0\AppData\Local\Temp\ccq2B2ZX.s 			page 4


  46:ioLIB/dhcp.c  **** //! INTERRUPTION) HOWEVER CAUSED AND ON ANY THEORY OF LIABILITY, WHETHER IN 
  47:ioLIB/dhcp.c  **** //! CONTRACT, STRICT LIABILITY, OR TORT (INCLUDING NEGLIGENCE OR OTHERWISE) 
  48:ioLIB/dhcp.c  **** //! ARISING IN ANY WAY OUT OF THE USE OF THIS SOFTWARE, EVEN IF ADVISED OF 
  49:ioLIB/dhcp.c  **** //! THE POSSIBILITY OF SUCH DAMAGE.
  50:ioLIB/dhcp.c  **** //
  51:ioLIB/dhcp.c  **** //*****************************************************************************
  52:ioLIB/dhcp.c  **** 
  53:ioLIB/dhcp.c  **** #include "socket.h"
  54:ioLIB/dhcp.c  **** #include "dhcp.h"
  55:ioLIB/dhcp.c  **** 
  56:ioLIB/dhcp.c  **** /* If you want to display debug & processing message, Define _DHCP_DEBUG_ in dhcp.h */
  57:ioLIB/dhcp.c  **** 
  58:ioLIB/dhcp.c  **** #ifdef _DHCP_DEBUG_
  59:ioLIB/dhcp.c  ****    #include <stdio.h>
  60:ioLIB/dhcp.c  **** #endif   
  61:ioLIB/dhcp.c  **** 
  62:ioLIB/dhcp.c  **** /* DHCP state machine. */
  63:ioLIB/dhcp.c  **** #define STATE_DHCP_INIT          0        ///< Initialize
  64:ioLIB/dhcp.c  **** #define STATE_DHCP_DISCOVER      1        ///< send DISCOVER and wait OFFER
  65:ioLIB/dhcp.c  **** #define STATE_DHCP_REQUEST       2        ///< send REQEUST and wait ACK or NACK
  66:ioLIB/dhcp.c  **** #define STATE_DHCP_LEASED        3        ///< ReceiveD ACK and IP leased
  67:ioLIB/dhcp.c  **** #define STATE_DHCP_REREQUEST     4        ///< send REQUEST for maintaining leased IP
  68:ioLIB/dhcp.c  **** #define STATE_DHCP_RELEASE       5        ///< No use
  69:ioLIB/dhcp.c  **** #define STATE_DHCP_STOP          6        ///< Stop processing DHCP
  70:ioLIB/dhcp.c  **** 
  71:ioLIB/dhcp.c  **** #define DHCP_FLAGSBROADCAST      0x8000   ///< The broadcast value of flags in @ref RIP_MSG 
  72:ioLIB/dhcp.c  **** #define DHCP_FLAGSUNICAST        0x0000   ///< The unicast   value of flags in @ref RIP_MSG
  73:ioLIB/dhcp.c  **** 
  74:ioLIB/dhcp.c  **** /* DHCP message OP code */
  75:ioLIB/dhcp.c  **** #define DHCP_BOOTREQUEST         1        ///< Request Message used in op of @ref RIP_MSG
  76:ioLIB/dhcp.c  **** #define DHCP_BOOTREPLY           2        ///< Reply Message used i op of @ref RIP_MSG
  77:ioLIB/dhcp.c  **** 
  78:ioLIB/dhcp.c  **** /* DHCP message type */
  79:ioLIB/dhcp.c  **** #define DHCP_DISCOVER            1        ///< DISCOVER message in OPT of @ref RIP_MSG
  80:ioLIB/dhcp.c  **** #define DHCP_OFFER               2        ///< OFFER message in OPT of @ref RIP_MSG
  81:ioLIB/dhcp.c  **** #define DHCP_REQUEST             3        ///< REQUEST message in OPT of @ref RIP_MSG
  82:ioLIB/dhcp.c  **** #define DHCP_DECLINE             4        ///< DECLINE message in OPT of @ref RIP_MSG
  83:ioLIB/dhcp.c  **** #define DHCP_ACK                 5        ///< ACK message in OPT of @ref RIP_MSG
  84:ioLIB/dhcp.c  **** #define DHCP_NAK                 6        ///< NACK message in OPT of @ref RIP_MSG
  85:ioLIB/dhcp.c  **** #define DHCP_RELEASE             7        ///< RELEASE message in OPT of @ref RIP_MSG. No use
  86:ioLIB/dhcp.c  **** #define DHCP_INFORM              8        ///< INFORM message in OPT of @ref RIP_MSG. No use
  87:ioLIB/dhcp.c  **** 
  88:ioLIB/dhcp.c  **** #define DHCP_HTYPE10MB           1        ///< Used in type of @ref RIP_MSG
  89:ioLIB/dhcp.c  **** #define DHCP_HTYPE100MB          2        ///< Used in type of @ref RIP_MSG
  90:ioLIB/dhcp.c  **** 
  91:ioLIB/dhcp.c  **** #define DHCP_HLENETHERNET        6        ///< Used in hlen of @ref RIP_MSG
  92:ioLIB/dhcp.c  **** #define DHCP_HOPS                0        ///< Used in hops of @ref RIP_MSG
  93:ioLIB/dhcp.c  **** #define DHCP_SECS                0        ///< Used in secs of @ref RIP_MSG
  94:ioLIB/dhcp.c  **** 
  95:ioLIB/dhcp.c  **** #define INFINITE_LEASETIME       0xffffffff	///< Infinite lease time
  96:ioLIB/dhcp.c  **** 
  97:ioLIB/dhcp.c  **** #define OPT_SIZE                 312               /// Max OPT size of @ref RIP_MSG
  98:ioLIB/dhcp.c  **** #define RIP_MSG_SIZE             (236+OPT_SIZE)    /// Max size of @ref RIP_MSG
  99:ioLIB/dhcp.c  **** 
 100:ioLIB/dhcp.c  **** /* 
 101:ioLIB/dhcp.c  ****  * @brief DHCP option and value (cf. RFC1533)
 102:ioLIB/dhcp.c  ****  */
ARM GAS  C:\Users\clay0\AppData\Local\Temp\ccq2B2ZX.s 			page 5


 103:ioLIB/dhcp.c  **** enum
 104:ioLIB/dhcp.c  **** {
 105:ioLIB/dhcp.c  ****    padOption               = 0,
 106:ioLIB/dhcp.c  ****    subnetMask              = 1,
 107:ioLIB/dhcp.c  ****    timerOffset             = 2,
 108:ioLIB/dhcp.c  ****    routersOnSubnet         = 3,
 109:ioLIB/dhcp.c  ****    timeServer              = 4,
 110:ioLIB/dhcp.c  ****    nameServer              = 5,
 111:ioLIB/dhcp.c  ****    dns                     = 6,
 112:ioLIB/dhcp.c  ****    logServer               = 7,
 113:ioLIB/dhcp.c  ****    cookieServer            = 8,
 114:ioLIB/dhcp.c  ****    lprServer               = 9,
 115:ioLIB/dhcp.c  ****    impressServer           = 10,
 116:ioLIB/dhcp.c  ****    resourceLocationServer	= 11,
 117:ioLIB/dhcp.c  ****    hostName                = 12,
 118:ioLIB/dhcp.c  ****    bootFileSize            = 13,
 119:ioLIB/dhcp.c  ****    meritDumpFile           = 14,
 120:ioLIB/dhcp.c  ****    domainName              = 15,
 121:ioLIB/dhcp.c  ****    swapServer              = 16,
 122:ioLIB/dhcp.c  ****    rootPath                = 17,
 123:ioLIB/dhcp.c  ****    extentionsPath          = 18,
 124:ioLIB/dhcp.c  ****    IPforwarding            = 19,
 125:ioLIB/dhcp.c  ****    nonLocalSourceRouting   = 20,
 126:ioLIB/dhcp.c  ****    policyFilter            = 21,
 127:ioLIB/dhcp.c  ****    maxDgramReasmSize       = 22,
 128:ioLIB/dhcp.c  ****    defaultIPTTL            = 23,
 129:ioLIB/dhcp.c  ****    pathMTUagingTimeout     = 24,
 130:ioLIB/dhcp.c  ****    pathMTUplateauTable     = 25,
 131:ioLIB/dhcp.c  ****    ifMTU                   = 26,
 132:ioLIB/dhcp.c  ****    allSubnetsLocal         = 27,
 133:ioLIB/dhcp.c  ****    broadcastAddr           = 28,
 134:ioLIB/dhcp.c  ****    performMaskDiscovery    = 29,
 135:ioLIB/dhcp.c  ****    maskSupplier            = 30,
 136:ioLIB/dhcp.c  ****    performRouterDiscovery  = 31,
 137:ioLIB/dhcp.c  ****    routerSolicitationAddr  = 32,
 138:ioLIB/dhcp.c  ****    staticRoute             = 33,
 139:ioLIB/dhcp.c  ****    trailerEncapsulation    = 34,
 140:ioLIB/dhcp.c  ****    arpCacheTimeout         = 35,
 141:ioLIB/dhcp.c  ****    ethernetEncapsulation   = 36,
 142:ioLIB/dhcp.c  ****    tcpDefaultTTL           = 37,
 143:ioLIB/dhcp.c  ****    tcpKeepaliveInterval    = 38,
 144:ioLIB/dhcp.c  ****    tcpKeepaliveGarbage     = 39,
 145:ioLIB/dhcp.c  ****    nisDomainName           = 40,
 146:ioLIB/dhcp.c  ****    nisServers              = 41,
 147:ioLIB/dhcp.c  ****    ntpServers              = 42,
 148:ioLIB/dhcp.c  ****    vendorSpecificInfo      = 43,
 149:ioLIB/dhcp.c  ****    netBIOSnameServer       = 44,
 150:ioLIB/dhcp.c  ****    netBIOSdgramDistServer	= 45,
 151:ioLIB/dhcp.c  ****    netBIOSnodeType         = 46,
 152:ioLIB/dhcp.c  ****    netBIOSscope            = 47,
 153:ioLIB/dhcp.c  ****    xFontServer             = 48,
 154:ioLIB/dhcp.c  ****    xDisplayManager         = 49,
 155:ioLIB/dhcp.c  ****    dhcpRequestedIPaddr     = 50,
 156:ioLIB/dhcp.c  ****    dhcpIPaddrLeaseTime     = 51,
 157:ioLIB/dhcp.c  ****    dhcpOptionOverload      = 52,
 158:ioLIB/dhcp.c  ****    dhcpMessageType         = 53,
 159:ioLIB/dhcp.c  ****    dhcpServerIdentifier    = 54,
ARM GAS  C:\Users\clay0\AppData\Local\Temp\ccq2B2ZX.s 			page 6


 160:ioLIB/dhcp.c  ****    dhcpParamRequest        = 55,
 161:ioLIB/dhcp.c  ****    dhcpMsg                 = 56,
 162:ioLIB/dhcp.c  ****    dhcpMaxMsgSize          = 57,
 163:ioLIB/dhcp.c  ****    dhcpT1value             = 58,
 164:ioLIB/dhcp.c  ****    dhcpT2value             = 59,
 165:ioLIB/dhcp.c  ****    dhcpClassIdentifier     = 60,
 166:ioLIB/dhcp.c  ****    dhcpClientIdentifier    = 61,
 167:ioLIB/dhcp.c  ****    endOption               = 255
 168:ioLIB/dhcp.c  **** };
 169:ioLIB/dhcp.c  **** 
 170:ioLIB/dhcp.c  **** /*
 171:ioLIB/dhcp.c  ****  * @brief DHCP message format
 172:ioLIB/dhcp.c  ****  */ 
 173:ioLIB/dhcp.c  **** typedef struct {
 174:ioLIB/dhcp.c  **** 	uint8_t  op;            ///< @ref DHCP_BOOTREQUEST or @ref DHCP_BOOTREPLY
 175:ioLIB/dhcp.c  **** 	uint8_t  htype;         ///< @ref DHCP_HTYPE10MB or @ref DHCP_HTYPE100MB
 176:ioLIB/dhcp.c  **** 	uint8_t  hlen;          ///< @ref DHCP_HLENETHERNET
 177:ioLIB/dhcp.c  **** 	uint8_t  hops;          ///< @ref DHCP_HOPS
 178:ioLIB/dhcp.c  **** 	uint32_t xid;           ///< @ref DHCP_XID  This increase one every DHCP transaction.
 179:ioLIB/dhcp.c  **** 	uint16_t secs;          ///< @ref DHCP_SECS
 180:ioLIB/dhcp.c  **** 	uint16_t flags;         ///< @ref DHCP_FLAGSBROADCAST or @ref DHCP_FLAGSUNICAST
 181:ioLIB/dhcp.c  **** 	uint8_t  ciaddr[4];     ///< @ref Request IP to DHCP sever
 182:ioLIB/dhcp.c  **** 	uint8_t  yiaddr[4];     ///< @ref Offered IP from DHCP server
 183:ioLIB/dhcp.c  **** 	uint8_t  siaddr[4];     ///< No use 
 184:ioLIB/dhcp.c  **** 	uint8_t  giaddr[4];     ///< No use
 185:ioLIB/dhcp.c  **** 	uint8_t  chaddr[16];    ///< DHCP client 6bytes MAC address. Others is filled to zero
 186:ioLIB/dhcp.c  **** 	uint8_t  sname[64];     ///< No use
 187:ioLIB/dhcp.c  **** 	uint8_t  file[128];     ///< No use
 188:ioLIB/dhcp.c  **** 	uint8_t  OPT[OPT_SIZE]; ///< Option
 189:ioLIB/dhcp.c  **** } RIP_MSG;
 190:ioLIB/dhcp.c  **** 
 191:ioLIB/dhcp.c  **** 
 192:ioLIB/dhcp.c  **** 
 193:ioLIB/dhcp.c  **** uint8_t DHCP_SOCKET;                      // Socket number for DHCP
 194:ioLIB/dhcp.c  **** 
 195:ioLIB/dhcp.c  **** uint8_t DHCP_SIP[4];                      // DHCP Server IP address
 196:ioLIB/dhcp.c  **** uint8_t DHCP_REAL_SIP[4];                 // For extract my DHCP server in a few DHCP server
 197:ioLIB/dhcp.c  **** 
 198:ioLIB/dhcp.c  **** // Network information from DHCP Server
 199:ioLIB/dhcp.c  **** uint8_t OLD_allocated_ip[4]   = {0, };    // Previous IP address
 200:ioLIB/dhcp.c  **** uint8_t DHCP_allocated_ip[4]  = {0, };    // IP address from DHCP
 201:ioLIB/dhcp.c  **** uint8_t DHCP_allocated_gw[4]  = {0, };    // Gateway address from DHCP
 202:ioLIB/dhcp.c  **** uint8_t DHCP_allocated_sn[4]  = {0, };    // Subnet mask from DHCP
 203:ioLIB/dhcp.c  **** uint8_t DHCP_allocated_dns[4] = {0, };    // DNS address from DHCP
 204:ioLIB/dhcp.c  **** 
 205:ioLIB/dhcp.c  **** 
 206:ioLIB/dhcp.c  **** int8_t   dhcp_state        = STATE_DHCP_INIT;   // DHCP state
 207:ioLIB/dhcp.c  **** int8_t   dhcp_retry_count  = 0;                 
 208:ioLIB/dhcp.c  **** 
 209:ioLIB/dhcp.c  **** uint32_t dhcp_lease_time   			= INFINITE_LEASETIME;
 210:ioLIB/dhcp.c  **** volatile uint32_t dhcp_tick_1s      = 0;                 // unit 1 second
 211:ioLIB/dhcp.c  **** uint32_t dhcp_tick_next    			= DHCP_WAIT_TIME ;
 212:ioLIB/dhcp.c  **** 
 213:ioLIB/dhcp.c  **** uint32_t DHCP_XID;      // Any number
 214:ioLIB/dhcp.c  **** 
 215:ioLIB/dhcp.c  **** RIP_MSG* pDHCPMSG;      // Buffer pointer for DHCP processing
 216:ioLIB/dhcp.c  **** 
ARM GAS  C:\Users\clay0\AppData\Local\Temp\ccq2B2ZX.s 			page 7


 217:ioLIB/dhcp.c  **** uint8_t HOST_NAME[] = DCHP_HOST_NAME;  
 218:ioLIB/dhcp.c  **** 
 219:ioLIB/dhcp.c  **** uint8_t DHCP_CHADDR[6]; // DHCP Client MAC address.
 220:ioLIB/dhcp.c  **** 
 221:ioLIB/dhcp.c  **** /* The default callback function */
 222:ioLIB/dhcp.c  **** void default_ip_assign(void);
 223:ioLIB/dhcp.c  **** void default_ip_update(void);
 224:ioLIB/dhcp.c  **** void default_ip_conflict(void);
 225:ioLIB/dhcp.c  **** 
 226:ioLIB/dhcp.c  **** /* Callback handler */
 227:ioLIB/dhcp.c  **** void (*dhcp_ip_assign)(void)   = default_ip_assign;     /* handler to be called when the IP address
 228:ioLIB/dhcp.c  **** void (*dhcp_ip_update)(void)   = default_ip_update;     /* handler to be called when the IP address
 229:ioLIB/dhcp.c  **** void (*dhcp_ip_conflict)(void) = default_ip_conflict;   /* handler to be called when the IP address
 230:ioLIB/dhcp.c  **** 
 231:ioLIB/dhcp.c  **** void reg_dhcp_cbfunc(void(*ip_assign)(void), void(*ip_update)(void), void(*ip_conflict)(void));
 232:ioLIB/dhcp.c  **** 
 233:ioLIB/dhcp.c  **** char NibbleToHex(uint8_t nibble);
 234:ioLIB/dhcp.c  ****     
 235:ioLIB/dhcp.c  **** /* send DISCOVER message to DHCP server */
 236:ioLIB/dhcp.c  **** void     send_DHCP_DISCOVER(void);
 237:ioLIB/dhcp.c  **** 
 238:ioLIB/dhcp.c  **** /* send REQEUST message to DHCP server */
 239:ioLIB/dhcp.c  **** void     send_DHCP_REQUEST(void);
 240:ioLIB/dhcp.c  **** 
 241:ioLIB/dhcp.c  **** /* send DECLINE message to DHCP server */
 242:ioLIB/dhcp.c  **** void     send_DHCP_DECLINE(void);
 243:ioLIB/dhcp.c  **** 
 244:ioLIB/dhcp.c  **** /* IP conflict check by sending ARP-request to leased IP and wait ARP-response. */
 245:ioLIB/dhcp.c  **** int8_t   check_DHCP_leasedIP(void);
 246:ioLIB/dhcp.c  **** 
 247:ioLIB/dhcp.c  **** /* check the timeout in DHCP process */
 248:ioLIB/dhcp.c  **** uint8_t  check_DHCP_timeout(void);
 249:ioLIB/dhcp.c  **** 
 250:ioLIB/dhcp.c  **** /* Initialize to timeout process.  */
 251:ioLIB/dhcp.c  **** void     reset_DHCP_timeout(void);
 252:ioLIB/dhcp.c  **** 
 253:ioLIB/dhcp.c  **** /* Parse message as OFFER and ACK and NACK from DHCP server.*/
 254:ioLIB/dhcp.c  **** int8_t   parseDHCPCMSG(void);
 255:ioLIB/dhcp.c  **** 
 256:ioLIB/dhcp.c  **** /* The default handler of ip assign first */
 257:ioLIB/dhcp.c  **** void default_ip_assign(void)
 258:ioLIB/dhcp.c  **** {
 166              		.loc 1 258 1
 167              		.cfi_startproc
 168              		@ args = 0, pretend = 0, frame = 0
 169              		@ frame_needed = 1, uses_anonymous_args = 0
 170 0000 80B5     		push	{r7, lr}
 171              	.LCFI0:
 172              		.cfi_def_cfa_offset 8
 173              		.cfi_offset 7, -8
 174              		.cfi_offset 14, -4
 175 0002 00AF     		add	r7, sp, #0
 176              	.LCFI1:
 177              		.cfi_def_cfa_register 7
 259:ioLIB/dhcp.c  ****    setSIPR(DHCP_allocated_ip);
 178              		.loc 1 259 4
 179 0004 0422     		movs	r2, #4
ARM GAS  C:\Users\clay0\AppData\Local\Temp\ccq2B2ZX.s 			page 8


 180 0006 0949     		ldr	r1, .L2
 181 0008 4FF47060 		mov	r0, #3840
 182 000c FFF7FEFF 		bl	WIZCHIP_WRITE_BUF
 260:ioLIB/dhcp.c  ****    setSUBR(DHCP_allocated_sn);
 183              		.loc 1 260 4
 184 0010 0422     		movs	r2, #4
 185 0012 0749     		ldr	r1, .L2+4
 186 0014 4FF4A060 		mov	r0, #1280
 187 0018 FFF7FEFF 		bl	WIZCHIP_WRITE_BUF
 261:ioLIB/dhcp.c  ****    setGAR (DHCP_allocated_gw);
 188              		.loc 1 261 4
 189 001c 0422     		movs	r2, #4
 190 001e 0549     		ldr	r1, .L2+8
 191 0020 4FF48070 		mov	r0, #256
 192 0024 FFF7FEFF 		bl	WIZCHIP_WRITE_BUF
 262:ioLIB/dhcp.c  **** }
 193              		.loc 1 262 1
 194 0028 00BF     		nop
 195 002a 80BD     		pop	{r7, pc}
 196              	.L3:
 197              		.align	2
 198              	.L2:
 199 002c 00000000 		.word	DHCP_allocated_ip
 200 0030 00000000 		.word	DHCP_allocated_sn
 201 0034 00000000 		.word	DHCP_allocated_gw
 202              		.cfi_endproc
 203              	.LFE0:
 205              		.section	.text.default_ip_update,"ax",%progbits
 206              		.align	1
 207              		.global	default_ip_update
 208              		.syntax unified
 209              		.thumb
 210              		.thumb_func
 212              	default_ip_update:
 213              	.LFB1:
 263:ioLIB/dhcp.c  **** 
 264:ioLIB/dhcp.c  **** /* The default handler of ip changed */
 265:ioLIB/dhcp.c  **** void default_ip_update(void)
 266:ioLIB/dhcp.c  **** {
 214              		.loc 1 266 1
 215              		.cfi_startproc
 216              		@ args = 0, pretend = 0, frame = 0
 217              		@ frame_needed = 1, uses_anonymous_args = 0
 218 0000 80B5     		push	{r7, lr}
 219              	.LCFI2:
 220              		.cfi_def_cfa_offset 8
 221              		.cfi_offset 7, -8
 222              		.cfi_offset 14, -4
 223 0002 00AF     		add	r7, sp, #0
 224              	.LCFI3:
 225              		.cfi_def_cfa_register 7
 267:ioLIB/dhcp.c  **** 	/* WIZchip Software Reset */
 268:ioLIB/dhcp.c  ****    setMR(MR_RST);
 226              		.loc 1 268 4
 227 0004 8021     		movs	r1, #128
 228 0006 0020     		movs	r0, #0
 229 0008 FFF7FEFF 		bl	WIZCHIP_WRITE
ARM GAS  C:\Users\clay0\AppData\Local\Temp\ccq2B2ZX.s 			page 9


 269:ioLIB/dhcp.c  ****    getMR(); // for delay
 230              		.loc 1 269 4
 231 000c 0020     		movs	r0, #0
 232 000e FFF7FEFF 		bl	WIZCHIP_READ
 270:ioLIB/dhcp.c  ****    default_ip_assign();
 233              		.loc 1 270 4
 234 0012 FFF7FEFF 		bl	default_ip_assign
 271:ioLIB/dhcp.c  ****    setSHAR(DHCP_CHADDR);
 235              		.loc 1 271 4
 236 0016 0622     		movs	r2, #6
 237 0018 0349     		ldr	r1, .L5
 238 001a 4FF41060 		mov	r0, #2304
 239 001e FFF7FEFF 		bl	WIZCHIP_WRITE_BUF
 272:ioLIB/dhcp.c  **** }
 240              		.loc 1 272 1
 241 0022 00BF     		nop
 242 0024 80BD     		pop	{r7, pc}
 243              	.L6:
 244 0026 00BF     		.align	2
 245              	.L5:
 246 0028 00000000 		.word	DHCP_CHADDR
 247              		.cfi_endproc
 248              	.LFE1:
 250              		.section	.text.default_ip_conflict,"ax",%progbits
 251              		.align	1
 252              		.global	default_ip_conflict
 253              		.syntax unified
 254              		.thumb
 255              		.thumb_func
 257              	default_ip_conflict:
 258              	.LFB2:
 273:ioLIB/dhcp.c  **** 
 274:ioLIB/dhcp.c  **** /* The default handler of ip changed */
 275:ioLIB/dhcp.c  **** void default_ip_conflict(void)
 276:ioLIB/dhcp.c  **** {
 259              		.loc 1 276 1
 260              		.cfi_startproc
 261              		@ args = 0, pretend = 0, frame = 0
 262              		@ frame_needed = 1, uses_anonymous_args = 0
 263 0000 80B5     		push	{r7, lr}
 264              	.LCFI4:
 265              		.cfi_def_cfa_offset 8
 266              		.cfi_offset 7, -8
 267              		.cfi_offset 14, -4
 268 0002 00AF     		add	r7, sp, #0
 269              	.LCFI5:
 270              		.cfi_def_cfa_register 7
 277:ioLIB/dhcp.c  **** 	// WIZchip Software Reset
 278:ioLIB/dhcp.c  **** 	setMR(MR_RST);
 271              		.loc 1 278 2
 272 0004 8021     		movs	r1, #128
 273 0006 0020     		movs	r0, #0
 274 0008 FFF7FEFF 		bl	WIZCHIP_WRITE
 279:ioLIB/dhcp.c  **** 	getMR(); // for delay
 275              		.loc 1 279 2
 276 000c 0020     		movs	r0, #0
 277 000e FFF7FEFF 		bl	WIZCHIP_READ
ARM GAS  C:\Users\clay0\AppData\Local\Temp\ccq2B2ZX.s 			page 10


 280:ioLIB/dhcp.c  **** 	setSHAR(DHCP_CHADDR);
 278              		.loc 1 280 2
 279 0012 0622     		movs	r2, #6
 280 0014 0349     		ldr	r1, .L8
 281 0016 4FF41060 		mov	r0, #2304
 282 001a FFF7FEFF 		bl	WIZCHIP_WRITE_BUF
 281:ioLIB/dhcp.c  **** }
 283              		.loc 1 281 1
 284 001e 00BF     		nop
 285 0020 80BD     		pop	{r7, pc}
 286              	.L9:
 287 0022 00BF     		.align	2
 288              	.L8:
 289 0024 00000000 		.word	DHCP_CHADDR
 290              		.cfi_endproc
 291              	.LFE2:
 293              		.section	.text.reg_dhcp_cbfunc,"ax",%progbits
 294              		.align	1
 295              		.global	reg_dhcp_cbfunc
 296              		.syntax unified
 297              		.thumb
 298              		.thumb_func
 300              	reg_dhcp_cbfunc:
 301              	.LFB3:
 282:ioLIB/dhcp.c  **** 
 283:ioLIB/dhcp.c  **** /* register the call back func. */
 284:ioLIB/dhcp.c  **** void reg_dhcp_cbfunc(void(*ip_assign)(void), void(*ip_update)(void), void(*ip_conflict)(void))
 285:ioLIB/dhcp.c  **** {
 302              		.loc 1 285 1
 303              		.cfi_startproc
 304              		@ args = 0, pretend = 0, frame = 16
 305              		@ frame_needed = 1, uses_anonymous_args = 0
 306              		@ link register save eliminated.
 307 0000 80B4     		push	{r7}
 308              	.LCFI6:
 309              		.cfi_def_cfa_offset 4
 310              		.cfi_offset 7, -4
 311 0002 85B0     		sub	sp, sp, #20
 312              	.LCFI7:
 313              		.cfi_def_cfa_offset 24
 314 0004 00AF     		add	r7, sp, #0
 315              	.LCFI8:
 316              		.cfi_def_cfa_register 7
 317 0006 F860     		str	r0, [r7, #12]
 318 0008 B960     		str	r1, [r7, #8]
 319 000a 7A60     		str	r2, [r7, #4]
 286:ioLIB/dhcp.c  ****    dhcp_ip_assign   = default_ip_assign;
 320              		.loc 1 286 21
 321 000c 104B     		ldr	r3, .L15
 322 000e 114A     		ldr	r2, .L15+4
 323 0010 1A60     		str	r2, [r3]
 287:ioLIB/dhcp.c  ****    dhcp_ip_update   = default_ip_update;
 324              		.loc 1 287 21
 325 0012 114B     		ldr	r3, .L15+8
 326 0014 114A     		ldr	r2, .L15+12
 327 0016 1A60     		str	r2, [r3]
 288:ioLIB/dhcp.c  ****    dhcp_ip_conflict = default_ip_conflict;
ARM GAS  C:\Users\clay0\AppData\Local\Temp\ccq2B2ZX.s 			page 11


 328              		.loc 1 288 21
 329 0018 114B     		ldr	r3, .L15+16
 330 001a 124A     		ldr	r2, .L15+20
 331 001c 1A60     		str	r2, [r3]
 289:ioLIB/dhcp.c  ****    if(ip_assign)   dhcp_ip_assign = ip_assign;
 332              		.loc 1 289 6
 333 001e FB68     		ldr	r3, [r7, #12]
 334 0020 002B     		cmp	r3, #0
 335 0022 02D0     		beq	.L11
 336              		.loc 1 289 35 discriminator 1
 337 0024 0A4A     		ldr	r2, .L15
 338 0026 FB68     		ldr	r3, [r7, #12]
 339 0028 1360     		str	r3, [r2]
 340              	.L11:
 290:ioLIB/dhcp.c  ****    if(ip_update)   dhcp_ip_update = ip_update;
 341              		.loc 1 290 6
 342 002a BB68     		ldr	r3, [r7, #8]
 343 002c 002B     		cmp	r3, #0
 344 002e 02D0     		beq	.L12
 345              		.loc 1 290 35 discriminator 1
 346 0030 094A     		ldr	r2, .L15+8
 347 0032 BB68     		ldr	r3, [r7, #8]
 348 0034 1360     		str	r3, [r2]
 349              	.L12:
 291:ioLIB/dhcp.c  ****    if(ip_conflict) dhcp_ip_conflict = ip_conflict;
 350              		.loc 1 291 6
 351 0036 7B68     		ldr	r3, [r7, #4]
 352 0038 002B     		cmp	r3, #0
 353 003a 02D0     		beq	.L14
 354              		.loc 1 291 37 discriminator 1
 355 003c 084A     		ldr	r2, .L15+16
 356 003e 7B68     		ldr	r3, [r7, #4]
 357 0040 1360     		str	r3, [r2]
 358              	.L14:
 292:ioLIB/dhcp.c  **** }
 359              		.loc 1 292 1
 360 0042 00BF     		nop
 361 0044 1437     		adds	r7, r7, #20
 362              	.LCFI9:
 363              		.cfi_def_cfa_offset 4
 364 0046 BD46     		mov	sp, r7
 365              	.LCFI10:
 366              		.cfi_def_cfa_register 13
 367              		@ sp needed
 368 0048 5DF8047B 		ldr	r7, [sp], #4
 369              	.LCFI11:
 370              		.cfi_restore 7
 371              		.cfi_def_cfa_offset 0
 372 004c 7047     		bx	lr
 373              	.L16:
 374 004e 00BF     		.align	2
 375              	.L15:
 376 0050 00000000 		.word	dhcp_ip_assign
 377 0054 00000000 		.word	default_ip_assign
 378 0058 00000000 		.word	dhcp_ip_update
 379 005c 00000000 		.word	default_ip_update
 380 0060 00000000 		.word	dhcp_ip_conflict
ARM GAS  C:\Users\clay0\AppData\Local\Temp\ccq2B2ZX.s 			page 12


 381 0064 00000000 		.word	default_ip_conflict
 382              		.cfi_endproc
 383              	.LFE3:
 385              		.section	.text.makeDHCPMSG,"ax",%progbits
 386              		.align	1
 387              		.global	makeDHCPMSG
 388              		.syntax unified
 389              		.thumb
 390              		.thumb_func
 392              	makeDHCPMSG:
 393              	.LFB4:
 293:ioLIB/dhcp.c  **** 
 294:ioLIB/dhcp.c  **** /* make the common DHCP message */
 295:ioLIB/dhcp.c  **** void makeDHCPMSG(void)
 296:ioLIB/dhcp.c  **** {
 394              		.loc 1 296 1
 395              		.cfi_startproc
 396              		@ args = 0, pretend = 0, frame = 16
 397              		@ frame_needed = 1, uses_anonymous_args = 0
 398 0000 80B5     		push	{r7, lr}
 399              	.LCFI12:
 400              		.cfi_def_cfa_offset 8
 401              		.cfi_offset 7, -8
 402              		.cfi_offset 14, -4
 403 0002 84B0     		sub	sp, sp, #16
 404              	.LCFI13:
 405              		.cfi_def_cfa_offset 24
 406 0004 00AF     		add	r7, sp, #0
 407              	.LCFI14:
 408              		.cfi_def_cfa_register 7
 297:ioLIB/dhcp.c  ****    uint8_t  bk_mac[6];
 298:ioLIB/dhcp.c  ****    uint8_t* ptmp;
 299:ioLIB/dhcp.c  ****    uint8_t  i;
 300:ioLIB/dhcp.c  ****    getSHAR(bk_mac);
 409              		.loc 1 300 4
 410 0006 3B46     		mov	r3, r7
 411 0008 0622     		movs	r2, #6
 412 000a 1946     		mov	r1, r3
 413 000c 4FF41060 		mov	r0, #2304
 414 0010 FFF7FEFF 		bl	WIZCHIP_READ_BUF
 301:ioLIB/dhcp.c  **** 	pDHCPMSG->op      = DHCP_BOOTREQUEST;
 415              		.loc 1 301 10
 416 0014 724B     		ldr	r3, .L24
 417 0016 1B68     		ldr	r3, [r3]
 418              		.loc 1 301 20
 419 0018 0122     		movs	r2, #1
 420 001a 1A70     		strb	r2, [r3]
 302:ioLIB/dhcp.c  **** 	pDHCPMSG->htype   = DHCP_HTYPE10MB;
 421              		.loc 1 302 10
 422 001c 704B     		ldr	r3, .L24
 423 001e 1B68     		ldr	r3, [r3]
 424              		.loc 1 302 20
 425 0020 0122     		movs	r2, #1
 426 0022 5A70     		strb	r2, [r3, #1]
 303:ioLIB/dhcp.c  **** 	pDHCPMSG->hlen    = DHCP_HLENETHERNET;
 427              		.loc 1 303 10
 428 0024 6E4B     		ldr	r3, .L24
ARM GAS  C:\Users\clay0\AppData\Local\Temp\ccq2B2ZX.s 			page 13


 429 0026 1B68     		ldr	r3, [r3]
 430              		.loc 1 303 20
 431 0028 0622     		movs	r2, #6
 432 002a 9A70     		strb	r2, [r3, #2]
 304:ioLIB/dhcp.c  **** 	pDHCPMSG->hops    = DHCP_HOPS;
 433              		.loc 1 304 10
 434 002c 6C4B     		ldr	r3, .L24
 435 002e 1B68     		ldr	r3, [r3]
 436              		.loc 1 304 20
 437 0030 0022     		movs	r2, #0
 438 0032 DA70     		strb	r2, [r3, #3]
 305:ioLIB/dhcp.c  **** 	ptmp              = (uint8_t*)(&pDHCPMSG->xid);
 439              		.loc 1 305 42
 440 0034 6A4B     		ldr	r3, .L24
 441 0036 1B68     		ldr	r3, [r3]
 442              		.loc 1 305 20
 443 0038 0433     		adds	r3, r3, #4
 444 003a BB60     		str	r3, [r7, #8]
 306:ioLIB/dhcp.c  **** 	*(ptmp+0)         = (uint8_t)((DHCP_XID & 0xFF000000) >> 24);
 445              		.loc 1 306 56
 446 003c 694B     		ldr	r3, .L24+4
 447 003e 1B68     		ldr	r3, [r3]
 448 0040 1B0E     		lsrs	r3, r3, #24
 449              		.loc 1 306 22
 450 0042 DAB2     		uxtb	r2, r3
 451              		.loc 1 306 20
 452 0044 BB68     		ldr	r3, [r7, #8]
 453 0046 1A70     		strb	r2, [r3]
 307:ioLIB/dhcp.c  **** 	*(ptmp+1)         = (uint8_t)((DHCP_XID & 0x00FF0000) >> 16);
 454              		.loc 1 307 56
 455 0048 664B     		ldr	r3, .L24+4
 456 004a 1B68     		ldr	r3, [r3]
 457 004c 1A0C     		lsrs	r2, r3, #16
 458              		.loc 1 307 8
 459 004e BB68     		ldr	r3, [r7, #8]
 460 0050 0133     		adds	r3, r3, #1
 461              		.loc 1 307 22
 462 0052 D2B2     		uxtb	r2, r2
 463              		.loc 1 307 20
 464 0054 1A70     		strb	r2, [r3]
 308:ioLIB/dhcp.c  ****    *(ptmp+2)         = (uint8_t)((DHCP_XID & 0x0000FF00) >>  8);
 465              		.loc 1 308 58
 466 0056 634B     		ldr	r3, .L24+4
 467 0058 1B68     		ldr	r3, [r3]
 468 005a 1A0A     		lsrs	r2, r3, #8
 469              		.loc 1 308 10
 470 005c BB68     		ldr	r3, [r7, #8]
 471 005e 0233     		adds	r3, r3, #2
 472              		.loc 1 308 24
 473 0060 D2B2     		uxtb	r2, r2
 474              		.loc 1 308 22
 475 0062 1A70     		strb	r2, [r3]
 309:ioLIB/dhcp.c  **** 	*(ptmp+3)         = (uint8_t)((DHCP_XID & 0x000000FF) >>  0);   
 476              		.loc 1 309 22
 477 0064 5F4B     		ldr	r3, .L24+4
 478 0066 1A68     		ldr	r2, [r3]
 479              		.loc 1 309 8
ARM GAS  C:\Users\clay0\AppData\Local\Temp\ccq2B2ZX.s 			page 14


 480 0068 BB68     		ldr	r3, [r7, #8]
 481 006a 0333     		adds	r3, r3, #3
 482              		.loc 1 309 22
 483 006c D2B2     		uxtb	r2, r2
 484              		.loc 1 309 20
 485 006e 1A70     		strb	r2, [r3]
 310:ioLIB/dhcp.c  **** 	pDHCPMSG->secs    = DHCP_SECS;
 486              		.loc 1 310 10
 487 0070 5B4B     		ldr	r3, .L24
 488 0072 1B68     		ldr	r3, [r3]
 489              		.loc 1 310 20
 490 0074 0022     		movs	r2, #0
 491 0076 1A81     		strh	r2, [r3, #8]	@ movhi
 311:ioLIB/dhcp.c  **** 	ptmp              = (uint8_t*)(&pDHCPMSG->flags);	
 492              		.loc 1 311 42
 493 0078 594B     		ldr	r3, .L24
 494 007a 1B68     		ldr	r3, [r3]
 495              		.loc 1 311 20
 496 007c 0A33     		adds	r3, r3, #10
 497 007e BB60     		str	r3, [r7, #8]
 312:ioLIB/dhcp.c  **** 	*(ptmp+0)         = (uint8_t)((DHCP_FLAGSBROADCAST & 0xFF00) >> 8);
 498              		.loc 1 312 20
 499 0080 BB68     		ldr	r3, [r7, #8]
 500 0082 8022     		movs	r2, #128
 501 0084 1A70     		strb	r2, [r3]
 313:ioLIB/dhcp.c  **** 	*(ptmp+1)         = (uint8_t)((DHCP_FLAGSBROADCAST & 0x00FF) >> 0);
 502              		.loc 1 313 8
 503 0086 BB68     		ldr	r3, [r7, #8]
 504 0088 0133     		adds	r3, r3, #1
 505              		.loc 1 313 20
 506 008a 0022     		movs	r2, #0
 507 008c 1A70     		strb	r2, [r3]
 314:ioLIB/dhcp.c  **** 
 315:ioLIB/dhcp.c  **** 	pDHCPMSG->ciaddr[0] = 0;
 508              		.loc 1 315 10
 509 008e 544B     		ldr	r3, .L24
 510 0090 1B68     		ldr	r3, [r3]
 511              		.loc 1 315 22
 512 0092 0022     		movs	r2, #0
 513 0094 1A73     		strb	r2, [r3, #12]
 316:ioLIB/dhcp.c  **** 	pDHCPMSG->ciaddr[1] = 0;
 514              		.loc 1 316 10
 515 0096 524B     		ldr	r3, .L24
 516 0098 1B68     		ldr	r3, [r3]
 517              		.loc 1 316 22
 518 009a 0022     		movs	r2, #0
 519 009c 5A73     		strb	r2, [r3, #13]
 317:ioLIB/dhcp.c  **** 	pDHCPMSG->ciaddr[2] = 0;
 520              		.loc 1 317 10
 521 009e 504B     		ldr	r3, .L24
 522 00a0 1B68     		ldr	r3, [r3]
 523              		.loc 1 317 22
 524 00a2 0022     		movs	r2, #0
 525 00a4 9A73     		strb	r2, [r3, #14]
 318:ioLIB/dhcp.c  **** 	pDHCPMSG->ciaddr[3] = 0;
 526              		.loc 1 318 10
 527 00a6 4E4B     		ldr	r3, .L24
ARM GAS  C:\Users\clay0\AppData\Local\Temp\ccq2B2ZX.s 			page 15


 528 00a8 1B68     		ldr	r3, [r3]
 529              		.loc 1 318 22
 530 00aa 0022     		movs	r2, #0
 531 00ac DA73     		strb	r2, [r3, #15]
 319:ioLIB/dhcp.c  **** 
 320:ioLIB/dhcp.c  **** 	pDHCPMSG->yiaddr[0] = 0;
 532              		.loc 1 320 10
 533 00ae 4C4B     		ldr	r3, .L24
 534 00b0 1B68     		ldr	r3, [r3]
 535              		.loc 1 320 22
 536 00b2 0022     		movs	r2, #0
 537 00b4 1A74     		strb	r2, [r3, #16]
 321:ioLIB/dhcp.c  **** 	pDHCPMSG->yiaddr[1] = 0;
 538              		.loc 1 321 10
 539 00b6 4A4B     		ldr	r3, .L24
 540 00b8 1B68     		ldr	r3, [r3]
 541              		.loc 1 321 22
 542 00ba 0022     		movs	r2, #0
 543 00bc 5A74     		strb	r2, [r3, #17]
 322:ioLIB/dhcp.c  **** 	pDHCPMSG->yiaddr[2] = 0;
 544              		.loc 1 322 10
 545 00be 484B     		ldr	r3, .L24
 546 00c0 1B68     		ldr	r3, [r3]
 547              		.loc 1 322 22
 548 00c2 0022     		movs	r2, #0
 549 00c4 9A74     		strb	r2, [r3, #18]
 323:ioLIB/dhcp.c  **** 	pDHCPMSG->yiaddr[3] = 0;
 550              		.loc 1 323 10
 551 00c6 464B     		ldr	r3, .L24
 552 00c8 1B68     		ldr	r3, [r3]
 553              		.loc 1 323 22
 554 00ca 0022     		movs	r2, #0
 555 00cc DA74     		strb	r2, [r3, #19]
 324:ioLIB/dhcp.c  **** 
 325:ioLIB/dhcp.c  **** 	pDHCPMSG->siaddr[0] = 0;
 556              		.loc 1 325 10
 557 00ce 444B     		ldr	r3, .L24
 558 00d0 1B68     		ldr	r3, [r3]
 559              		.loc 1 325 22
 560 00d2 0022     		movs	r2, #0
 561 00d4 1A75     		strb	r2, [r3, #20]
 326:ioLIB/dhcp.c  **** 	pDHCPMSG->siaddr[1] = 0;
 562              		.loc 1 326 10
 563 00d6 424B     		ldr	r3, .L24
 564 00d8 1B68     		ldr	r3, [r3]
 565              		.loc 1 326 22
 566 00da 0022     		movs	r2, #0
 567 00dc 5A75     		strb	r2, [r3, #21]
 327:ioLIB/dhcp.c  **** 	pDHCPMSG->siaddr[2] = 0;
 568              		.loc 1 327 10
 569 00de 404B     		ldr	r3, .L24
 570 00e0 1B68     		ldr	r3, [r3]
 571              		.loc 1 327 22
 572 00e2 0022     		movs	r2, #0
 573 00e4 9A75     		strb	r2, [r3, #22]
 328:ioLIB/dhcp.c  **** 	pDHCPMSG->siaddr[3] = 0;
 574              		.loc 1 328 10
ARM GAS  C:\Users\clay0\AppData\Local\Temp\ccq2B2ZX.s 			page 16


 575 00e6 3E4B     		ldr	r3, .L24
 576 00e8 1B68     		ldr	r3, [r3]
 577              		.loc 1 328 22
 578 00ea 0022     		movs	r2, #0
 579 00ec DA75     		strb	r2, [r3, #23]
 329:ioLIB/dhcp.c  **** 
 330:ioLIB/dhcp.c  **** 	pDHCPMSG->giaddr[0] = 0;
 580              		.loc 1 330 10
 581 00ee 3C4B     		ldr	r3, .L24
 582 00f0 1B68     		ldr	r3, [r3]
 583              		.loc 1 330 22
 584 00f2 0022     		movs	r2, #0
 585 00f4 1A76     		strb	r2, [r3, #24]
 331:ioLIB/dhcp.c  **** 	pDHCPMSG->giaddr[1] = 0;
 586              		.loc 1 331 10
 587 00f6 3A4B     		ldr	r3, .L24
 588 00f8 1B68     		ldr	r3, [r3]
 589              		.loc 1 331 22
 590 00fa 0022     		movs	r2, #0
 591 00fc 5A76     		strb	r2, [r3, #25]
 332:ioLIB/dhcp.c  **** 	pDHCPMSG->giaddr[2] = 0;
 592              		.loc 1 332 10
 593 00fe 384B     		ldr	r3, .L24
 594 0100 1B68     		ldr	r3, [r3]
 595              		.loc 1 332 22
 596 0102 0022     		movs	r2, #0
 597 0104 9A76     		strb	r2, [r3, #26]
 333:ioLIB/dhcp.c  **** 	pDHCPMSG->giaddr[3] = 0;
 598              		.loc 1 333 10
 599 0106 364B     		ldr	r3, .L24
 600 0108 1B68     		ldr	r3, [r3]
 601              		.loc 1 333 22
 602 010a 0022     		movs	r2, #0
 603 010c DA76     		strb	r2, [r3, #27]
 334:ioLIB/dhcp.c  **** 
 335:ioLIB/dhcp.c  **** 	pDHCPMSG->chaddr[0] = DHCP_CHADDR[0];
 604              		.loc 1 335 10
 605 010e 344B     		ldr	r3, .L24
 606 0110 1B68     		ldr	r3, [r3]
 607              		.loc 1 335 35
 608 0112 354A     		ldr	r2, .L24+8
 609 0114 1278     		ldrb	r2, [r2]	@ zero_extendqisi2
 610              		.loc 1 335 22
 611 0116 1A77     		strb	r2, [r3, #28]
 336:ioLIB/dhcp.c  **** 	pDHCPMSG->chaddr[1] = DHCP_CHADDR[1];
 612              		.loc 1 336 10
 613 0118 314B     		ldr	r3, .L24
 614 011a 1B68     		ldr	r3, [r3]
 615              		.loc 1 336 35
 616 011c 324A     		ldr	r2, .L24+8
 617 011e 5278     		ldrb	r2, [r2, #1]	@ zero_extendqisi2
 618              		.loc 1 336 22
 619 0120 5A77     		strb	r2, [r3, #29]
 337:ioLIB/dhcp.c  **** 	pDHCPMSG->chaddr[2] = DHCP_CHADDR[2];
 620              		.loc 1 337 10
 621 0122 2F4B     		ldr	r3, .L24
 622 0124 1B68     		ldr	r3, [r3]
ARM GAS  C:\Users\clay0\AppData\Local\Temp\ccq2B2ZX.s 			page 17


 623              		.loc 1 337 35
 624 0126 304A     		ldr	r2, .L24+8
 625 0128 9278     		ldrb	r2, [r2, #2]	@ zero_extendqisi2
 626              		.loc 1 337 22
 627 012a 9A77     		strb	r2, [r3, #30]
 338:ioLIB/dhcp.c  **** 	pDHCPMSG->chaddr[3] = DHCP_CHADDR[3];
 628              		.loc 1 338 10
 629 012c 2C4B     		ldr	r3, .L24
 630 012e 1B68     		ldr	r3, [r3]
 631              		.loc 1 338 35
 632 0130 2D4A     		ldr	r2, .L24+8
 633 0132 D278     		ldrb	r2, [r2, #3]	@ zero_extendqisi2
 634              		.loc 1 338 22
 635 0134 DA77     		strb	r2, [r3, #31]
 339:ioLIB/dhcp.c  **** 	pDHCPMSG->chaddr[4] = DHCP_CHADDR[4];
 636              		.loc 1 339 10
 637 0136 2A4B     		ldr	r3, .L24
 638 0138 1B68     		ldr	r3, [r3]
 639              		.loc 1 339 35
 640 013a 2B4A     		ldr	r2, .L24+8
 641 013c 1279     		ldrb	r2, [r2, #4]	@ zero_extendqisi2
 642              		.loc 1 339 22
 643 013e 83F82020 		strb	r2, [r3, #32]
 340:ioLIB/dhcp.c  **** 	pDHCPMSG->chaddr[5] = DHCP_CHADDR[5];
 644              		.loc 1 340 10
 645 0142 274B     		ldr	r3, .L24
 646 0144 1B68     		ldr	r3, [r3]
 647              		.loc 1 340 35
 648 0146 284A     		ldr	r2, .L24+8
 649 0148 5279     		ldrb	r2, [r2, #5]	@ zero_extendqisi2
 650              		.loc 1 340 22
 651 014a 83F82120 		strb	r2, [r3, #33]
 341:ioLIB/dhcp.c  **** 
 342:ioLIB/dhcp.c  **** 	for (i = 6; i < 16; i++)  pDHCPMSG->chaddr[i] = 0;
 652              		.loc 1 342 9
 653 014e 0623     		movs	r3, #6
 654 0150 FB73     		strb	r3, [r7, #15]
 655              		.loc 1 342 2
 656 0152 08E0     		b	.L18
 657              	.L19:
 658              		.loc 1 342 36 discriminator 3
 659 0154 224B     		ldr	r3, .L24
 660 0156 1A68     		ldr	r2, [r3]
 661              		.loc 1 342 44 discriminator 3
 662 0158 FB7B     		ldrb	r3, [r7, #15]	@ zero_extendqisi2
 663              		.loc 1 342 48 discriminator 3
 664 015a 1344     		add	r3, r3, r2
 665 015c 0022     		movs	r2, #0
 666 015e 1A77     		strb	r2, [r3, #28]
 667              		.loc 1 342 23 discriminator 3
 668 0160 FB7B     		ldrb	r3, [r7, #15]	@ zero_extendqisi2
 669 0162 0133     		adds	r3, r3, #1
 670 0164 FB73     		strb	r3, [r7, #15]
 671              	.L18:
 672              		.loc 1 342 2 discriminator 1
 673 0166 FB7B     		ldrb	r3, [r7, #15]	@ zero_extendqisi2
 674 0168 0F2B     		cmp	r3, #15
ARM GAS  C:\Users\clay0\AppData\Local\Temp\ccq2B2ZX.s 			page 18


 675 016a F3D9     		bls	.L19
 343:ioLIB/dhcp.c  **** 	for (i = 0; i < 64; i++)  pDHCPMSG->sname[i]  = 0;
 676              		.loc 1 343 9
 677 016c 0023     		movs	r3, #0
 678 016e FB73     		strb	r3, [r7, #15]
 679              		.loc 1 343 2
 680 0170 09E0     		b	.L20
 681              	.L21:
 682              		.loc 1 343 36 discriminator 3
 683 0172 1B4B     		ldr	r3, .L24
 684 0174 1A68     		ldr	r2, [r3]
 685              		.loc 1 343 43 discriminator 3
 686 0176 FB7B     		ldrb	r3, [r7, #15]	@ zero_extendqisi2
 687              		.loc 1 343 48 discriminator 3
 688 0178 1344     		add	r3, r3, r2
 689 017a 0022     		movs	r2, #0
 690 017c 83F82C20 		strb	r2, [r3, #44]
 691              		.loc 1 343 23 discriminator 3
 692 0180 FB7B     		ldrb	r3, [r7, #15]	@ zero_extendqisi2
 693 0182 0133     		adds	r3, r3, #1
 694 0184 FB73     		strb	r3, [r7, #15]
 695              	.L20:
 696              		.loc 1 343 2 discriminator 1
 697 0186 FB7B     		ldrb	r3, [r7, #15]	@ zero_extendqisi2
 698 0188 3F2B     		cmp	r3, #63
 699 018a F2D9     		bls	.L21
 344:ioLIB/dhcp.c  **** 	for (i = 0; i < 128; i++) pDHCPMSG->file[i]   = 0;
 700              		.loc 1 344 9
 701 018c 0023     		movs	r3, #0
 702 018e FB73     		strb	r3, [r7, #15]
 703              		.loc 1 344 2
 704 0190 09E0     		b	.L22
 705              	.L23:
 706              		.loc 1 344 36 discriminator 3
 707 0192 134B     		ldr	r3, .L24
 708 0194 1A68     		ldr	r2, [r3]
 709              		.loc 1 344 42 discriminator 3
 710 0196 FB7B     		ldrb	r3, [r7, #15]	@ zero_extendqisi2
 711              		.loc 1 344 48 discriminator 3
 712 0198 1344     		add	r3, r3, r2
 713 019a 0022     		movs	r2, #0
 714 019c 83F86C20 		strb	r2, [r3, #108]
 715              		.loc 1 344 24 discriminator 3
 716 01a0 FB7B     		ldrb	r3, [r7, #15]	@ zero_extendqisi2
 717 01a2 0133     		adds	r3, r3, #1
 718 01a4 FB73     		strb	r3, [r7, #15]
 719              	.L22:
 720              		.loc 1 344 16 discriminator 1
 721 01a6 97F90F30 		ldrsb	r3, [r7, #15]
 722              		.loc 1 344 2 discriminator 1
 723 01aa 002B     		cmp	r3, #0
 724 01ac F1DA     		bge	.L23
 345:ioLIB/dhcp.c  **** 
 346:ioLIB/dhcp.c  **** 	// MAGIC_COOKIE
 347:ioLIB/dhcp.c  **** 	pDHCPMSG->OPT[0] = (uint8_t)((MAGIC_COOKIE & 0xFF000000) >> 24);
 725              		.loc 1 347 10
 726 01ae 0C4B     		ldr	r3, .L24
ARM GAS  C:\Users\clay0\AppData\Local\Temp\ccq2B2ZX.s 			page 19


 727 01b0 1B68     		ldr	r3, [r3]
 728              		.loc 1 347 19
 729 01b2 6322     		movs	r2, #99
 730 01b4 83F8EC20 		strb	r2, [r3, #236]
 348:ioLIB/dhcp.c  **** 	pDHCPMSG->OPT[1] = (uint8_t)((MAGIC_COOKIE & 0x00FF0000) >> 16);
 731              		.loc 1 348 10
 732 01b8 094B     		ldr	r3, .L24
 733 01ba 1B68     		ldr	r3, [r3]
 734              		.loc 1 348 19
 735 01bc 8222     		movs	r2, #130
 736 01be 83F8ED20 		strb	r2, [r3, #237]
 349:ioLIB/dhcp.c  **** 	pDHCPMSG->OPT[2] = (uint8_t)((MAGIC_COOKIE & 0x0000FF00) >>  8);
 737              		.loc 1 349 10
 738 01c2 074B     		ldr	r3, .L24
 739 01c4 1B68     		ldr	r3, [r3]
 740              		.loc 1 349 19
 741 01c6 5322     		movs	r2, #83
 742 01c8 83F8EE20 		strb	r2, [r3, #238]
 350:ioLIB/dhcp.c  **** 	pDHCPMSG->OPT[3] = (uint8_t) (MAGIC_COOKIE & 0x000000FF) >>  0;
 743              		.loc 1 350 10
 744 01cc 044B     		ldr	r3, .L24
 745 01ce 1B68     		ldr	r3, [r3]
 746              		.loc 1 350 19
 747 01d0 6322     		movs	r2, #99
 748 01d2 83F8EF20 		strb	r2, [r3, #239]
 351:ioLIB/dhcp.c  **** }
 749              		.loc 1 351 1
 750 01d6 00BF     		nop
 751 01d8 1037     		adds	r7, r7, #16
 752              	.LCFI15:
 753              		.cfi_def_cfa_offset 8
 754 01da BD46     		mov	sp, r7
 755              	.LCFI16:
 756              		.cfi_def_cfa_register 13
 757              		@ sp needed
 758 01dc 80BD     		pop	{r7, pc}
 759              	.L25:
 760 01de 00BF     		.align	2
 761              	.L24:
 762 01e0 00000000 		.word	pDHCPMSG
 763 01e4 00000000 		.word	DHCP_XID
 764 01e8 00000000 		.word	DHCP_CHADDR
 765              		.cfi_endproc
 766              	.LFE4:
 768              		.section	.text.send_DHCP_DISCOVER,"ax",%progbits
 769              		.align	1
 770              		.global	send_DHCP_DISCOVER
 771              		.syntax unified
 772              		.thumb
 773              		.thumb_func
 775              	send_DHCP_DISCOVER:
 776              	.LFB5:
 352:ioLIB/dhcp.c  **** 
 353:ioLIB/dhcp.c  **** /* SEND DHCP DISCOVER */
 354:ioLIB/dhcp.c  **** void send_DHCP_DISCOVER(void)
 355:ioLIB/dhcp.c  **** {
 777              		.loc 1 355 1
ARM GAS  C:\Users\clay0\AppData\Local\Temp\ccq2B2ZX.s 			page 20


 778              		.cfi_startproc
 779              		@ args = 0, pretend = 0, frame = 8
 780              		@ frame_needed = 1, uses_anonymous_args = 0
 781 0000 B0B5     		push	{r4, r5, r7, lr}
 782              	.LCFI17:
 783              		.cfi_def_cfa_offset 16
 784              		.cfi_offset 4, -16
 785              		.cfi_offset 5, -12
 786              		.cfi_offset 7, -8
 787              		.cfi_offset 14, -4
 788 0002 84B0     		sub	sp, sp, #16
 789              	.LCFI18:
 790              		.cfi_def_cfa_offset 32
 791 0004 02AF     		add	r7, sp, #8
 792              	.LCFI19:
 793              		.cfi_def_cfa 7, 24
 356:ioLIB/dhcp.c  **** 	uint16_t i;
 357:ioLIB/dhcp.c  **** 	uint8_t ip[4];
 358:ioLIB/dhcp.c  **** 	uint16_t k = 0;
 794              		.loc 1 358 11
 795 0006 0023     		movs	r3, #0
 796 0008 BB80     		strh	r3, [r7, #4]	@ movhi
 359:ioLIB/dhcp.c  ****    
 360:ioLIB/dhcp.c  ****    makeDHCPMSG();
 797              		.loc 1 360 4
 798 000a FFF7FEFF 		bl	makeDHCPMSG
 361:ioLIB/dhcp.c  ****    DHCP_SIP[0]=0;
 799              		.loc 1 361 15
 800 000e 564B     		ldr	r3, .L31
 801 0010 0022     		movs	r2, #0
 802 0012 1A70     		strb	r2, [r3]
 362:ioLIB/dhcp.c  ****    DHCP_SIP[1]=0;
 803              		.loc 1 362 15
 804 0014 544B     		ldr	r3, .L31
 805 0016 0022     		movs	r2, #0
 806 0018 5A70     		strb	r2, [r3, #1]
 363:ioLIB/dhcp.c  ****    DHCP_SIP[2]=0;
 807              		.loc 1 363 15
 808 001a 534B     		ldr	r3, .L31
 809 001c 0022     		movs	r2, #0
 810 001e 9A70     		strb	r2, [r3, #2]
 364:ioLIB/dhcp.c  ****    DHCP_SIP[3]=0;
 811              		.loc 1 364 15
 812 0020 514B     		ldr	r3, .L31
 813 0022 0022     		movs	r2, #0
 814 0024 DA70     		strb	r2, [r3, #3]
 365:ioLIB/dhcp.c  ****    DHCP_REAL_SIP[0]=0;
 815              		.loc 1 365 20
 816 0026 514B     		ldr	r3, .L31+4
 817 0028 0022     		movs	r2, #0
 818 002a 1A70     		strb	r2, [r3]
 366:ioLIB/dhcp.c  ****    DHCP_REAL_SIP[1]=0;
 819              		.loc 1 366 20
 820 002c 4F4B     		ldr	r3, .L31+4
 821 002e 0022     		movs	r2, #0
 822 0030 5A70     		strb	r2, [r3, #1]
 367:ioLIB/dhcp.c  ****    DHCP_REAL_SIP[2]=0;
ARM GAS  C:\Users\clay0\AppData\Local\Temp\ccq2B2ZX.s 			page 21


 823              		.loc 1 367 20
 824 0032 4E4B     		ldr	r3, .L31+4
 825 0034 0022     		movs	r2, #0
 826 0036 9A70     		strb	r2, [r3, #2]
 368:ioLIB/dhcp.c  ****    DHCP_REAL_SIP[3]=0;
 827              		.loc 1 368 20
 828 0038 4C4B     		ldr	r3, .L31+4
 829 003a 0022     		movs	r2, #0
 830 003c DA70     		strb	r2, [r3, #3]
 369:ioLIB/dhcp.c  **** 
 370:ioLIB/dhcp.c  ****    k = 4;     // because MAGIC_COOKIE already made by makeDHCPMSG()
 831              		.loc 1 370 6
 832 003e 0423     		movs	r3, #4
 833 0040 BB80     		strh	r3, [r7, #4]	@ movhi
 371:ioLIB/dhcp.c  ****    
 372:ioLIB/dhcp.c  **** 	// Option Request Param
 373:ioLIB/dhcp.c  **** 	pDHCPMSG->OPT[k++] = dhcpMessageType;
 834              		.loc 1 373 10
 835 0042 4B4B     		ldr	r3, .L31+8
 836 0044 1A68     		ldr	r2, [r3]
 837              		.loc 1 373 17
 838 0046 BB88     		ldrh	r3, [r7, #4]
 839 0048 591C     		adds	r1, r3, #1
 840 004a B980     		strh	r1, [r7, #4]	@ movhi
 841              		.loc 1 373 21
 842 004c 1344     		add	r3, r3, r2
 843 004e 3522     		movs	r2, #53
 844 0050 83F8EC20 		strb	r2, [r3, #236]
 374:ioLIB/dhcp.c  **** 	pDHCPMSG->OPT[k++] = 0x01;
 845              		.loc 1 374 10
 846 0054 464B     		ldr	r3, .L31+8
 847 0056 1A68     		ldr	r2, [r3]
 848              		.loc 1 374 17
 849 0058 BB88     		ldrh	r3, [r7, #4]
 850 005a 591C     		adds	r1, r3, #1
 851 005c B980     		strh	r1, [r7, #4]	@ movhi
 852              		.loc 1 374 21
 853 005e 1344     		add	r3, r3, r2
 854 0060 0122     		movs	r2, #1
 855 0062 83F8EC20 		strb	r2, [r3, #236]
 375:ioLIB/dhcp.c  **** 	pDHCPMSG->OPT[k++] = DHCP_DISCOVER;
 856              		.loc 1 375 10
 857 0066 424B     		ldr	r3, .L31+8
 858 0068 1A68     		ldr	r2, [r3]
 859              		.loc 1 375 17
 860 006a BB88     		ldrh	r3, [r7, #4]
 861 006c 591C     		adds	r1, r3, #1
 862 006e B980     		strh	r1, [r7, #4]	@ movhi
 863              		.loc 1 375 21
 864 0070 1344     		add	r3, r3, r2
 865 0072 0122     		movs	r2, #1
 866 0074 83F8EC20 		strb	r2, [r3, #236]
 376:ioLIB/dhcp.c  **** 	
 377:ioLIB/dhcp.c  **** 	// Client identifier
 378:ioLIB/dhcp.c  **** 	pDHCPMSG->OPT[k++] = dhcpClientIdentifier;
 867              		.loc 1 378 10
 868 0078 3D4B     		ldr	r3, .L31+8
ARM GAS  C:\Users\clay0\AppData\Local\Temp\ccq2B2ZX.s 			page 22


 869 007a 1A68     		ldr	r2, [r3]
 870              		.loc 1 378 17
 871 007c BB88     		ldrh	r3, [r7, #4]
 872 007e 591C     		adds	r1, r3, #1
 873 0080 B980     		strh	r1, [r7, #4]	@ movhi
 874              		.loc 1 378 21
 875 0082 1344     		add	r3, r3, r2
 876 0084 3D22     		movs	r2, #61
 877 0086 83F8EC20 		strb	r2, [r3, #236]
 379:ioLIB/dhcp.c  **** 	pDHCPMSG->OPT[k++] = 0x07;
 878              		.loc 1 379 10
 879 008a 394B     		ldr	r3, .L31+8
 880 008c 1A68     		ldr	r2, [r3]
 881              		.loc 1 379 17
 882 008e BB88     		ldrh	r3, [r7, #4]
 883 0090 591C     		adds	r1, r3, #1
 884 0092 B980     		strh	r1, [r7, #4]	@ movhi
 885              		.loc 1 379 21
 886 0094 1344     		add	r3, r3, r2
 887 0096 0722     		movs	r2, #7
 888 0098 83F8EC20 		strb	r2, [r3, #236]
 380:ioLIB/dhcp.c  **** 	pDHCPMSG->OPT[k++] = 0x01;
 889              		.loc 1 380 10
 890 009c 344B     		ldr	r3, .L31+8
 891 009e 1A68     		ldr	r2, [r3]
 892              		.loc 1 380 17
 893 00a0 BB88     		ldrh	r3, [r7, #4]
 894 00a2 591C     		adds	r1, r3, #1
 895 00a4 B980     		strh	r1, [r7, #4]	@ movhi
 896              		.loc 1 380 21
 897 00a6 1344     		add	r3, r3, r2
 898 00a8 0122     		movs	r2, #1
 899 00aa 83F8EC20 		strb	r2, [r3, #236]
 381:ioLIB/dhcp.c  **** 	pDHCPMSG->OPT[k++] = DHCP_CHADDR[0];
 900              		.loc 1 381 10
 901 00ae 304B     		ldr	r3, .L31+8
 902 00b0 1A68     		ldr	r2, [r3]
 903              		.loc 1 381 17
 904 00b2 BB88     		ldrh	r3, [r7, #4]
 905 00b4 591C     		adds	r1, r3, #1
 906 00b6 B980     		strh	r1, [r7, #4]	@ movhi
 907 00b8 1846     		mov	r0, r3
 908              		.loc 1 381 34
 909 00ba 2E4B     		ldr	r3, .L31+12
 910 00bc 1978     		ldrb	r1, [r3]	@ zero_extendqisi2
 911              		.loc 1 381 21
 912 00be 1318     		adds	r3, r2, r0
 913 00c0 0A46     		mov	r2, r1
 914 00c2 83F8EC20 		strb	r2, [r3, #236]
 382:ioLIB/dhcp.c  **** 	pDHCPMSG->OPT[k++] = DHCP_CHADDR[1];
 915              		.loc 1 382 10
 916 00c6 2A4B     		ldr	r3, .L31+8
 917 00c8 1A68     		ldr	r2, [r3]
 918              		.loc 1 382 17
 919 00ca BB88     		ldrh	r3, [r7, #4]
 920 00cc 591C     		adds	r1, r3, #1
 921 00ce B980     		strh	r1, [r7, #4]	@ movhi
ARM GAS  C:\Users\clay0\AppData\Local\Temp\ccq2B2ZX.s 			page 23


 922 00d0 1846     		mov	r0, r3
 923              		.loc 1 382 34
 924 00d2 284B     		ldr	r3, .L31+12
 925 00d4 5978     		ldrb	r1, [r3, #1]	@ zero_extendqisi2
 926              		.loc 1 382 21
 927 00d6 1318     		adds	r3, r2, r0
 928 00d8 0A46     		mov	r2, r1
 929 00da 83F8EC20 		strb	r2, [r3, #236]
 383:ioLIB/dhcp.c  **** 	pDHCPMSG->OPT[k++] = DHCP_CHADDR[2];
 930              		.loc 1 383 10
 931 00de 244B     		ldr	r3, .L31+8
 932 00e0 1A68     		ldr	r2, [r3]
 933              		.loc 1 383 17
 934 00e2 BB88     		ldrh	r3, [r7, #4]
 935 00e4 591C     		adds	r1, r3, #1
 936 00e6 B980     		strh	r1, [r7, #4]	@ movhi
 937 00e8 1846     		mov	r0, r3
 938              		.loc 1 383 34
 939 00ea 224B     		ldr	r3, .L31+12
 940 00ec 9978     		ldrb	r1, [r3, #2]	@ zero_extendqisi2
 941              		.loc 1 383 21
 942 00ee 1318     		adds	r3, r2, r0
 943 00f0 0A46     		mov	r2, r1
 944 00f2 83F8EC20 		strb	r2, [r3, #236]
 384:ioLIB/dhcp.c  **** 	pDHCPMSG->OPT[k++] = DHCP_CHADDR[3];
 945              		.loc 1 384 10
 946 00f6 1E4B     		ldr	r3, .L31+8
 947 00f8 1A68     		ldr	r2, [r3]
 948              		.loc 1 384 17
 949 00fa BB88     		ldrh	r3, [r7, #4]
 950 00fc 591C     		adds	r1, r3, #1
 951 00fe B980     		strh	r1, [r7, #4]	@ movhi
 952 0100 1846     		mov	r0, r3
 953              		.loc 1 384 34
 954 0102 1C4B     		ldr	r3, .L31+12
 955 0104 D978     		ldrb	r1, [r3, #3]	@ zero_extendqisi2
 956              		.loc 1 384 21
 957 0106 1318     		adds	r3, r2, r0
 958 0108 0A46     		mov	r2, r1
 959 010a 83F8EC20 		strb	r2, [r3, #236]
 385:ioLIB/dhcp.c  **** 	pDHCPMSG->OPT[k++] = DHCP_CHADDR[4];
 960              		.loc 1 385 10
 961 010e 184B     		ldr	r3, .L31+8
 962 0110 1A68     		ldr	r2, [r3]
 963              		.loc 1 385 17
 964 0112 BB88     		ldrh	r3, [r7, #4]
 965 0114 591C     		adds	r1, r3, #1
 966 0116 B980     		strh	r1, [r7, #4]	@ movhi
 967 0118 1846     		mov	r0, r3
 968              		.loc 1 385 34
 969 011a 164B     		ldr	r3, .L31+12
 970 011c 1979     		ldrb	r1, [r3, #4]	@ zero_extendqisi2
 971              		.loc 1 385 21
 972 011e 1318     		adds	r3, r2, r0
 973 0120 0A46     		mov	r2, r1
 974 0122 83F8EC20 		strb	r2, [r3, #236]
 386:ioLIB/dhcp.c  **** 	pDHCPMSG->OPT[k++] = DHCP_CHADDR[5];
ARM GAS  C:\Users\clay0\AppData\Local\Temp\ccq2B2ZX.s 			page 24


 975              		.loc 1 386 10
 976 0126 124B     		ldr	r3, .L31+8
 977 0128 1A68     		ldr	r2, [r3]
 978              		.loc 1 386 17
 979 012a BB88     		ldrh	r3, [r7, #4]
 980 012c 591C     		adds	r1, r3, #1
 981 012e B980     		strh	r1, [r7, #4]	@ movhi
 982 0130 1846     		mov	r0, r3
 983              		.loc 1 386 34
 984 0132 104B     		ldr	r3, .L31+12
 985 0134 5979     		ldrb	r1, [r3, #5]	@ zero_extendqisi2
 986              		.loc 1 386 21
 987 0136 1318     		adds	r3, r2, r0
 988 0138 0A46     		mov	r2, r1
 989 013a 83F8EC20 		strb	r2, [r3, #236]
 387:ioLIB/dhcp.c  **** 	
 388:ioLIB/dhcp.c  **** 	// host name
 389:ioLIB/dhcp.c  **** 	pDHCPMSG->OPT[k++] = hostName;
 990              		.loc 1 389 10
 991 013e 0C4B     		ldr	r3, .L31+8
 992 0140 1A68     		ldr	r2, [r3]
 993              		.loc 1 389 17
 994 0142 BB88     		ldrh	r3, [r7, #4]
 995 0144 591C     		adds	r1, r3, #1
 996 0146 B980     		strh	r1, [r7, #4]	@ movhi
 997              		.loc 1 389 21
 998 0148 1344     		add	r3, r3, r2
 999 014a 0C22     		movs	r2, #12
 1000 014c 83F8EC20 		strb	r2, [r3, #236]
 390:ioLIB/dhcp.c  **** 	pDHCPMSG->OPT[k++] = 0;          // fill zero length of hostname 
 1001              		.loc 1 390 10
 1002 0150 074B     		ldr	r3, .L31+8
 1003 0152 1A68     		ldr	r2, [r3]
 1004              		.loc 1 390 17
 1005 0154 BB88     		ldrh	r3, [r7, #4]
 1006 0156 591C     		adds	r1, r3, #1
 1007 0158 B980     		strh	r1, [r7, #4]	@ movhi
 1008              		.loc 1 390 21
 1009 015a 1344     		add	r3, r3, r2
 1010 015c 0022     		movs	r2, #0
 1011 015e 83F8EC20 		strb	r2, [r3, #236]
 391:ioLIB/dhcp.c  **** 	for(i = 0 ; HOST_NAME[i] != 0; i++)
 1012              		.loc 1 391 8
 1013 0162 0023     		movs	r3, #0
 1014 0164 FB80     		strh	r3, [r7, #6]	@ movhi
 1015              		.loc 1 391 2
 1016 0166 17E0     		b	.L27
 1017              	.L32:
 1018              		.align	2
 1019              	.L31:
 1020 0168 00000000 		.word	DHCP_SIP
 1021 016c 00000000 		.word	DHCP_REAL_SIP
 1022 0170 00000000 		.word	pDHCPMSG
 1023 0174 00000000 		.word	DHCP_CHADDR
 1024              	.L28:
 392:ioLIB/dhcp.c  ****    	pDHCPMSG->OPT[k++] = HOST_NAME[i];
 1025              		.loc 1 392 35 discriminator 3
ARM GAS  C:\Users\clay0\AppData\Local\Temp\ccq2B2ZX.s 			page 25


 1026 0178 F988     		ldrh	r1, [r7, #6]
 1027              		.loc 1 392 13 discriminator 3
 1028 017a 804B     		ldr	r3, .L33
 1029 017c 1A68     		ldr	r2, [r3]
 1030              		.loc 1 392 20 discriminator 3
 1031 017e BB88     		ldrh	r3, [r7, #4]
 1032 0180 581C     		adds	r0, r3, #1
 1033 0182 B880     		strh	r0, [r7, #4]	@ movhi
 1034 0184 1846     		mov	r0, r3
 1035              		.loc 1 392 35 discriminator 3
 1036 0186 7E4B     		ldr	r3, .L33+4
 1037 0188 595C     		ldrb	r1, [r3, r1]	@ zero_extendqisi2
 1038              		.loc 1 392 24 discriminator 3
 1039 018a 1318     		adds	r3, r2, r0
 1040 018c 0A46     		mov	r2, r1
 1041 018e 83F8EC20 		strb	r2, [r3, #236]
 391:ioLIB/dhcp.c  **** 	for(i = 0 ; HOST_NAME[i] != 0; i++)
 1042              		.loc 1 391 34 discriminator 3
 1043 0192 FB88     		ldrh	r3, [r7, #6]
 1044 0194 0133     		adds	r3, r3, #1
 1045 0196 FB80     		strh	r3, [r7, #6]	@ movhi
 1046              	.L27:
 391:ioLIB/dhcp.c  **** 	for(i = 0 ; HOST_NAME[i] != 0; i++)
 1047              		.loc 1 391 23 discriminator 1
 1048 0198 FB88     		ldrh	r3, [r7, #6]
 1049 019a 794A     		ldr	r2, .L33+4
 1050 019c D35C     		ldrb	r3, [r2, r3]	@ zero_extendqisi2
 391:ioLIB/dhcp.c  **** 	for(i = 0 ; HOST_NAME[i] != 0; i++)
 1051              		.loc 1 391 2 discriminator 1
 1052 019e 002B     		cmp	r3, #0
 1053 01a0 EAD1     		bne	.L28
 393:ioLIB/dhcp.c  **** 	pDHCPMSG->OPT[k++] = NibbleToHex(DHCP_CHADDR[3] >> 4);
 1054              		.loc 1 393 46
 1055 01a2 784B     		ldr	r3, .L33+8
 1056 01a4 DB78     		ldrb	r3, [r3, #3]	@ zero_extendqisi2
 1057              		.loc 1 393 23
 1058 01a6 1B09     		lsrs	r3, r3, #4
 1059 01a8 DAB2     		uxtb	r2, r3
 1060              		.loc 1 393 10
 1061 01aa 744B     		ldr	r3, .L33
 1062 01ac 1C68     		ldr	r4, [r3]
 1063              		.loc 1 393 17
 1064 01ae BB88     		ldrh	r3, [r7, #4]
 1065 01b0 591C     		adds	r1, r3, #1
 1066 01b2 B980     		strh	r1, [r7, #4]	@ movhi
 1067 01b4 1D46     		mov	r5, r3
 1068              		.loc 1 393 23
 1069 01b6 1046     		mov	r0, r2
 1070 01b8 FFF7FEFF 		bl	NibbleToHex
 1071 01bc 0346     		mov	r3, r0
 1072 01be 1A46     		mov	r2, r3
 1073              		.loc 1 393 21
 1074 01c0 6319     		adds	r3, r4, r5
 1075 01c2 83F8EC20 		strb	r2, [r3, #236]
 394:ioLIB/dhcp.c  **** 	pDHCPMSG->OPT[k++] = NibbleToHex(DHCP_CHADDR[3]);
 1076              		.loc 1 394 23
 1077 01c6 6F4B     		ldr	r3, .L33+8
ARM GAS  C:\Users\clay0\AppData\Local\Temp\ccq2B2ZX.s 			page 26


 1078 01c8 DA78     		ldrb	r2, [r3, #3]	@ zero_extendqisi2
 1079              		.loc 1 394 10
 1080 01ca 6C4B     		ldr	r3, .L33
 1081 01cc 1C68     		ldr	r4, [r3]
 1082              		.loc 1 394 17
 1083 01ce BB88     		ldrh	r3, [r7, #4]
 1084 01d0 591C     		adds	r1, r3, #1
 1085 01d2 B980     		strh	r1, [r7, #4]	@ movhi
 1086 01d4 1D46     		mov	r5, r3
 1087              		.loc 1 394 23
 1088 01d6 1046     		mov	r0, r2
 1089 01d8 FFF7FEFF 		bl	NibbleToHex
 1090 01dc 0346     		mov	r3, r0
 1091 01de 1A46     		mov	r2, r3
 1092              		.loc 1 394 21
 1093 01e0 6319     		adds	r3, r4, r5
 1094 01e2 83F8EC20 		strb	r2, [r3, #236]
 395:ioLIB/dhcp.c  **** 	pDHCPMSG->OPT[k++] = NibbleToHex(DHCP_CHADDR[4] >> 4);
 1095              		.loc 1 395 46
 1096 01e6 674B     		ldr	r3, .L33+8
 1097 01e8 1B79     		ldrb	r3, [r3, #4]	@ zero_extendqisi2
 1098              		.loc 1 395 23
 1099 01ea 1B09     		lsrs	r3, r3, #4
 1100 01ec DAB2     		uxtb	r2, r3
 1101              		.loc 1 395 10
 1102 01ee 634B     		ldr	r3, .L33
 1103 01f0 1C68     		ldr	r4, [r3]
 1104              		.loc 1 395 17
 1105 01f2 BB88     		ldrh	r3, [r7, #4]
 1106 01f4 591C     		adds	r1, r3, #1
 1107 01f6 B980     		strh	r1, [r7, #4]	@ movhi
 1108 01f8 1D46     		mov	r5, r3
 1109              		.loc 1 395 23
 1110 01fa 1046     		mov	r0, r2
 1111 01fc FFF7FEFF 		bl	NibbleToHex
 1112 0200 0346     		mov	r3, r0
 1113 0202 1A46     		mov	r2, r3
 1114              		.loc 1 395 21
 1115 0204 6319     		adds	r3, r4, r5
 1116 0206 83F8EC20 		strb	r2, [r3, #236]
 396:ioLIB/dhcp.c  **** 	pDHCPMSG->OPT[k++] = NibbleToHex(DHCP_CHADDR[4]);
 1117              		.loc 1 396 23
 1118 020a 5E4B     		ldr	r3, .L33+8
 1119 020c 1A79     		ldrb	r2, [r3, #4]	@ zero_extendqisi2
 1120              		.loc 1 396 10
 1121 020e 5B4B     		ldr	r3, .L33
 1122 0210 1C68     		ldr	r4, [r3]
 1123              		.loc 1 396 17
 1124 0212 BB88     		ldrh	r3, [r7, #4]
 1125 0214 591C     		adds	r1, r3, #1
 1126 0216 B980     		strh	r1, [r7, #4]	@ movhi
 1127 0218 1D46     		mov	r5, r3
 1128              		.loc 1 396 23
 1129 021a 1046     		mov	r0, r2
 1130 021c FFF7FEFF 		bl	NibbleToHex
 1131 0220 0346     		mov	r3, r0
 1132 0222 1A46     		mov	r2, r3
ARM GAS  C:\Users\clay0\AppData\Local\Temp\ccq2B2ZX.s 			page 27


 1133              		.loc 1 396 21
 1134 0224 6319     		adds	r3, r4, r5
 1135 0226 83F8EC20 		strb	r2, [r3, #236]
 397:ioLIB/dhcp.c  **** 	pDHCPMSG->OPT[k++] = NibbleToHex(DHCP_CHADDR[5] >> 4);
 1136              		.loc 1 397 46
 1137 022a 564B     		ldr	r3, .L33+8
 1138 022c 5B79     		ldrb	r3, [r3, #5]	@ zero_extendqisi2
 1139              		.loc 1 397 23
 1140 022e 1B09     		lsrs	r3, r3, #4
 1141 0230 DAB2     		uxtb	r2, r3
 1142              		.loc 1 397 10
 1143 0232 524B     		ldr	r3, .L33
 1144 0234 1C68     		ldr	r4, [r3]
 1145              		.loc 1 397 17
 1146 0236 BB88     		ldrh	r3, [r7, #4]
 1147 0238 591C     		adds	r1, r3, #1
 1148 023a B980     		strh	r1, [r7, #4]	@ movhi
 1149 023c 1D46     		mov	r5, r3
 1150              		.loc 1 397 23
 1151 023e 1046     		mov	r0, r2
 1152 0240 FFF7FEFF 		bl	NibbleToHex
 1153 0244 0346     		mov	r3, r0
 1154 0246 1A46     		mov	r2, r3
 1155              		.loc 1 397 21
 1156 0248 6319     		adds	r3, r4, r5
 1157 024a 83F8EC20 		strb	r2, [r3, #236]
 398:ioLIB/dhcp.c  **** 	pDHCPMSG->OPT[k++] = NibbleToHex(DHCP_CHADDR[5]);
 1158              		.loc 1 398 23
 1159 024e 4D4B     		ldr	r3, .L33+8
 1160 0250 5A79     		ldrb	r2, [r3, #5]	@ zero_extendqisi2
 1161              		.loc 1 398 10
 1162 0252 4A4B     		ldr	r3, .L33
 1163 0254 1C68     		ldr	r4, [r3]
 1164              		.loc 1 398 17
 1165 0256 BB88     		ldrh	r3, [r7, #4]
 1166 0258 591C     		adds	r1, r3, #1
 1167 025a B980     		strh	r1, [r7, #4]	@ movhi
 1168 025c 1D46     		mov	r5, r3
 1169              		.loc 1 398 23
 1170 025e 1046     		mov	r0, r2
 1171 0260 FFF7FEFF 		bl	NibbleToHex
 1172 0264 0346     		mov	r3, r0
 1173 0266 1A46     		mov	r2, r3
 1174              		.loc 1 398 21
 1175 0268 6319     		adds	r3, r4, r5
 1176 026a 83F8EC20 		strb	r2, [r3, #236]
 399:ioLIB/dhcp.c  **** 	pDHCPMSG->OPT[k - (i+6+1)] = i+6; // length of hostname
 1177              		.loc 1 399 32
 1178 026e FB88     		ldrh	r3, [r7, #6]	@ movhi
 1179 0270 D9B2     		uxtb	r1, r3
 1180              		.loc 1 399 10
 1181 0272 424B     		ldr	r3, .L33
 1182 0274 1A68     		ldr	r2, [r3]
 1183              		.loc 1 399 18
 1184 0276 B888     		ldrh	r0, [r7, #4]
 1185              		.loc 1 399 24
 1186 0278 FB88     		ldrh	r3, [r7, #6]
ARM GAS  C:\Users\clay0\AppData\Local\Temp\ccq2B2ZX.s 			page 28


 1187 027a 0733     		adds	r3, r3, #7
 1188              		.loc 1 399 18
 1189 027c C31A     		subs	r3, r0, r3
 1190              		.loc 1 399 32
 1191 027e 0631     		adds	r1, r1, #6
 1192 0280 C9B2     		uxtb	r1, r1
 1193              		.loc 1 399 29
 1194 0282 1344     		add	r3, r3, r2
 1195 0284 0A46     		mov	r2, r1
 1196 0286 83F8EC20 		strb	r2, [r3, #236]
 400:ioLIB/dhcp.c  **** 
 401:ioLIB/dhcp.c  **** 	pDHCPMSG->OPT[k++] = dhcpParamRequest;
 1197              		.loc 1 401 10
 1198 028a 3C4B     		ldr	r3, .L33
 1199 028c 1A68     		ldr	r2, [r3]
 1200              		.loc 1 401 17
 1201 028e BB88     		ldrh	r3, [r7, #4]
 1202 0290 591C     		adds	r1, r3, #1
 1203 0292 B980     		strh	r1, [r7, #4]	@ movhi
 1204              		.loc 1 401 21
 1205 0294 1344     		add	r3, r3, r2
 1206 0296 3722     		movs	r2, #55
 1207 0298 83F8EC20 		strb	r2, [r3, #236]
 402:ioLIB/dhcp.c  **** 	pDHCPMSG->OPT[k++] = 0x06;	// length of request
 1208              		.loc 1 402 10
 1209 029c 374B     		ldr	r3, .L33
 1210 029e 1A68     		ldr	r2, [r3]
 1211              		.loc 1 402 17
 1212 02a0 BB88     		ldrh	r3, [r7, #4]
 1213 02a2 591C     		adds	r1, r3, #1
 1214 02a4 B980     		strh	r1, [r7, #4]	@ movhi
 1215              		.loc 1 402 21
 1216 02a6 1344     		add	r3, r3, r2
 1217 02a8 0622     		movs	r2, #6
 1218 02aa 83F8EC20 		strb	r2, [r3, #236]
 403:ioLIB/dhcp.c  **** 	pDHCPMSG->OPT[k++] = subnetMask;
 1219              		.loc 1 403 10
 1220 02ae 334B     		ldr	r3, .L33
 1221 02b0 1A68     		ldr	r2, [r3]
 1222              		.loc 1 403 17
 1223 02b2 BB88     		ldrh	r3, [r7, #4]
 1224 02b4 591C     		adds	r1, r3, #1
 1225 02b6 B980     		strh	r1, [r7, #4]	@ movhi
 1226              		.loc 1 403 21
 1227 02b8 1344     		add	r3, r3, r2
 1228 02ba 0122     		movs	r2, #1
 1229 02bc 83F8EC20 		strb	r2, [r3, #236]
 404:ioLIB/dhcp.c  **** 	pDHCPMSG->OPT[k++] = routersOnSubnet;
 1230              		.loc 1 404 10
 1231 02c0 2E4B     		ldr	r3, .L33
 1232 02c2 1A68     		ldr	r2, [r3]
 1233              		.loc 1 404 17
 1234 02c4 BB88     		ldrh	r3, [r7, #4]
 1235 02c6 591C     		adds	r1, r3, #1
 1236 02c8 B980     		strh	r1, [r7, #4]	@ movhi
 1237              		.loc 1 404 21
 1238 02ca 1344     		add	r3, r3, r2
ARM GAS  C:\Users\clay0\AppData\Local\Temp\ccq2B2ZX.s 			page 29


 1239 02cc 0322     		movs	r2, #3
 1240 02ce 83F8EC20 		strb	r2, [r3, #236]
 405:ioLIB/dhcp.c  **** 	pDHCPMSG->OPT[k++] = dns;
 1241              		.loc 1 405 10
 1242 02d2 2A4B     		ldr	r3, .L33
 1243 02d4 1A68     		ldr	r2, [r3]
 1244              		.loc 1 405 17
 1245 02d6 BB88     		ldrh	r3, [r7, #4]
 1246 02d8 591C     		adds	r1, r3, #1
 1247 02da B980     		strh	r1, [r7, #4]	@ movhi
 1248              		.loc 1 405 21
 1249 02dc 1344     		add	r3, r3, r2
 1250 02de 0622     		movs	r2, #6
 1251 02e0 83F8EC20 		strb	r2, [r3, #236]
 406:ioLIB/dhcp.c  **** 	pDHCPMSG->OPT[k++] = domainName;
 1252              		.loc 1 406 10
 1253 02e4 254B     		ldr	r3, .L33
 1254 02e6 1A68     		ldr	r2, [r3]
 1255              		.loc 1 406 17
 1256 02e8 BB88     		ldrh	r3, [r7, #4]
 1257 02ea 591C     		adds	r1, r3, #1
 1258 02ec B980     		strh	r1, [r7, #4]	@ movhi
 1259              		.loc 1 406 21
 1260 02ee 1344     		add	r3, r3, r2
 1261 02f0 0F22     		movs	r2, #15
 1262 02f2 83F8EC20 		strb	r2, [r3, #236]
 407:ioLIB/dhcp.c  **** 	pDHCPMSG->OPT[k++] = dhcpT1value;
 1263              		.loc 1 407 10
 1264 02f6 214B     		ldr	r3, .L33
 1265 02f8 1A68     		ldr	r2, [r3]
 1266              		.loc 1 407 17
 1267 02fa BB88     		ldrh	r3, [r7, #4]
 1268 02fc 591C     		adds	r1, r3, #1
 1269 02fe B980     		strh	r1, [r7, #4]	@ movhi
 1270              		.loc 1 407 21
 1271 0300 1344     		add	r3, r3, r2
 1272 0302 3A22     		movs	r2, #58
 1273 0304 83F8EC20 		strb	r2, [r3, #236]
 408:ioLIB/dhcp.c  **** 	pDHCPMSG->OPT[k++] = dhcpT2value;
 1274              		.loc 1 408 10
 1275 0308 1C4B     		ldr	r3, .L33
 1276 030a 1A68     		ldr	r2, [r3]
 1277              		.loc 1 408 17
 1278 030c BB88     		ldrh	r3, [r7, #4]
 1279 030e 591C     		adds	r1, r3, #1
 1280 0310 B980     		strh	r1, [r7, #4]	@ movhi
 1281              		.loc 1 408 21
 1282 0312 1344     		add	r3, r3, r2
 1283 0314 3B22     		movs	r2, #59
 1284 0316 83F8EC20 		strb	r2, [r3, #236]
 409:ioLIB/dhcp.c  **** 	pDHCPMSG->OPT[k++] = endOption;
 1285              		.loc 1 409 10
 1286 031a 184B     		ldr	r3, .L33
 1287 031c 1A68     		ldr	r2, [r3]
 1288              		.loc 1 409 17
 1289 031e BB88     		ldrh	r3, [r7, #4]
 1290 0320 591C     		adds	r1, r3, #1
ARM GAS  C:\Users\clay0\AppData\Local\Temp\ccq2B2ZX.s 			page 30


 1291 0322 B980     		strh	r1, [r7, #4]	@ movhi
 1292              		.loc 1 409 21
 1293 0324 1344     		add	r3, r3, r2
 1294 0326 FF22     		movs	r2, #255
 1295 0328 83F8EC20 		strb	r2, [r3, #236]
 410:ioLIB/dhcp.c  **** 
 411:ioLIB/dhcp.c  **** 	for (i = k; i < OPT_SIZE; i++) pDHCPMSG->OPT[i] = 0;
 1296              		.loc 1 411 9
 1297 032c BB88     		ldrh	r3, [r7, #4]	@ movhi
 1298 032e FB80     		strh	r3, [r7, #6]	@ movhi
 1299              		.loc 1 411 2
 1300 0330 09E0     		b	.L29
 1301              	.L30:
 1302              		.loc 1 411 41 discriminator 3
 1303 0332 124B     		ldr	r3, .L33
 1304 0334 1A68     		ldr	r2, [r3]
 1305              		.loc 1 411 46 discriminator 3
 1306 0336 FB88     		ldrh	r3, [r7, #6]
 1307              		.loc 1 411 50 discriminator 3
 1308 0338 1344     		add	r3, r3, r2
 1309 033a 0022     		movs	r2, #0
 1310 033c 83F8EC20 		strb	r2, [r3, #236]
 1311              		.loc 1 411 29 discriminator 3
 1312 0340 FB88     		ldrh	r3, [r7, #6]
 1313 0342 0133     		adds	r3, r3, #1
 1314 0344 FB80     		strh	r3, [r7, #6]	@ movhi
 1315              	.L29:
 1316              		.loc 1 411 2 discriminator 1
 1317 0346 FB88     		ldrh	r3, [r7, #6]
 1318 0348 B3F59C7F 		cmp	r3, #312
 1319 034c F1D3     		bcc	.L30
 412:ioLIB/dhcp.c  **** 
 413:ioLIB/dhcp.c  **** 	// send broadcasting packet
 414:ioLIB/dhcp.c  **** 	ip[0] = 255;
 1320              		.loc 1 414 8
 1321 034e FF23     		movs	r3, #255
 1322 0350 3B70     		strb	r3, [r7]
 415:ioLIB/dhcp.c  **** 	ip[1] = 255;
 1323              		.loc 1 415 8
 1324 0352 FF23     		movs	r3, #255
 1325 0354 7B70     		strb	r3, [r7, #1]
 416:ioLIB/dhcp.c  **** 	ip[2] = 255;
 1326              		.loc 1 416 8
 1327 0356 FF23     		movs	r3, #255
 1328 0358 BB70     		strb	r3, [r7, #2]
 417:ioLIB/dhcp.c  **** 	ip[3] = 255;
 1329              		.loc 1 417 8
 1330 035a FF23     		movs	r3, #255
 1331 035c FB70     		strb	r3, [r7, #3]
 418:ioLIB/dhcp.c  **** 
 419:ioLIB/dhcp.c  **** #ifdef _DHCP_DEBUG_
 420:ioLIB/dhcp.c  **** 	printf("> Send DHCP_DISCOVER\r\n");
 421:ioLIB/dhcp.c  **** #endif
 422:ioLIB/dhcp.c  **** 
 423:ioLIB/dhcp.c  **** 	sendto(DHCP_SOCKET, (uint8_t *)pDHCPMSG, RIP_MSG_SIZE, ip, DHCP_SERVER_PORT);
 1332              		.loc 1 423 2
 1333 035e 0A4B     		ldr	r3, .L33+12
ARM GAS  C:\Users\clay0\AppData\Local\Temp\ccq2B2ZX.s 			page 31


 1334 0360 1878     		ldrb	r0, [r3]	@ zero_extendqisi2
 1335 0362 064B     		ldr	r3, .L33
 1336 0364 1968     		ldr	r1, [r3]
 1337 0366 3B46     		mov	r3, r7
 1338 0368 4322     		movs	r2, #67
 1339 036a 0092     		str	r2, [sp]
 1340 036c 4FF40972 		mov	r2, #548
 1341 0370 FFF7FEFF 		bl	sendto
 424:ioLIB/dhcp.c  **** }
 1342              		.loc 1 424 1
 1343 0374 00BF     		nop
 1344 0376 0837     		adds	r7, r7, #8
 1345              	.LCFI20:
 1346              		.cfi_def_cfa_offset 16
 1347 0378 BD46     		mov	sp, r7
 1348              	.LCFI21:
 1349              		.cfi_def_cfa_register 13
 1350              		@ sp needed
 1351 037a B0BD     		pop	{r4, r5, r7, pc}
 1352              	.L34:
 1353              		.align	2
 1354              	.L33:
 1355 037c 00000000 		.word	pDHCPMSG
 1356 0380 00000000 		.word	HOST_NAME
 1357 0384 00000000 		.word	DHCP_CHADDR
 1358 0388 00000000 		.word	DHCP_SOCKET
 1359              		.cfi_endproc
 1360              	.LFE5:
 1362              		.section	.text.send_DHCP_REQUEST,"ax",%progbits
 1363              		.align	1
 1364              		.global	send_DHCP_REQUEST
 1365              		.syntax unified
 1366              		.thumb
 1367              		.thumb_func
 1369              	send_DHCP_REQUEST:
 1370              	.LFB6:
 425:ioLIB/dhcp.c  **** 
 426:ioLIB/dhcp.c  **** /* SEND DHCP REQUEST */
 427:ioLIB/dhcp.c  **** void send_DHCP_REQUEST(void)
 428:ioLIB/dhcp.c  **** {
 1371              		.loc 1 428 1
 1372              		.cfi_startproc
 1373              		@ args = 0, pretend = 0, frame = 16
 1374              		@ frame_needed = 1, uses_anonymous_args = 0
 1375 0000 B0B5     		push	{r4, r5, r7, lr}
 1376              	.LCFI22:
 1377              		.cfi_def_cfa_offset 16
 1378              		.cfi_offset 4, -16
 1379              		.cfi_offset 5, -12
 1380              		.cfi_offset 7, -8
 1381              		.cfi_offset 14, -4
 1382 0002 86B0     		sub	sp, sp, #24
 1383              	.LCFI23:
 1384              		.cfi_def_cfa_offset 40
 1385 0004 02AF     		add	r7, sp, #8
 1386              	.LCFI24:
 1387              		.cfi_def_cfa 7, 32
ARM GAS  C:\Users\clay0\AppData\Local\Temp\ccq2B2ZX.s 			page 32


 429:ioLIB/dhcp.c  **** 	int i;
 430:ioLIB/dhcp.c  **** 	uint8_t ip[4];
 431:ioLIB/dhcp.c  **** 	uint16_t k = 0;
 1388              		.loc 1 431 11
 1389 0006 0023     		movs	r3, #0
 1390 0008 7B81     		strh	r3, [r7, #10]	@ movhi
 432:ioLIB/dhcp.c  **** 
 433:ioLIB/dhcp.c  ****    makeDHCPMSG();
 1391              		.loc 1 433 4
 1392 000a FFF7FEFF 		bl	makeDHCPMSG
 434:ioLIB/dhcp.c  **** 
 435:ioLIB/dhcp.c  ****    if(dhcp_state == STATE_DHCP_LEASED || dhcp_state == STATE_DHCP_REREQUEST)
 1393              		.loc 1 435 18
 1394 000e 1B4B     		ldr	r3, .L44
 1395 0010 93F90030 		ldrsb	r3, [r3]
 1396              		.loc 1 435 6
 1397 0014 032B     		cmp	r3, #3
 1398 0016 04D0     		beq	.L36
 1399              		.loc 1 435 53 discriminator 1
 1400 0018 184B     		ldr	r3, .L44
 1401 001a 93F90030 		ldrsb	r3, [r3]
 1402              		.loc 1 435 39 discriminator 1
 1403 001e 042B     		cmp	r3, #4
 1404 0020 34D1     		bne	.L37
 1405              	.L36:
 436:ioLIB/dhcp.c  ****    {
 437:ioLIB/dhcp.c  ****    	*((uint8_t*)(&pDHCPMSG->flags))   = ((DHCP_FLAGSUNICAST & 0xFF00)>> 8);
 1406              		.loc 1 437 27
 1407 0022 174B     		ldr	r3, .L44+4
 1408 0024 1B68     		ldr	r3, [r3]
 1409              		.loc 1 437 18
 1410 0026 0A33     		adds	r3, r3, #10
 1411              		.loc 1 437 39
 1412 0028 0022     		movs	r2, #0
 1413 002a 1A70     		strb	r2, [r3]
 438:ioLIB/dhcp.c  ****    	*((uint8_t*)(&pDHCPMSG->flags)+1) = (DHCP_FLAGSUNICAST & 0x00FF);
 1414              		.loc 1 438 27
 1415 002c 144B     		ldr	r3, .L44+4
 1416 002e 1B68     		ldr	r3, [r3]
 1417              		.loc 1 438 18
 1418 0030 0A33     		adds	r3, r3, #10
 1419              		.loc 1 438 35
 1420 0032 0133     		adds	r3, r3, #1
 1421              		.loc 1 438 39
 1422 0034 0022     		movs	r2, #0
 1423 0036 1A70     		strb	r2, [r3]
 439:ioLIB/dhcp.c  ****    	pDHCPMSG->ciaddr[0] = DHCP_allocated_ip[0];
 1424              		.loc 1 439 13
 1425 0038 114B     		ldr	r3, .L44+4
 1426 003a 1B68     		ldr	r3, [r3]
 1427              		.loc 1 439 44
 1428 003c 114A     		ldr	r2, .L44+8
 1429 003e 1278     		ldrb	r2, [r2]	@ zero_extendqisi2
 1430              		.loc 1 439 25
 1431 0040 1A73     		strb	r2, [r3, #12]
 440:ioLIB/dhcp.c  ****    	pDHCPMSG->ciaddr[1] = DHCP_allocated_ip[1];
 1432              		.loc 1 440 13
ARM GAS  C:\Users\clay0\AppData\Local\Temp\ccq2B2ZX.s 			page 33


 1433 0042 0F4B     		ldr	r3, .L44+4
 1434 0044 1B68     		ldr	r3, [r3]
 1435              		.loc 1 440 44
 1436 0046 0F4A     		ldr	r2, .L44+8
 1437 0048 5278     		ldrb	r2, [r2, #1]	@ zero_extendqisi2
 1438              		.loc 1 440 25
 1439 004a 5A73     		strb	r2, [r3, #13]
 441:ioLIB/dhcp.c  ****    	pDHCPMSG->ciaddr[2] = DHCP_allocated_ip[2];
 1440              		.loc 1 441 13
 1441 004c 0C4B     		ldr	r3, .L44+4
 1442 004e 1B68     		ldr	r3, [r3]
 1443              		.loc 1 441 44
 1444 0050 0C4A     		ldr	r2, .L44+8
 1445 0052 9278     		ldrb	r2, [r2, #2]	@ zero_extendqisi2
 1446              		.loc 1 441 25
 1447 0054 9A73     		strb	r2, [r3, #14]
 442:ioLIB/dhcp.c  ****    	pDHCPMSG->ciaddr[3] = DHCP_allocated_ip[3];
 1448              		.loc 1 442 13
 1449 0056 0A4B     		ldr	r3, .L44+4
 1450 0058 1B68     		ldr	r3, [r3]
 1451              		.loc 1 442 44
 1452 005a 0A4A     		ldr	r2, .L44+8
 1453 005c D278     		ldrb	r2, [r2, #3]	@ zero_extendqisi2
 1454              		.loc 1 442 25
 1455 005e DA73     		strb	r2, [r3, #15]
 443:ioLIB/dhcp.c  ****    	ip[0] = DHCP_SIP[0];
 1456              		.loc 1 443 21
 1457 0060 094B     		ldr	r3, .L44+12
 1458 0062 1B78     		ldrb	r3, [r3]	@ zero_extendqisi2
 1459              		.loc 1 443 11
 1460 0064 3B71     		strb	r3, [r7, #4]
 444:ioLIB/dhcp.c  ****    	ip[1] = DHCP_SIP[1];
 1461              		.loc 1 444 21
 1462 0066 084B     		ldr	r3, .L44+12
 1463 0068 5B78     		ldrb	r3, [r3, #1]	@ zero_extendqisi2
 1464              		.loc 1 444 11
 1465 006a 7B71     		strb	r3, [r7, #5]
 445:ioLIB/dhcp.c  ****    	ip[2] = DHCP_SIP[2];
 1466              		.loc 1 445 21
 1467 006c 064B     		ldr	r3, .L44+12
 1468 006e 9B78     		ldrb	r3, [r3, #2]	@ zero_extendqisi2
 1469              		.loc 1 445 11
 1470 0070 BB71     		strb	r3, [r7, #6]
 446:ioLIB/dhcp.c  ****    	ip[3] = DHCP_SIP[3];   	   	   	
 1471              		.loc 1 446 21
 1472 0072 054B     		ldr	r3, .L44+12
 1473 0074 DB78     		ldrb	r3, [r3, #3]	@ zero_extendqisi2
 1474              		.loc 1 446 11
 1475 0076 FB71     		strb	r3, [r7, #7]
 1476 0078 10E0     		b	.L38
 1477              	.L45:
 1478 007a 00BF     		.align	2
 1479              	.L44:
 1480 007c 00000000 		.word	dhcp_state
 1481 0080 00000000 		.word	pDHCPMSG
 1482 0084 00000000 		.word	DHCP_allocated_ip
 1483 0088 00000000 		.word	DHCP_SIP
ARM GAS  C:\Users\clay0\AppData\Local\Temp\ccq2B2ZX.s 			page 34


 1484              	.L37:
 447:ioLIB/dhcp.c  ****    }
 448:ioLIB/dhcp.c  ****    else
 449:ioLIB/dhcp.c  ****    {
 450:ioLIB/dhcp.c  ****    	ip[0] = 255;
 1485              		.loc 1 450 11
 1486 008c FF23     		movs	r3, #255
 1487 008e 3B71     		strb	r3, [r7, #4]
 451:ioLIB/dhcp.c  ****    	ip[1] = 255;
 1488              		.loc 1 451 11
 1489 0090 FF23     		movs	r3, #255
 1490 0092 7B71     		strb	r3, [r7, #5]
 452:ioLIB/dhcp.c  ****    	ip[2] = 255;
 1491              		.loc 1 452 11
 1492 0094 FF23     		movs	r3, #255
 1493 0096 BB71     		strb	r3, [r7, #6]
 453:ioLIB/dhcp.c  ****    	ip[3] = 255;   	   	   	
 1494              		.loc 1 453 11
 1495 0098 FF23     		movs	r3, #255
 1496 009a FB71     		strb	r3, [r7, #7]
 1497              	.L38:
 454:ioLIB/dhcp.c  ****    }
 455:ioLIB/dhcp.c  ****    
 456:ioLIB/dhcp.c  ****    k = 4;      // because MAGIC_COOKIE already made by makeDHCPMSG()
 1498              		.loc 1 456 6
 1499 009c 0423     		movs	r3, #4
 1500 009e 7B81     		strh	r3, [r7, #10]	@ movhi
 457:ioLIB/dhcp.c  **** 	
 458:ioLIB/dhcp.c  **** 	// Option Request Param.
 459:ioLIB/dhcp.c  **** 	pDHCPMSG->OPT[k++] = dhcpMessageType;
 1501              		.loc 1 459 10
 1502 00a0 8D4B     		ldr	r3, .L46
 1503 00a2 1A68     		ldr	r2, [r3]
 1504              		.loc 1 459 17
 1505 00a4 7B89     		ldrh	r3, [r7, #10]
 1506 00a6 591C     		adds	r1, r3, #1
 1507 00a8 7981     		strh	r1, [r7, #10]	@ movhi
 1508              		.loc 1 459 21
 1509 00aa 1344     		add	r3, r3, r2
 1510 00ac 3522     		movs	r2, #53
 1511 00ae 83F8EC20 		strb	r2, [r3, #236]
 460:ioLIB/dhcp.c  **** 	pDHCPMSG->OPT[k++] = 0x01;
 1512              		.loc 1 460 10
 1513 00b2 894B     		ldr	r3, .L46
 1514 00b4 1A68     		ldr	r2, [r3]
 1515              		.loc 1 460 17
 1516 00b6 7B89     		ldrh	r3, [r7, #10]
 1517 00b8 591C     		adds	r1, r3, #1
 1518 00ba 7981     		strh	r1, [r7, #10]	@ movhi
 1519              		.loc 1 460 21
 1520 00bc 1344     		add	r3, r3, r2
 1521 00be 0122     		movs	r2, #1
 1522 00c0 83F8EC20 		strb	r2, [r3, #236]
 461:ioLIB/dhcp.c  **** 	pDHCPMSG->OPT[k++] = DHCP_REQUEST;
 1523              		.loc 1 461 10
 1524 00c4 844B     		ldr	r3, .L46
 1525 00c6 1A68     		ldr	r2, [r3]
ARM GAS  C:\Users\clay0\AppData\Local\Temp\ccq2B2ZX.s 			page 35


 1526              		.loc 1 461 17
 1527 00c8 7B89     		ldrh	r3, [r7, #10]
 1528 00ca 591C     		adds	r1, r3, #1
 1529 00cc 7981     		strh	r1, [r7, #10]	@ movhi
 1530              		.loc 1 461 21
 1531 00ce 1344     		add	r3, r3, r2
 1532 00d0 0322     		movs	r2, #3
 1533 00d2 83F8EC20 		strb	r2, [r3, #236]
 462:ioLIB/dhcp.c  **** 
 463:ioLIB/dhcp.c  **** 	pDHCPMSG->OPT[k++] = dhcpClientIdentifier;
 1534              		.loc 1 463 10
 1535 00d6 804B     		ldr	r3, .L46
 1536 00d8 1A68     		ldr	r2, [r3]
 1537              		.loc 1 463 17
 1538 00da 7B89     		ldrh	r3, [r7, #10]
 1539 00dc 591C     		adds	r1, r3, #1
 1540 00de 7981     		strh	r1, [r7, #10]	@ movhi
 1541              		.loc 1 463 21
 1542 00e0 1344     		add	r3, r3, r2
 1543 00e2 3D22     		movs	r2, #61
 1544 00e4 83F8EC20 		strb	r2, [r3, #236]
 464:ioLIB/dhcp.c  **** 	pDHCPMSG->OPT[k++] = 0x07;
 1545              		.loc 1 464 10
 1546 00e8 7B4B     		ldr	r3, .L46
 1547 00ea 1A68     		ldr	r2, [r3]
 1548              		.loc 1 464 17
 1549 00ec 7B89     		ldrh	r3, [r7, #10]
 1550 00ee 591C     		adds	r1, r3, #1
 1551 00f0 7981     		strh	r1, [r7, #10]	@ movhi
 1552              		.loc 1 464 21
 1553 00f2 1344     		add	r3, r3, r2
 1554 00f4 0722     		movs	r2, #7
 1555 00f6 83F8EC20 		strb	r2, [r3, #236]
 465:ioLIB/dhcp.c  **** 	pDHCPMSG->OPT[k++] = 0x01;
 1556              		.loc 1 465 10
 1557 00fa 774B     		ldr	r3, .L46
 1558 00fc 1A68     		ldr	r2, [r3]
 1559              		.loc 1 465 17
 1560 00fe 7B89     		ldrh	r3, [r7, #10]
 1561 0100 591C     		adds	r1, r3, #1
 1562 0102 7981     		strh	r1, [r7, #10]	@ movhi
 1563              		.loc 1 465 21
 1564 0104 1344     		add	r3, r3, r2
 1565 0106 0122     		movs	r2, #1
 1566 0108 83F8EC20 		strb	r2, [r3, #236]
 466:ioLIB/dhcp.c  **** 	pDHCPMSG->OPT[k++] = DHCP_CHADDR[0];
 1567              		.loc 1 466 10
 1568 010c 724B     		ldr	r3, .L46
 1569 010e 1A68     		ldr	r2, [r3]
 1570              		.loc 1 466 17
 1571 0110 7B89     		ldrh	r3, [r7, #10]
 1572 0112 591C     		adds	r1, r3, #1
 1573 0114 7981     		strh	r1, [r7, #10]	@ movhi
 1574 0116 1846     		mov	r0, r3
 1575              		.loc 1 466 34
 1576 0118 704B     		ldr	r3, .L46+4
 1577 011a 1978     		ldrb	r1, [r3]	@ zero_extendqisi2
ARM GAS  C:\Users\clay0\AppData\Local\Temp\ccq2B2ZX.s 			page 36


 1578              		.loc 1 466 21
 1579 011c 1318     		adds	r3, r2, r0
 1580 011e 0A46     		mov	r2, r1
 1581 0120 83F8EC20 		strb	r2, [r3, #236]
 467:ioLIB/dhcp.c  **** 	pDHCPMSG->OPT[k++] = DHCP_CHADDR[1];
 1582              		.loc 1 467 10
 1583 0124 6C4B     		ldr	r3, .L46
 1584 0126 1A68     		ldr	r2, [r3]
 1585              		.loc 1 467 17
 1586 0128 7B89     		ldrh	r3, [r7, #10]
 1587 012a 591C     		adds	r1, r3, #1
 1588 012c 7981     		strh	r1, [r7, #10]	@ movhi
 1589 012e 1846     		mov	r0, r3
 1590              		.loc 1 467 34
 1591 0130 6A4B     		ldr	r3, .L46+4
 1592 0132 5978     		ldrb	r1, [r3, #1]	@ zero_extendqisi2
 1593              		.loc 1 467 21
 1594 0134 1318     		adds	r3, r2, r0
 1595 0136 0A46     		mov	r2, r1
 1596 0138 83F8EC20 		strb	r2, [r3, #236]
 468:ioLIB/dhcp.c  **** 	pDHCPMSG->OPT[k++] = DHCP_CHADDR[2];
 1597              		.loc 1 468 10
 1598 013c 664B     		ldr	r3, .L46
 1599 013e 1A68     		ldr	r2, [r3]
 1600              		.loc 1 468 17
 1601 0140 7B89     		ldrh	r3, [r7, #10]
 1602 0142 591C     		adds	r1, r3, #1
 1603 0144 7981     		strh	r1, [r7, #10]	@ movhi
 1604 0146 1846     		mov	r0, r3
 1605              		.loc 1 468 34
 1606 0148 644B     		ldr	r3, .L46+4
 1607 014a 9978     		ldrb	r1, [r3, #2]	@ zero_extendqisi2
 1608              		.loc 1 468 21
 1609 014c 1318     		adds	r3, r2, r0
 1610 014e 0A46     		mov	r2, r1
 1611 0150 83F8EC20 		strb	r2, [r3, #236]
 469:ioLIB/dhcp.c  **** 	pDHCPMSG->OPT[k++] = DHCP_CHADDR[3];
 1612              		.loc 1 469 10
 1613 0154 604B     		ldr	r3, .L46
 1614 0156 1A68     		ldr	r2, [r3]
 1615              		.loc 1 469 17
 1616 0158 7B89     		ldrh	r3, [r7, #10]
 1617 015a 591C     		adds	r1, r3, #1
 1618 015c 7981     		strh	r1, [r7, #10]	@ movhi
 1619 015e 1846     		mov	r0, r3
 1620              		.loc 1 469 34
 1621 0160 5E4B     		ldr	r3, .L46+4
 1622 0162 D978     		ldrb	r1, [r3, #3]	@ zero_extendqisi2
 1623              		.loc 1 469 21
 1624 0164 1318     		adds	r3, r2, r0
 1625 0166 0A46     		mov	r2, r1
 1626 0168 83F8EC20 		strb	r2, [r3, #236]
 470:ioLIB/dhcp.c  **** 	pDHCPMSG->OPT[k++] = DHCP_CHADDR[4];
 1627              		.loc 1 470 10
 1628 016c 5A4B     		ldr	r3, .L46
 1629 016e 1A68     		ldr	r2, [r3]
 1630              		.loc 1 470 17
ARM GAS  C:\Users\clay0\AppData\Local\Temp\ccq2B2ZX.s 			page 37


 1631 0170 7B89     		ldrh	r3, [r7, #10]
 1632 0172 591C     		adds	r1, r3, #1
 1633 0174 7981     		strh	r1, [r7, #10]	@ movhi
 1634 0176 1846     		mov	r0, r3
 1635              		.loc 1 470 34
 1636 0178 584B     		ldr	r3, .L46+4
 1637 017a 1979     		ldrb	r1, [r3, #4]	@ zero_extendqisi2
 1638              		.loc 1 470 21
 1639 017c 1318     		adds	r3, r2, r0
 1640 017e 0A46     		mov	r2, r1
 1641 0180 83F8EC20 		strb	r2, [r3, #236]
 471:ioLIB/dhcp.c  **** 	pDHCPMSG->OPT[k++] = DHCP_CHADDR[5];
 1642              		.loc 1 471 10
 1643 0184 544B     		ldr	r3, .L46
 1644 0186 1A68     		ldr	r2, [r3]
 1645              		.loc 1 471 17
 1646 0188 7B89     		ldrh	r3, [r7, #10]
 1647 018a 591C     		adds	r1, r3, #1
 1648 018c 7981     		strh	r1, [r7, #10]	@ movhi
 1649 018e 1846     		mov	r0, r3
 1650              		.loc 1 471 34
 1651 0190 524B     		ldr	r3, .L46+4
 1652 0192 5979     		ldrb	r1, [r3, #5]	@ zero_extendqisi2
 1653              		.loc 1 471 21
 1654 0194 1318     		adds	r3, r2, r0
 1655 0196 0A46     		mov	r2, r1
 1656 0198 83F8EC20 		strb	r2, [r3, #236]
 472:ioLIB/dhcp.c  **** 
 473:ioLIB/dhcp.c  ****    if(ip[3] == 255)  // if(dchp_state == STATE_DHCP_LEASED || dchp_state == DHCP_REREQUEST_STATE)
 1657              		.loc 1 473 9
 1658 019c FB79     		ldrb	r3, [r7, #7]	@ zero_extendqisi2
 1659              		.loc 1 473 6
 1660 019e FF2B     		cmp	r3, #255
 1661 01a0 40F08480 		bne	.L39
 474:ioLIB/dhcp.c  ****    {
 475:ioLIB/dhcp.c  **** 		pDHCPMSG->OPT[k++] = dhcpRequestedIPaddr;
 1662              		.loc 1 475 11
 1663 01a4 4C4B     		ldr	r3, .L46
 1664 01a6 1A68     		ldr	r2, [r3]
 1665              		.loc 1 475 18
 1666 01a8 7B89     		ldrh	r3, [r7, #10]
 1667 01aa 591C     		adds	r1, r3, #1
 1668 01ac 7981     		strh	r1, [r7, #10]	@ movhi
 1669              		.loc 1 475 22
 1670 01ae 1344     		add	r3, r3, r2
 1671 01b0 3222     		movs	r2, #50
 1672 01b2 83F8EC20 		strb	r2, [r3, #236]
 476:ioLIB/dhcp.c  **** 		pDHCPMSG->OPT[k++] = 0x04;
 1673              		.loc 1 476 11
 1674 01b6 484B     		ldr	r3, .L46
 1675 01b8 1A68     		ldr	r2, [r3]
 1676              		.loc 1 476 18
 1677 01ba 7B89     		ldrh	r3, [r7, #10]
 1678 01bc 591C     		adds	r1, r3, #1
 1679 01be 7981     		strh	r1, [r7, #10]	@ movhi
 1680              		.loc 1 476 22
 1681 01c0 1344     		add	r3, r3, r2
ARM GAS  C:\Users\clay0\AppData\Local\Temp\ccq2B2ZX.s 			page 38


 1682 01c2 0422     		movs	r2, #4
 1683 01c4 83F8EC20 		strb	r2, [r3, #236]
 477:ioLIB/dhcp.c  **** 		pDHCPMSG->OPT[k++] = DHCP_allocated_ip[0];
 1684              		.loc 1 477 11
 1685 01c8 434B     		ldr	r3, .L46
 1686 01ca 1A68     		ldr	r2, [r3]
 1687              		.loc 1 477 18
 1688 01cc 7B89     		ldrh	r3, [r7, #10]
 1689 01ce 591C     		adds	r1, r3, #1
 1690 01d0 7981     		strh	r1, [r7, #10]	@ movhi
 1691 01d2 1846     		mov	r0, r3
 1692              		.loc 1 477 41
 1693 01d4 424B     		ldr	r3, .L46+8
 1694 01d6 1978     		ldrb	r1, [r3]	@ zero_extendqisi2
 1695              		.loc 1 477 22
 1696 01d8 1318     		adds	r3, r2, r0
 1697 01da 0A46     		mov	r2, r1
 1698 01dc 83F8EC20 		strb	r2, [r3, #236]
 478:ioLIB/dhcp.c  **** 		pDHCPMSG->OPT[k++] = DHCP_allocated_ip[1];
 1699              		.loc 1 478 11
 1700 01e0 3D4B     		ldr	r3, .L46
 1701 01e2 1A68     		ldr	r2, [r3]
 1702              		.loc 1 478 18
 1703 01e4 7B89     		ldrh	r3, [r7, #10]
 1704 01e6 591C     		adds	r1, r3, #1
 1705 01e8 7981     		strh	r1, [r7, #10]	@ movhi
 1706 01ea 1846     		mov	r0, r3
 1707              		.loc 1 478 41
 1708 01ec 3C4B     		ldr	r3, .L46+8
 1709 01ee 5978     		ldrb	r1, [r3, #1]	@ zero_extendqisi2
 1710              		.loc 1 478 22
 1711 01f0 1318     		adds	r3, r2, r0
 1712 01f2 0A46     		mov	r2, r1
 1713 01f4 83F8EC20 		strb	r2, [r3, #236]
 479:ioLIB/dhcp.c  **** 		pDHCPMSG->OPT[k++] = DHCP_allocated_ip[2];
 1714              		.loc 1 479 11
 1715 01f8 374B     		ldr	r3, .L46
 1716 01fa 1A68     		ldr	r2, [r3]
 1717              		.loc 1 479 18
 1718 01fc 7B89     		ldrh	r3, [r7, #10]
 1719 01fe 591C     		adds	r1, r3, #1
 1720 0200 7981     		strh	r1, [r7, #10]	@ movhi
 1721 0202 1846     		mov	r0, r3
 1722              		.loc 1 479 41
 1723 0204 364B     		ldr	r3, .L46+8
 1724 0206 9978     		ldrb	r1, [r3, #2]	@ zero_extendqisi2
 1725              		.loc 1 479 22
 1726 0208 1318     		adds	r3, r2, r0
 1727 020a 0A46     		mov	r2, r1
 1728 020c 83F8EC20 		strb	r2, [r3, #236]
 480:ioLIB/dhcp.c  **** 		pDHCPMSG->OPT[k++] = DHCP_allocated_ip[3];
 1729              		.loc 1 480 11
 1730 0210 314B     		ldr	r3, .L46
 1731 0212 1A68     		ldr	r2, [r3]
 1732              		.loc 1 480 18
 1733 0214 7B89     		ldrh	r3, [r7, #10]
 1734 0216 591C     		adds	r1, r3, #1
ARM GAS  C:\Users\clay0\AppData\Local\Temp\ccq2B2ZX.s 			page 39


 1735 0218 7981     		strh	r1, [r7, #10]	@ movhi
 1736 021a 1846     		mov	r0, r3
 1737              		.loc 1 480 41
 1738 021c 304B     		ldr	r3, .L46+8
 1739 021e D978     		ldrb	r1, [r3, #3]	@ zero_extendqisi2
 1740              		.loc 1 480 22
 1741 0220 1318     		adds	r3, r2, r0
 1742 0222 0A46     		mov	r2, r1
 1743 0224 83F8EC20 		strb	r2, [r3, #236]
 481:ioLIB/dhcp.c  **** 	
 482:ioLIB/dhcp.c  **** 		pDHCPMSG->OPT[k++] = dhcpServerIdentifier;
 1744              		.loc 1 482 11
 1745 0228 2B4B     		ldr	r3, .L46
 1746 022a 1A68     		ldr	r2, [r3]
 1747              		.loc 1 482 18
 1748 022c 7B89     		ldrh	r3, [r7, #10]
 1749 022e 591C     		adds	r1, r3, #1
 1750 0230 7981     		strh	r1, [r7, #10]	@ movhi
 1751              		.loc 1 482 22
 1752 0232 1344     		add	r3, r3, r2
 1753 0234 3622     		movs	r2, #54
 1754 0236 83F8EC20 		strb	r2, [r3, #236]
 483:ioLIB/dhcp.c  **** 		pDHCPMSG->OPT[k++] = 0x04;
 1755              		.loc 1 483 11
 1756 023a 274B     		ldr	r3, .L46
 1757 023c 1A68     		ldr	r2, [r3]
 1758              		.loc 1 483 18
 1759 023e 7B89     		ldrh	r3, [r7, #10]
 1760 0240 591C     		adds	r1, r3, #1
 1761 0242 7981     		strh	r1, [r7, #10]	@ movhi
 1762              		.loc 1 483 22
 1763 0244 1344     		add	r3, r3, r2
 1764 0246 0422     		movs	r2, #4
 1765 0248 83F8EC20 		strb	r2, [r3, #236]
 484:ioLIB/dhcp.c  **** 		pDHCPMSG->OPT[k++] = DHCP_SIP[0];
 1766              		.loc 1 484 11
 1767 024c 224B     		ldr	r3, .L46
 1768 024e 1A68     		ldr	r2, [r3]
 1769              		.loc 1 484 18
 1770 0250 7B89     		ldrh	r3, [r7, #10]
 1771 0252 591C     		adds	r1, r3, #1
 1772 0254 7981     		strh	r1, [r7, #10]	@ movhi
 1773 0256 1846     		mov	r0, r3
 1774              		.loc 1 484 32
 1775 0258 224B     		ldr	r3, .L46+12
 1776 025a 1978     		ldrb	r1, [r3]	@ zero_extendqisi2
 1777              		.loc 1 484 22
 1778 025c 1318     		adds	r3, r2, r0
 1779 025e 0A46     		mov	r2, r1
 1780 0260 83F8EC20 		strb	r2, [r3, #236]
 485:ioLIB/dhcp.c  **** 		pDHCPMSG->OPT[k++] = DHCP_SIP[1];
 1781              		.loc 1 485 11
 1782 0264 1C4B     		ldr	r3, .L46
 1783 0266 1A68     		ldr	r2, [r3]
 1784              		.loc 1 485 18
 1785 0268 7B89     		ldrh	r3, [r7, #10]
 1786 026a 591C     		adds	r1, r3, #1
ARM GAS  C:\Users\clay0\AppData\Local\Temp\ccq2B2ZX.s 			page 40


 1787 026c 7981     		strh	r1, [r7, #10]	@ movhi
 1788 026e 1846     		mov	r0, r3
 1789              		.loc 1 485 32
 1790 0270 1C4B     		ldr	r3, .L46+12
 1791 0272 5978     		ldrb	r1, [r3, #1]	@ zero_extendqisi2
 1792              		.loc 1 485 22
 1793 0274 1318     		adds	r3, r2, r0
 1794 0276 0A46     		mov	r2, r1
 1795 0278 83F8EC20 		strb	r2, [r3, #236]
 486:ioLIB/dhcp.c  **** 		pDHCPMSG->OPT[k++] = DHCP_SIP[2];
 1796              		.loc 1 486 11
 1797 027c 164B     		ldr	r3, .L46
 1798 027e 1A68     		ldr	r2, [r3]
 1799              		.loc 1 486 18
 1800 0280 7B89     		ldrh	r3, [r7, #10]
 1801 0282 591C     		adds	r1, r3, #1
 1802 0284 7981     		strh	r1, [r7, #10]	@ movhi
 1803 0286 1846     		mov	r0, r3
 1804              		.loc 1 486 32
 1805 0288 164B     		ldr	r3, .L46+12
 1806 028a 9978     		ldrb	r1, [r3, #2]	@ zero_extendqisi2
 1807              		.loc 1 486 22
 1808 028c 1318     		adds	r3, r2, r0
 1809 028e 0A46     		mov	r2, r1
 1810 0290 83F8EC20 		strb	r2, [r3, #236]
 487:ioLIB/dhcp.c  **** 		pDHCPMSG->OPT[k++] = DHCP_SIP[3];
 1811              		.loc 1 487 11
 1812 0294 104B     		ldr	r3, .L46
 1813 0296 1A68     		ldr	r2, [r3]
 1814              		.loc 1 487 18
 1815 0298 7B89     		ldrh	r3, [r7, #10]
 1816 029a 591C     		adds	r1, r3, #1
 1817 029c 7981     		strh	r1, [r7, #10]	@ movhi
 1818 029e 1846     		mov	r0, r3
 1819              		.loc 1 487 32
 1820 02a0 104B     		ldr	r3, .L46+12
 1821 02a2 D978     		ldrb	r1, [r3, #3]	@ zero_extendqisi2
 1822              		.loc 1 487 22
 1823 02a4 1318     		adds	r3, r2, r0
 1824 02a6 0A46     		mov	r2, r1
 1825 02a8 83F8EC20 		strb	r2, [r3, #236]
 1826              	.L39:
 488:ioLIB/dhcp.c  **** 	}
 489:ioLIB/dhcp.c  **** 
 490:ioLIB/dhcp.c  **** 	// host name
 491:ioLIB/dhcp.c  **** 	pDHCPMSG->OPT[k++] = hostName;
 1827              		.loc 1 491 10
 1828 02ac 0A4B     		ldr	r3, .L46
 1829 02ae 1A68     		ldr	r2, [r3]
 1830              		.loc 1 491 17
 1831 02b0 7B89     		ldrh	r3, [r7, #10]
 1832 02b2 591C     		adds	r1, r3, #1
 1833 02b4 7981     		strh	r1, [r7, #10]	@ movhi
 1834              		.loc 1 491 21
 1835 02b6 1344     		add	r3, r3, r2
 1836 02b8 0C22     		movs	r2, #12
 1837 02ba 83F8EC20 		strb	r2, [r3, #236]
ARM GAS  C:\Users\clay0\AppData\Local\Temp\ccq2B2ZX.s 			page 41


 492:ioLIB/dhcp.c  **** 	pDHCPMSG->OPT[k++] = 0; // length of hostname
 1838              		.loc 1 492 10
 1839 02be 064B     		ldr	r3, .L46
 1840 02c0 1A68     		ldr	r2, [r3]
 1841              		.loc 1 492 17
 1842 02c2 7B89     		ldrh	r3, [r7, #10]
 1843 02c4 591C     		adds	r1, r3, #1
 1844 02c6 7981     		strh	r1, [r7, #10]	@ movhi
 1845              		.loc 1 492 21
 1846 02c8 1344     		add	r3, r3, r2
 1847 02ca 0022     		movs	r2, #0
 1848 02cc 83F8EC20 		strb	r2, [r3, #236]
 493:ioLIB/dhcp.c  **** 	for(i = 0 ; HOST_NAME[i] != 0; i++)
 1849              		.loc 1 493 8
 1850 02d0 0023     		movs	r3, #0
 1851 02d2 FB60     		str	r3, [r7, #12]
 1852              		.loc 1 493 2
 1853 02d4 19E0     		b	.L40
 1854              	.L47:
 1855 02d6 00BF     		.align	2
 1856              	.L46:
 1857 02d8 00000000 		.word	pDHCPMSG
 1858 02dc 00000000 		.word	DHCP_CHADDR
 1859 02e0 00000000 		.word	DHCP_allocated_ip
 1860 02e4 00000000 		.word	DHCP_SIP
 1861              	.L41:
 494:ioLIB/dhcp.c  ****    	pDHCPMSG->OPT[k++] = HOST_NAME[i];
 1862              		.loc 1 494 13 discriminator 3
 1863 02e8 864B     		ldr	r3, .L48
 1864 02ea 1A68     		ldr	r2, [r3]
 1865              		.loc 1 494 20 discriminator 3
 1866 02ec 7B89     		ldrh	r3, [r7, #10]
 1867 02ee 591C     		adds	r1, r3, #1
 1868 02f0 7981     		strh	r1, [r7, #10]	@ movhi
 1869 02f2 1846     		mov	r0, r3
 1870              		.loc 1 494 35 discriminator 3
 1871 02f4 8449     		ldr	r1, .L48+4
 1872 02f6 FB68     		ldr	r3, [r7, #12]
 1873 02f8 0B44     		add	r3, r3, r1
 1874 02fa 1978     		ldrb	r1, [r3]	@ zero_extendqisi2
 1875              		.loc 1 494 24 discriminator 3
 1876 02fc 1318     		adds	r3, r2, r0
 1877 02fe 0A46     		mov	r2, r1
 1878 0300 83F8EC20 		strb	r2, [r3, #236]
 493:ioLIB/dhcp.c  **** 	for(i = 0 ; HOST_NAME[i] != 0; i++)
 1879              		.loc 1 493 34 discriminator 3
 1880 0304 FB68     		ldr	r3, [r7, #12]
 1881 0306 0133     		adds	r3, r3, #1
 1882 0308 FB60     		str	r3, [r7, #12]
 1883              	.L40:
 493:ioLIB/dhcp.c  **** 	for(i = 0 ; HOST_NAME[i] != 0; i++)
 1884              		.loc 1 493 23 discriminator 1
 1885 030a 7F4A     		ldr	r2, .L48+4
 1886 030c FB68     		ldr	r3, [r7, #12]
 1887 030e 1344     		add	r3, r3, r2
 1888 0310 1B78     		ldrb	r3, [r3]	@ zero_extendqisi2
 493:ioLIB/dhcp.c  **** 	for(i = 0 ; HOST_NAME[i] != 0; i++)
ARM GAS  C:\Users\clay0\AppData\Local\Temp\ccq2B2ZX.s 			page 42


 1889              		.loc 1 493 2 discriminator 1
 1890 0312 002B     		cmp	r3, #0
 1891 0314 E8D1     		bne	.L41
 495:ioLIB/dhcp.c  **** 	pDHCPMSG->OPT[k++] = NibbleToHex(DHCP_CHADDR[3] >> 4); 
 1892              		.loc 1 495 46
 1893 0316 7D4B     		ldr	r3, .L48+8
 1894 0318 DB78     		ldrb	r3, [r3, #3]	@ zero_extendqisi2
 1895              		.loc 1 495 23
 1896 031a 1B09     		lsrs	r3, r3, #4
 1897 031c DAB2     		uxtb	r2, r3
 1898              		.loc 1 495 10
 1899 031e 794B     		ldr	r3, .L48
 1900 0320 1C68     		ldr	r4, [r3]
 1901              		.loc 1 495 17
 1902 0322 7B89     		ldrh	r3, [r7, #10]
 1903 0324 591C     		adds	r1, r3, #1
 1904 0326 7981     		strh	r1, [r7, #10]	@ movhi
 1905 0328 1D46     		mov	r5, r3
 1906              		.loc 1 495 23
 1907 032a 1046     		mov	r0, r2
 1908 032c FFF7FEFF 		bl	NibbleToHex
 1909 0330 0346     		mov	r3, r0
 1910 0332 1A46     		mov	r2, r3
 1911              		.loc 1 495 21
 1912 0334 6319     		adds	r3, r4, r5
 1913 0336 83F8EC20 		strb	r2, [r3, #236]
 496:ioLIB/dhcp.c  **** 	pDHCPMSG->OPT[k++] = NibbleToHex(DHCP_CHADDR[3]);
 1914              		.loc 1 496 23
 1915 033a 744B     		ldr	r3, .L48+8
 1916 033c DA78     		ldrb	r2, [r3, #3]	@ zero_extendqisi2
 1917              		.loc 1 496 10
 1918 033e 714B     		ldr	r3, .L48
 1919 0340 1C68     		ldr	r4, [r3]
 1920              		.loc 1 496 17
 1921 0342 7B89     		ldrh	r3, [r7, #10]
 1922 0344 591C     		adds	r1, r3, #1
 1923 0346 7981     		strh	r1, [r7, #10]	@ movhi
 1924 0348 1D46     		mov	r5, r3
 1925              		.loc 1 496 23
 1926 034a 1046     		mov	r0, r2
 1927 034c FFF7FEFF 		bl	NibbleToHex
 1928 0350 0346     		mov	r3, r0
 1929 0352 1A46     		mov	r2, r3
 1930              		.loc 1 496 21
 1931 0354 6319     		adds	r3, r4, r5
 1932 0356 83F8EC20 		strb	r2, [r3, #236]
 497:ioLIB/dhcp.c  **** 	pDHCPMSG->OPT[k++] = NibbleToHex(DHCP_CHADDR[4] >> 4); 
 1933              		.loc 1 497 46
 1934 035a 6C4B     		ldr	r3, .L48+8
 1935 035c 1B79     		ldrb	r3, [r3, #4]	@ zero_extendqisi2
 1936              		.loc 1 497 23
 1937 035e 1B09     		lsrs	r3, r3, #4
 1938 0360 DAB2     		uxtb	r2, r3
 1939              		.loc 1 497 10
 1940 0362 684B     		ldr	r3, .L48
 1941 0364 1C68     		ldr	r4, [r3]
 1942              		.loc 1 497 17
ARM GAS  C:\Users\clay0\AppData\Local\Temp\ccq2B2ZX.s 			page 43


 1943 0366 7B89     		ldrh	r3, [r7, #10]
 1944 0368 591C     		adds	r1, r3, #1
 1945 036a 7981     		strh	r1, [r7, #10]	@ movhi
 1946 036c 1D46     		mov	r5, r3
 1947              		.loc 1 497 23
 1948 036e 1046     		mov	r0, r2
 1949 0370 FFF7FEFF 		bl	NibbleToHex
 1950 0374 0346     		mov	r3, r0
 1951 0376 1A46     		mov	r2, r3
 1952              		.loc 1 497 21
 1953 0378 6319     		adds	r3, r4, r5
 1954 037a 83F8EC20 		strb	r2, [r3, #236]
 498:ioLIB/dhcp.c  **** 	pDHCPMSG->OPT[k++] = NibbleToHex(DHCP_CHADDR[4]);
 1955              		.loc 1 498 23
 1956 037e 634B     		ldr	r3, .L48+8
 1957 0380 1A79     		ldrb	r2, [r3, #4]	@ zero_extendqisi2
 1958              		.loc 1 498 10
 1959 0382 604B     		ldr	r3, .L48
 1960 0384 1C68     		ldr	r4, [r3]
 1961              		.loc 1 498 17
 1962 0386 7B89     		ldrh	r3, [r7, #10]
 1963 0388 591C     		adds	r1, r3, #1
 1964 038a 7981     		strh	r1, [r7, #10]	@ movhi
 1965 038c 1D46     		mov	r5, r3
 1966              		.loc 1 498 23
 1967 038e 1046     		mov	r0, r2
 1968 0390 FFF7FEFF 		bl	NibbleToHex
 1969 0394 0346     		mov	r3, r0
 1970 0396 1A46     		mov	r2, r3
 1971              		.loc 1 498 21
 1972 0398 6319     		adds	r3, r4, r5
 1973 039a 83F8EC20 		strb	r2, [r3, #236]
 499:ioLIB/dhcp.c  **** 	pDHCPMSG->OPT[k++] = NibbleToHex(DHCP_CHADDR[5] >> 4); 
 1974              		.loc 1 499 46
 1975 039e 5B4B     		ldr	r3, .L48+8
 1976 03a0 5B79     		ldrb	r3, [r3, #5]	@ zero_extendqisi2
 1977              		.loc 1 499 23
 1978 03a2 1B09     		lsrs	r3, r3, #4
 1979 03a4 DAB2     		uxtb	r2, r3
 1980              		.loc 1 499 10
 1981 03a6 574B     		ldr	r3, .L48
 1982 03a8 1C68     		ldr	r4, [r3]
 1983              		.loc 1 499 17
 1984 03aa 7B89     		ldrh	r3, [r7, #10]
 1985 03ac 591C     		adds	r1, r3, #1
 1986 03ae 7981     		strh	r1, [r7, #10]	@ movhi
 1987 03b0 1D46     		mov	r5, r3
 1988              		.loc 1 499 23
 1989 03b2 1046     		mov	r0, r2
 1990 03b4 FFF7FEFF 		bl	NibbleToHex
 1991 03b8 0346     		mov	r3, r0
 1992 03ba 1A46     		mov	r2, r3
 1993              		.loc 1 499 21
 1994 03bc 6319     		adds	r3, r4, r5
 1995 03be 83F8EC20 		strb	r2, [r3, #236]
 500:ioLIB/dhcp.c  **** 	pDHCPMSG->OPT[k++] = NibbleToHex(DHCP_CHADDR[5]);
 1996              		.loc 1 500 23
ARM GAS  C:\Users\clay0\AppData\Local\Temp\ccq2B2ZX.s 			page 44


 1997 03c2 524B     		ldr	r3, .L48+8
 1998 03c4 5A79     		ldrb	r2, [r3, #5]	@ zero_extendqisi2
 1999              		.loc 1 500 10
 2000 03c6 4F4B     		ldr	r3, .L48
 2001 03c8 1C68     		ldr	r4, [r3]
 2002              		.loc 1 500 17
 2003 03ca 7B89     		ldrh	r3, [r7, #10]
 2004 03cc 591C     		adds	r1, r3, #1
 2005 03ce 7981     		strh	r1, [r7, #10]	@ movhi
 2006 03d0 1D46     		mov	r5, r3
 2007              		.loc 1 500 23
 2008 03d2 1046     		mov	r0, r2
 2009 03d4 FFF7FEFF 		bl	NibbleToHex
 2010 03d8 0346     		mov	r3, r0
 2011 03da 1A46     		mov	r2, r3
 2012              		.loc 1 500 21
 2013 03dc 6319     		adds	r3, r4, r5
 2014 03de 83F8EC20 		strb	r2, [r3, #236]
 501:ioLIB/dhcp.c  **** 	pDHCPMSG->OPT[k - (i+6+1)] = i+6; // length of hostname
 2015              		.loc 1 501 32
 2016 03e2 FB68     		ldr	r3, [r7, #12]
 2017 03e4 D9B2     		uxtb	r1, r3
 2018              		.loc 1 501 10
 2019 03e6 474B     		ldr	r3, .L48
 2020 03e8 1A68     		ldr	r2, [r3]
 2021              		.loc 1 501 18
 2022 03ea 7889     		ldrh	r0, [r7, #10]
 2023              		.loc 1 501 24
 2024 03ec FB68     		ldr	r3, [r7, #12]
 2025 03ee 0733     		adds	r3, r3, #7
 2026              		.loc 1 501 18
 2027 03f0 C31A     		subs	r3, r0, r3
 2028              		.loc 1 501 32
 2029 03f2 0631     		adds	r1, r1, #6
 2030 03f4 C9B2     		uxtb	r1, r1
 2031              		.loc 1 501 29
 2032 03f6 1344     		add	r3, r3, r2
 2033 03f8 0A46     		mov	r2, r1
 2034 03fa 83F8EC20 		strb	r2, [r3, #236]
 502:ioLIB/dhcp.c  **** 	
 503:ioLIB/dhcp.c  **** 	pDHCPMSG->OPT[k++] = dhcpParamRequest;
 2035              		.loc 1 503 10
 2036 03fe 414B     		ldr	r3, .L48
 2037 0400 1A68     		ldr	r2, [r3]
 2038              		.loc 1 503 17
 2039 0402 7B89     		ldrh	r3, [r7, #10]
 2040 0404 591C     		adds	r1, r3, #1
 2041 0406 7981     		strh	r1, [r7, #10]	@ movhi
 2042              		.loc 1 503 21
 2043 0408 1344     		add	r3, r3, r2
 2044 040a 3722     		movs	r2, #55
 2045 040c 83F8EC20 		strb	r2, [r3, #236]
 504:ioLIB/dhcp.c  **** 	pDHCPMSG->OPT[k++] = 0x08;
 2046              		.loc 1 504 10
 2047 0410 3C4B     		ldr	r3, .L48
 2048 0412 1A68     		ldr	r2, [r3]
 2049              		.loc 1 504 17
ARM GAS  C:\Users\clay0\AppData\Local\Temp\ccq2B2ZX.s 			page 45


 2050 0414 7B89     		ldrh	r3, [r7, #10]
 2051 0416 591C     		adds	r1, r3, #1
 2052 0418 7981     		strh	r1, [r7, #10]	@ movhi
 2053              		.loc 1 504 21
 2054 041a 1344     		add	r3, r3, r2
 2055 041c 0822     		movs	r2, #8
 2056 041e 83F8EC20 		strb	r2, [r3, #236]
 505:ioLIB/dhcp.c  **** 	pDHCPMSG->OPT[k++] = subnetMask;
 2057              		.loc 1 505 10
 2058 0422 384B     		ldr	r3, .L48
 2059 0424 1A68     		ldr	r2, [r3]
 2060              		.loc 1 505 17
 2061 0426 7B89     		ldrh	r3, [r7, #10]
 2062 0428 591C     		adds	r1, r3, #1
 2063 042a 7981     		strh	r1, [r7, #10]	@ movhi
 2064              		.loc 1 505 21
 2065 042c 1344     		add	r3, r3, r2
 2066 042e 0122     		movs	r2, #1
 2067 0430 83F8EC20 		strb	r2, [r3, #236]
 506:ioLIB/dhcp.c  **** 	pDHCPMSG->OPT[k++] = routersOnSubnet;
 2068              		.loc 1 506 10
 2069 0434 334B     		ldr	r3, .L48
 2070 0436 1A68     		ldr	r2, [r3]
 2071              		.loc 1 506 17
 2072 0438 7B89     		ldrh	r3, [r7, #10]
 2073 043a 591C     		adds	r1, r3, #1
 2074 043c 7981     		strh	r1, [r7, #10]	@ movhi
 2075              		.loc 1 506 21
 2076 043e 1344     		add	r3, r3, r2
 2077 0440 0322     		movs	r2, #3
 2078 0442 83F8EC20 		strb	r2, [r3, #236]
 507:ioLIB/dhcp.c  **** 	pDHCPMSG->OPT[k++] = dns;
 2079              		.loc 1 507 10
 2080 0446 2F4B     		ldr	r3, .L48
 2081 0448 1A68     		ldr	r2, [r3]
 2082              		.loc 1 507 17
 2083 044a 7B89     		ldrh	r3, [r7, #10]
 2084 044c 591C     		adds	r1, r3, #1
 2085 044e 7981     		strh	r1, [r7, #10]	@ movhi
 2086              		.loc 1 507 21
 2087 0450 1344     		add	r3, r3, r2
 2088 0452 0622     		movs	r2, #6
 2089 0454 83F8EC20 		strb	r2, [r3, #236]
 508:ioLIB/dhcp.c  **** 	pDHCPMSG->OPT[k++] = domainName;
 2090              		.loc 1 508 10
 2091 0458 2A4B     		ldr	r3, .L48
 2092 045a 1A68     		ldr	r2, [r3]
 2093              		.loc 1 508 17
 2094 045c 7B89     		ldrh	r3, [r7, #10]
 2095 045e 591C     		adds	r1, r3, #1
 2096 0460 7981     		strh	r1, [r7, #10]	@ movhi
 2097              		.loc 1 508 21
 2098 0462 1344     		add	r3, r3, r2
 2099 0464 0F22     		movs	r2, #15
 2100 0466 83F8EC20 		strb	r2, [r3, #236]
 509:ioLIB/dhcp.c  **** 	pDHCPMSG->OPT[k++] = dhcpT1value;
 2101              		.loc 1 509 10
ARM GAS  C:\Users\clay0\AppData\Local\Temp\ccq2B2ZX.s 			page 46


 2102 046a 264B     		ldr	r3, .L48
 2103 046c 1A68     		ldr	r2, [r3]
 2104              		.loc 1 509 17
 2105 046e 7B89     		ldrh	r3, [r7, #10]
 2106 0470 591C     		adds	r1, r3, #1
 2107 0472 7981     		strh	r1, [r7, #10]	@ movhi
 2108              		.loc 1 509 21
 2109 0474 1344     		add	r3, r3, r2
 2110 0476 3A22     		movs	r2, #58
 2111 0478 83F8EC20 		strb	r2, [r3, #236]
 510:ioLIB/dhcp.c  **** 	pDHCPMSG->OPT[k++] = dhcpT2value;
 2112              		.loc 1 510 10
 2113 047c 214B     		ldr	r3, .L48
 2114 047e 1A68     		ldr	r2, [r3]
 2115              		.loc 1 510 17
 2116 0480 7B89     		ldrh	r3, [r7, #10]
 2117 0482 591C     		adds	r1, r3, #1
 2118 0484 7981     		strh	r1, [r7, #10]	@ movhi
 2119              		.loc 1 510 21
 2120 0486 1344     		add	r3, r3, r2
 2121 0488 3B22     		movs	r2, #59
 2122 048a 83F8EC20 		strb	r2, [r3, #236]
 511:ioLIB/dhcp.c  **** 	pDHCPMSG->OPT[k++] = performRouterDiscovery;
 2123              		.loc 1 511 10
 2124 048e 1D4B     		ldr	r3, .L48
 2125 0490 1A68     		ldr	r2, [r3]
 2126              		.loc 1 511 17
 2127 0492 7B89     		ldrh	r3, [r7, #10]
 2128 0494 591C     		adds	r1, r3, #1
 2129 0496 7981     		strh	r1, [r7, #10]	@ movhi
 2130              		.loc 1 511 21
 2131 0498 1344     		add	r3, r3, r2
 2132 049a 1F22     		movs	r2, #31
 2133 049c 83F8EC20 		strb	r2, [r3, #236]
 512:ioLIB/dhcp.c  **** 	pDHCPMSG->OPT[k++] = staticRoute;
 2134              		.loc 1 512 10
 2135 04a0 184B     		ldr	r3, .L48
 2136 04a2 1A68     		ldr	r2, [r3]
 2137              		.loc 1 512 17
 2138 04a4 7B89     		ldrh	r3, [r7, #10]
 2139 04a6 591C     		adds	r1, r3, #1
 2140 04a8 7981     		strh	r1, [r7, #10]	@ movhi
 2141              		.loc 1 512 21
 2142 04aa 1344     		add	r3, r3, r2
 2143 04ac 2122     		movs	r2, #33
 2144 04ae 83F8EC20 		strb	r2, [r3, #236]
 513:ioLIB/dhcp.c  **** 	pDHCPMSG->OPT[k++] = endOption;
 2145              		.loc 1 513 10
 2146 04b2 144B     		ldr	r3, .L48
 2147 04b4 1A68     		ldr	r2, [r3]
 2148              		.loc 1 513 17
 2149 04b6 7B89     		ldrh	r3, [r7, #10]
 2150 04b8 591C     		adds	r1, r3, #1
 2151 04ba 7981     		strh	r1, [r7, #10]	@ movhi
 2152              		.loc 1 513 21
 2153 04bc 1344     		add	r3, r3, r2
 2154 04be FF22     		movs	r2, #255
ARM GAS  C:\Users\clay0\AppData\Local\Temp\ccq2B2ZX.s 			page 47


 2155 04c0 83F8EC20 		strb	r2, [r3, #236]
 514:ioLIB/dhcp.c  **** 
 515:ioLIB/dhcp.c  **** 	for (i = k; i < OPT_SIZE; i++) pDHCPMSG->OPT[i] = 0;
 2156              		.loc 1 515 9
 2157 04c4 7B89     		ldrh	r3, [r7, #10]
 2158 04c6 FB60     		str	r3, [r7, #12]
 2159              		.loc 1 515 2
 2160 04c8 09E0     		b	.L42
 2161              	.L43:
 2162              		.loc 1 515 41 discriminator 3
 2163 04ca 0E4B     		ldr	r3, .L48
 2164 04cc 1A68     		ldr	r2, [r3]
 2165              		.loc 1 515 50 discriminator 3
 2166 04ce FB68     		ldr	r3, [r7, #12]
 2167 04d0 1344     		add	r3, r3, r2
 2168 04d2 EC33     		adds	r3, r3, #236
 2169 04d4 0022     		movs	r2, #0
 2170 04d6 1A70     		strb	r2, [r3]
 2171              		.loc 1 515 29 discriminator 3
 2172 04d8 FB68     		ldr	r3, [r7, #12]
 2173 04da 0133     		adds	r3, r3, #1
 2174 04dc FB60     		str	r3, [r7, #12]
 2175              	.L42:
 2176              		.loc 1 515 2 discriminator 1
 2177 04de FB68     		ldr	r3, [r7, #12]
 2178 04e0 B3F59C7F 		cmp	r3, #312
 2179 04e4 F1DB     		blt	.L43
 516:ioLIB/dhcp.c  **** 
 517:ioLIB/dhcp.c  **** #ifdef _DHCP_DEBUG_
 518:ioLIB/dhcp.c  **** 	printf("> Send DHCP_REQUEST\r\n");
 519:ioLIB/dhcp.c  **** #endif
 520:ioLIB/dhcp.c  **** 	
 521:ioLIB/dhcp.c  **** 	sendto(DHCP_SOCKET, (uint8_t *)pDHCPMSG, RIP_MSG_SIZE, ip, DHCP_SERVER_PORT);
 2180              		.loc 1 521 2
 2181 04e6 0A4B     		ldr	r3, .L48+12
 2182 04e8 1878     		ldrb	r0, [r3]	@ zero_extendqisi2
 2183 04ea 064B     		ldr	r3, .L48
 2184 04ec 1968     		ldr	r1, [r3]
 2185 04ee 3B1D     		adds	r3, r7, #4
 2186 04f0 4322     		movs	r2, #67
 2187 04f2 0092     		str	r2, [sp]
 2188 04f4 4FF40972 		mov	r2, #548
 2189 04f8 FFF7FEFF 		bl	sendto
 522:ioLIB/dhcp.c  **** 
 523:ioLIB/dhcp.c  **** }
 2190              		.loc 1 523 1
 2191 04fc 00BF     		nop
 2192 04fe 1037     		adds	r7, r7, #16
 2193              	.LCFI25:
 2194              		.cfi_def_cfa_offset 16
 2195 0500 BD46     		mov	sp, r7
 2196              	.LCFI26:
 2197              		.cfi_def_cfa_register 13
 2198              		@ sp needed
 2199 0502 B0BD     		pop	{r4, r5, r7, pc}
 2200              	.L49:
 2201              		.align	2
ARM GAS  C:\Users\clay0\AppData\Local\Temp\ccq2B2ZX.s 			page 48


 2202              	.L48:
 2203 0504 00000000 		.word	pDHCPMSG
 2204 0508 00000000 		.word	HOST_NAME
 2205 050c 00000000 		.word	DHCP_CHADDR
 2206 0510 00000000 		.word	DHCP_SOCKET
 2207              		.cfi_endproc
 2208              	.LFE6:
 2210              		.section	.text.send_DHCP_DECLINE,"ax",%progbits
 2211              		.align	1
 2212              		.global	send_DHCP_DECLINE
 2213              		.syntax unified
 2214              		.thumb
 2215              		.thumb_func
 2217              	send_DHCP_DECLINE:
 2218              	.LFB7:
 524:ioLIB/dhcp.c  **** 
 525:ioLIB/dhcp.c  **** /* SEND DHCP DHCPDECLINE */
 526:ioLIB/dhcp.c  **** void send_DHCP_DECLINE(void)
 527:ioLIB/dhcp.c  **** {
 2219              		.loc 1 527 1
 2220              		.cfi_startproc
 2221              		@ args = 0, pretend = 0, frame = 16
 2222              		@ frame_needed = 1, uses_anonymous_args = 0
 2223 0000 80B5     		push	{r7, lr}
 2224              	.LCFI27:
 2225              		.cfi_def_cfa_offset 8
 2226              		.cfi_offset 7, -8
 2227              		.cfi_offset 14, -4
 2228 0002 86B0     		sub	sp, sp, #24
 2229              	.LCFI28:
 2230              		.cfi_def_cfa_offset 32
 2231 0004 02AF     		add	r7, sp, #8
 2232              	.LCFI29:
 2233              		.cfi_def_cfa 7, 24
 528:ioLIB/dhcp.c  **** 	int i;
 529:ioLIB/dhcp.c  **** 	uint8_t ip[4];
 530:ioLIB/dhcp.c  **** 	uint16_t k = 0;
 2234              		.loc 1 530 11
 2235 0006 0023     		movs	r3, #0
 2236 0008 7B81     		strh	r3, [r7, #10]	@ movhi
 531:ioLIB/dhcp.c  **** 	
 532:ioLIB/dhcp.c  **** 	makeDHCPMSG();
 2237              		.loc 1 532 2
 2238 000a FFF7FEFF 		bl	makeDHCPMSG
 533:ioLIB/dhcp.c  **** 
 534:ioLIB/dhcp.c  ****    k = 4;      // because MAGIC_COOKIE already made by makeDHCPMSG()
 2239              		.loc 1 534 6
 2240 000e 0423     		movs	r3, #4
 2241 0010 7B81     		strh	r3, [r7, #10]	@ movhi
 535:ioLIB/dhcp.c  ****    
 536:ioLIB/dhcp.c  **** 	*((uint8_t*)(&pDHCPMSG->flags))   = ((DHCP_FLAGSUNICAST & 0xFF00)>> 8);
 2242              		.loc 1 536 24
 2243 0012 9F4B     		ldr	r3, .L53
 2244 0014 1B68     		ldr	r3, [r3]
 2245              		.loc 1 536 15
 2246 0016 0A33     		adds	r3, r3, #10
 2247              		.loc 1 536 36
ARM GAS  C:\Users\clay0\AppData\Local\Temp\ccq2B2ZX.s 			page 49


 2248 0018 0022     		movs	r2, #0
 2249 001a 1A70     		strb	r2, [r3]
 537:ioLIB/dhcp.c  **** 	*((uint8_t*)(&pDHCPMSG->flags)+1) = (DHCP_FLAGSUNICAST & 0x00FF);
 2250              		.loc 1 537 24
 2251 001c 9C4B     		ldr	r3, .L53
 2252 001e 1B68     		ldr	r3, [r3]
 2253              		.loc 1 537 15
 2254 0020 0A33     		adds	r3, r3, #10
 2255              		.loc 1 537 32
 2256 0022 0133     		adds	r3, r3, #1
 2257              		.loc 1 537 36
 2258 0024 0022     		movs	r2, #0
 2259 0026 1A70     		strb	r2, [r3]
 538:ioLIB/dhcp.c  **** 
 539:ioLIB/dhcp.c  **** 	// Option Request Param.
 540:ioLIB/dhcp.c  **** 	pDHCPMSG->OPT[k++] = dhcpMessageType;
 2260              		.loc 1 540 10
 2261 0028 994B     		ldr	r3, .L53
 2262 002a 1A68     		ldr	r2, [r3]
 2263              		.loc 1 540 17
 2264 002c 7B89     		ldrh	r3, [r7, #10]
 2265 002e 591C     		adds	r1, r3, #1
 2266 0030 7981     		strh	r1, [r7, #10]	@ movhi
 2267              		.loc 1 540 21
 2268 0032 1344     		add	r3, r3, r2
 2269 0034 3522     		movs	r2, #53
 2270 0036 83F8EC20 		strb	r2, [r3, #236]
 541:ioLIB/dhcp.c  **** 	pDHCPMSG->OPT[k++] = 0x01;
 2271              		.loc 1 541 10
 2272 003a 954B     		ldr	r3, .L53
 2273 003c 1A68     		ldr	r2, [r3]
 2274              		.loc 1 541 17
 2275 003e 7B89     		ldrh	r3, [r7, #10]
 2276 0040 591C     		adds	r1, r3, #1
 2277 0042 7981     		strh	r1, [r7, #10]	@ movhi
 2278              		.loc 1 541 21
 2279 0044 1344     		add	r3, r3, r2
 2280 0046 0122     		movs	r2, #1
 2281 0048 83F8EC20 		strb	r2, [r3, #236]
 542:ioLIB/dhcp.c  **** 	pDHCPMSG->OPT[k++] = DHCP_DECLINE;
 2282              		.loc 1 542 10
 2283 004c 904B     		ldr	r3, .L53
 2284 004e 1A68     		ldr	r2, [r3]
 2285              		.loc 1 542 17
 2286 0050 7B89     		ldrh	r3, [r7, #10]
 2287 0052 591C     		adds	r1, r3, #1
 2288 0054 7981     		strh	r1, [r7, #10]	@ movhi
 2289              		.loc 1 542 21
 2290 0056 1344     		add	r3, r3, r2
 2291 0058 0422     		movs	r2, #4
 2292 005a 83F8EC20 		strb	r2, [r3, #236]
 543:ioLIB/dhcp.c  **** 
 544:ioLIB/dhcp.c  **** 	pDHCPMSG->OPT[k++] = dhcpClientIdentifier;
 2293              		.loc 1 544 10
 2294 005e 8C4B     		ldr	r3, .L53
 2295 0060 1A68     		ldr	r2, [r3]
 2296              		.loc 1 544 17
ARM GAS  C:\Users\clay0\AppData\Local\Temp\ccq2B2ZX.s 			page 50


 2297 0062 7B89     		ldrh	r3, [r7, #10]
 2298 0064 591C     		adds	r1, r3, #1
 2299 0066 7981     		strh	r1, [r7, #10]	@ movhi
 2300              		.loc 1 544 21
 2301 0068 1344     		add	r3, r3, r2
 2302 006a 3D22     		movs	r2, #61
 2303 006c 83F8EC20 		strb	r2, [r3, #236]
 545:ioLIB/dhcp.c  **** 	pDHCPMSG->OPT[k++] = 0x07;
 2304              		.loc 1 545 10
 2305 0070 874B     		ldr	r3, .L53
 2306 0072 1A68     		ldr	r2, [r3]
 2307              		.loc 1 545 17
 2308 0074 7B89     		ldrh	r3, [r7, #10]
 2309 0076 591C     		adds	r1, r3, #1
 2310 0078 7981     		strh	r1, [r7, #10]	@ movhi
 2311              		.loc 1 545 21
 2312 007a 1344     		add	r3, r3, r2
 2313 007c 0722     		movs	r2, #7
 2314 007e 83F8EC20 		strb	r2, [r3, #236]
 546:ioLIB/dhcp.c  **** 	pDHCPMSG->OPT[k++] = 0x01;
 2315              		.loc 1 546 10
 2316 0082 834B     		ldr	r3, .L53
 2317 0084 1A68     		ldr	r2, [r3]
 2318              		.loc 1 546 17
 2319 0086 7B89     		ldrh	r3, [r7, #10]
 2320 0088 591C     		adds	r1, r3, #1
 2321 008a 7981     		strh	r1, [r7, #10]	@ movhi
 2322              		.loc 1 546 21
 2323 008c 1344     		add	r3, r3, r2
 2324 008e 0122     		movs	r2, #1
 2325 0090 83F8EC20 		strb	r2, [r3, #236]
 547:ioLIB/dhcp.c  **** 	pDHCPMSG->OPT[k++] = DHCP_CHADDR[0];
 2326              		.loc 1 547 10
 2327 0094 7E4B     		ldr	r3, .L53
 2328 0096 1A68     		ldr	r2, [r3]
 2329              		.loc 1 547 17
 2330 0098 7B89     		ldrh	r3, [r7, #10]
 2331 009a 591C     		adds	r1, r3, #1
 2332 009c 7981     		strh	r1, [r7, #10]	@ movhi
 2333 009e 1846     		mov	r0, r3
 2334              		.loc 1 547 34
 2335 00a0 7C4B     		ldr	r3, .L53+4
 2336 00a2 1978     		ldrb	r1, [r3]	@ zero_extendqisi2
 2337              		.loc 1 547 21
 2338 00a4 1318     		adds	r3, r2, r0
 2339 00a6 0A46     		mov	r2, r1
 2340 00a8 83F8EC20 		strb	r2, [r3, #236]
 548:ioLIB/dhcp.c  **** 	pDHCPMSG->OPT[k++] = DHCP_CHADDR[1];
 2341              		.loc 1 548 10
 2342 00ac 784B     		ldr	r3, .L53
 2343 00ae 1A68     		ldr	r2, [r3]
 2344              		.loc 1 548 17
 2345 00b0 7B89     		ldrh	r3, [r7, #10]
 2346 00b2 591C     		adds	r1, r3, #1
 2347 00b4 7981     		strh	r1, [r7, #10]	@ movhi
 2348 00b6 1846     		mov	r0, r3
 2349              		.loc 1 548 34
ARM GAS  C:\Users\clay0\AppData\Local\Temp\ccq2B2ZX.s 			page 51


 2350 00b8 764B     		ldr	r3, .L53+4
 2351 00ba 5978     		ldrb	r1, [r3, #1]	@ zero_extendqisi2
 2352              		.loc 1 548 21
 2353 00bc 1318     		adds	r3, r2, r0
 2354 00be 0A46     		mov	r2, r1
 2355 00c0 83F8EC20 		strb	r2, [r3, #236]
 549:ioLIB/dhcp.c  **** 	pDHCPMSG->OPT[k++] = DHCP_CHADDR[2];
 2356              		.loc 1 549 10
 2357 00c4 724B     		ldr	r3, .L53
 2358 00c6 1A68     		ldr	r2, [r3]
 2359              		.loc 1 549 17
 2360 00c8 7B89     		ldrh	r3, [r7, #10]
 2361 00ca 591C     		adds	r1, r3, #1
 2362 00cc 7981     		strh	r1, [r7, #10]	@ movhi
 2363 00ce 1846     		mov	r0, r3
 2364              		.loc 1 549 34
 2365 00d0 704B     		ldr	r3, .L53+4
 2366 00d2 9978     		ldrb	r1, [r3, #2]	@ zero_extendqisi2
 2367              		.loc 1 549 21
 2368 00d4 1318     		adds	r3, r2, r0
 2369 00d6 0A46     		mov	r2, r1
 2370 00d8 83F8EC20 		strb	r2, [r3, #236]
 550:ioLIB/dhcp.c  **** 	pDHCPMSG->OPT[k++] = DHCP_CHADDR[3];
 2371              		.loc 1 550 10
 2372 00dc 6C4B     		ldr	r3, .L53
 2373 00de 1A68     		ldr	r2, [r3]
 2374              		.loc 1 550 17
 2375 00e0 7B89     		ldrh	r3, [r7, #10]
 2376 00e2 591C     		adds	r1, r3, #1
 2377 00e4 7981     		strh	r1, [r7, #10]	@ movhi
 2378 00e6 1846     		mov	r0, r3
 2379              		.loc 1 550 34
 2380 00e8 6A4B     		ldr	r3, .L53+4
 2381 00ea D978     		ldrb	r1, [r3, #3]	@ zero_extendqisi2
 2382              		.loc 1 550 21
 2383 00ec 1318     		adds	r3, r2, r0
 2384 00ee 0A46     		mov	r2, r1
 2385 00f0 83F8EC20 		strb	r2, [r3, #236]
 551:ioLIB/dhcp.c  **** 	pDHCPMSG->OPT[k++] = DHCP_CHADDR[4];
 2386              		.loc 1 551 10
 2387 00f4 664B     		ldr	r3, .L53
 2388 00f6 1A68     		ldr	r2, [r3]
 2389              		.loc 1 551 17
 2390 00f8 7B89     		ldrh	r3, [r7, #10]
 2391 00fa 591C     		adds	r1, r3, #1
 2392 00fc 7981     		strh	r1, [r7, #10]	@ movhi
 2393 00fe 1846     		mov	r0, r3
 2394              		.loc 1 551 34
 2395 0100 644B     		ldr	r3, .L53+4
 2396 0102 1979     		ldrb	r1, [r3, #4]	@ zero_extendqisi2
 2397              		.loc 1 551 21
 2398 0104 1318     		adds	r3, r2, r0
 2399 0106 0A46     		mov	r2, r1
 2400 0108 83F8EC20 		strb	r2, [r3, #236]
 552:ioLIB/dhcp.c  **** 	pDHCPMSG->OPT[k++] = DHCP_CHADDR[5];
 2401              		.loc 1 552 10
 2402 010c 604B     		ldr	r3, .L53
ARM GAS  C:\Users\clay0\AppData\Local\Temp\ccq2B2ZX.s 			page 52


 2403 010e 1A68     		ldr	r2, [r3]
 2404              		.loc 1 552 17
 2405 0110 7B89     		ldrh	r3, [r7, #10]
 2406 0112 591C     		adds	r1, r3, #1
 2407 0114 7981     		strh	r1, [r7, #10]	@ movhi
 2408 0116 1846     		mov	r0, r3
 2409              		.loc 1 552 34
 2410 0118 5E4B     		ldr	r3, .L53+4
 2411 011a 5979     		ldrb	r1, [r3, #5]	@ zero_extendqisi2
 2412              		.loc 1 552 21
 2413 011c 1318     		adds	r3, r2, r0
 2414 011e 0A46     		mov	r2, r1
 2415 0120 83F8EC20 		strb	r2, [r3, #236]
 553:ioLIB/dhcp.c  **** 
 554:ioLIB/dhcp.c  **** 	pDHCPMSG->OPT[k++] = dhcpRequestedIPaddr;
 2416              		.loc 1 554 10
 2417 0124 5A4B     		ldr	r3, .L53
 2418 0126 1A68     		ldr	r2, [r3]
 2419              		.loc 1 554 17
 2420 0128 7B89     		ldrh	r3, [r7, #10]
 2421 012a 591C     		adds	r1, r3, #1
 2422 012c 7981     		strh	r1, [r7, #10]	@ movhi
 2423              		.loc 1 554 21
 2424 012e 1344     		add	r3, r3, r2
 2425 0130 3222     		movs	r2, #50
 2426 0132 83F8EC20 		strb	r2, [r3, #236]
 555:ioLIB/dhcp.c  **** 	pDHCPMSG->OPT[k++] = 0x04;
 2427              		.loc 1 555 10
 2428 0136 564B     		ldr	r3, .L53
 2429 0138 1A68     		ldr	r2, [r3]
 2430              		.loc 1 555 17
 2431 013a 7B89     		ldrh	r3, [r7, #10]
 2432 013c 591C     		adds	r1, r3, #1
 2433 013e 7981     		strh	r1, [r7, #10]	@ movhi
 2434              		.loc 1 555 21
 2435 0140 1344     		add	r3, r3, r2
 2436 0142 0422     		movs	r2, #4
 2437 0144 83F8EC20 		strb	r2, [r3, #236]
 556:ioLIB/dhcp.c  **** 	pDHCPMSG->OPT[k++] = DHCP_allocated_ip[0];
 2438              		.loc 1 556 10
 2439 0148 514B     		ldr	r3, .L53
 2440 014a 1A68     		ldr	r2, [r3]
 2441              		.loc 1 556 17
 2442 014c 7B89     		ldrh	r3, [r7, #10]
 2443 014e 591C     		adds	r1, r3, #1
 2444 0150 7981     		strh	r1, [r7, #10]	@ movhi
 2445 0152 1846     		mov	r0, r3
 2446              		.loc 1 556 40
 2447 0154 504B     		ldr	r3, .L53+8
 2448 0156 1978     		ldrb	r1, [r3]	@ zero_extendqisi2
 2449              		.loc 1 556 21
 2450 0158 1318     		adds	r3, r2, r0
 2451 015a 0A46     		mov	r2, r1
 2452 015c 83F8EC20 		strb	r2, [r3, #236]
 557:ioLIB/dhcp.c  **** 	pDHCPMSG->OPT[k++] = DHCP_allocated_ip[1];
 2453              		.loc 1 557 10
 2454 0160 4B4B     		ldr	r3, .L53
ARM GAS  C:\Users\clay0\AppData\Local\Temp\ccq2B2ZX.s 			page 53


 2455 0162 1A68     		ldr	r2, [r3]
 2456              		.loc 1 557 17
 2457 0164 7B89     		ldrh	r3, [r7, #10]
 2458 0166 591C     		adds	r1, r3, #1
 2459 0168 7981     		strh	r1, [r7, #10]	@ movhi
 2460 016a 1846     		mov	r0, r3
 2461              		.loc 1 557 40
 2462 016c 4A4B     		ldr	r3, .L53+8
 2463 016e 5978     		ldrb	r1, [r3, #1]	@ zero_extendqisi2
 2464              		.loc 1 557 21
 2465 0170 1318     		adds	r3, r2, r0
 2466 0172 0A46     		mov	r2, r1
 2467 0174 83F8EC20 		strb	r2, [r3, #236]
 558:ioLIB/dhcp.c  **** 	pDHCPMSG->OPT[k++] = DHCP_allocated_ip[2];
 2468              		.loc 1 558 10
 2469 0178 454B     		ldr	r3, .L53
 2470 017a 1A68     		ldr	r2, [r3]
 2471              		.loc 1 558 17
 2472 017c 7B89     		ldrh	r3, [r7, #10]
 2473 017e 591C     		adds	r1, r3, #1
 2474 0180 7981     		strh	r1, [r7, #10]	@ movhi
 2475 0182 1846     		mov	r0, r3
 2476              		.loc 1 558 40
 2477 0184 444B     		ldr	r3, .L53+8
 2478 0186 9978     		ldrb	r1, [r3, #2]	@ zero_extendqisi2
 2479              		.loc 1 558 21
 2480 0188 1318     		adds	r3, r2, r0
 2481 018a 0A46     		mov	r2, r1
 2482 018c 83F8EC20 		strb	r2, [r3, #236]
 559:ioLIB/dhcp.c  **** 	pDHCPMSG->OPT[k++] = DHCP_allocated_ip[3];
 2483              		.loc 1 559 10
 2484 0190 3F4B     		ldr	r3, .L53
 2485 0192 1A68     		ldr	r2, [r3]
 2486              		.loc 1 559 17
 2487 0194 7B89     		ldrh	r3, [r7, #10]
 2488 0196 591C     		adds	r1, r3, #1
 2489 0198 7981     		strh	r1, [r7, #10]	@ movhi
 2490 019a 1846     		mov	r0, r3
 2491              		.loc 1 559 40
 2492 019c 3E4B     		ldr	r3, .L53+8
 2493 019e D978     		ldrb	r1, [r3, #3]	@ zero_extendqisi2
 2494              		.loc 1 559 21
 2495 01a0 1318     		adds	r3, r2, r0
 2496 01a2 0A46     		mov	r2, r1
 2497 01a4 83F8EC20 		strb	r2, [r3, #236]
 560:ioLIB/dhcp.c  **** 
 561:ioLIB/dhcp.c  **** 	pDHCPMSG->OPT[k++] = dhcpServerIdentifier;
 2498              		.loc 1 561 10
 2499 01a8 394B     		ldr	r3, .L53
 2500 01aa 1A68     		ldr	r2, [r3]
 2501              		.loc 1 561 17
 2502 01ac 7B89     		ldrh	r3, [r7, #10]
 2503 01ae 591C     		adds	r1, r3, #1
 2504 01b0 7981     		strh	r1, [r7, #10]	@ movhi
 2505              		.loc 1 561 21
 2506 01b2 1344     		add	r3, r3, r2
 2507 01b4 3622     		movs	r2, #54
ARM GAS  C:\Users\clay0\AppData\Local\Temp\ccq2B2ZX.s 			page 54


 2508 01b6 83F8EC20 		strb	r2, [r3, #236]
 562:ioLIB/dhcp.c  **** 	pDHCPMSG->OPT[k++] = 0x04;
 2509              		.loc 1 562 10
 2510 01ba 354B     		ldr	r3, .L53
 2511 01bc 1A68     		ldr	r2, [r3]
 2512              		.loc 1 562 17
 2513 01be 7B89     		ldrh	r3, [r7, #10]
 2514 01c0 591C     		adds	r1, r3, #1
 2515 01c2 7981     		strh	r1, [r7, #10]	@ movhi
 2516              		.loc 1 562 21
 2517 01c4 1344     		add	r3, r3, r2
 2518 01c6 0422     		movs	r2, #4
 2519 01c8 83F8EC20 		strb	r2, [r3, #236]
 563:ioLIB/dhcp.c  **** 	pDHCPMSG->OPT[k++] = DHCP_SIP[0];
 2520              		.loc 1 563 10
 2521 01cc 304B     		ldr	r3, .L53
 2522 01ce 1A68     		ldr	r2, [r3]
 2523              		.loc 1 563 17
 2524 01d0 7B89     		ldrh	r3, [r7, #10]
 2525 01d2 591C     		adds	r1, r3, #1
 2526 01d4 7981     		strh	r1, [r7, #10]	@ movhi
 2527 01d6 1846     		mov	r0, r3
 2528              		.loc 1 563 31
 2529 01d8 304B     		ldr	r3, .L53+12
 2530 01da 1978     		ldrb	r1, [r3]	@ zero_extendqisi2
 2531              		.loc 1 563 21
 2532 01dc 1318     		adds	r3, r2, r0
 2533 01de 0A46     		mov	r2, r1
 2534 01e0 83F8EC20 		strb	r2, [r3, #236]
 564:ioLIB/dhcp.c  **** 	pDHCPMSG->OPT[k++] = DHCP_SIP[1];
 2535              		.loc 1 564 10
 2536 01e4 2A4B     		ldr	r3, .L53
 2537 01e6 1A68     		ldr	r2, [r3]
 2538              		.loc 1 564 17
 2539 01e8 7B89     		ldrh	r3, [r7, #10]
 2540 01ea 591C     		adds	r1, r3, #1
 2541 01ec 7981     		strh	r1, [r7, #10]	@ movhi
 2542 01ee 1846     		mov	r0, r3
 2543              		.loc 1 564 31
 2544 01f0 2A4B     		ldr	r3, .L53+12
 2545 01f2 5978     		ldrb	r1, [r3, #1]	@ zero_extendqisi2
 2546              		.loc 1 564 21
 2547 01f4 1318     		adds	r3, r2, r0
 2548 01f6 0A46     		mov	r2, r1
 2549 01f8 83F8EC20 		strb	r2, [r3, #236]
 565:ioLIB/dhcp.c  **** 	pDHCPMSG->OPT[k++] = DHCP_SIP[2];
 2550              		.loc 1 565 10
 2551 01fc 244B     		ldr	r3, .L53
 2552 01fe 1A68     		ldr	r2, [r3]
 2553              		.loc 1 565 17
 2554 0200 7B89     		ldrh	r3, [r7, #10]
 2555 0202 591C     		adds	r1, r3, #1
 2556 0204 7981     		strh	r1, [r7, #10]	@ movhi
 2557 0206 1846     		mov	r0, r3
 2558              		.loc 1 565 31
 2559 0208 244B     		ldr	r3, .L53+12
 2560 020a 9978     		ldrb	r1, [r3, #2]	@ zero_extendqisi2
ARM GAS  C:\Users\clay0\AppData\Local\Temp\ccq2B2ZX.s 			page 55


 2561              		.loc 1 565 21
 2562 020c 1318     		adds	r3, r2, r0
 2563 020e 0A46     		mov	r2, r1
 2564 0210 83F8EC20 		strb	r2, [r3, #236]
 566:ioLIB/dhcp.c  **** 	pDHCPMSG->OPT[k++] = DHCP_SIP[3];
 2565              		.loc 1 566 10
 2566 0214 1E4B     		ldr	r3, .L53
 2567 0216 1A68     		ldr	r2, [r3]
 2568              		.loc 1 566 17
 2569 0218 7B89     		ldrh	r3, [r7, #10]
 2570 021a 591C     		adds	r1, r3, #1
 2571 021c 7981     		strh	r1, [r7, #10]	@ movhi
 2572 021e 1846     		mov	r0, r3
 2573              		.loc 1 566 31
 2574 0220 1E4B     		ldr	r3, .L53+12
 2575 0222 D978     		ldrb	r1, [r3, #3]	@ zero_extendqisi2
 2576              		.loc 1 566 21
 2577 0224 1318     		adds	r3, r2, r0
 2578 0226 0A46     		mov	r2, r1
 2579 0228 83F8EC20 		strb	r2, [r3, #236]
 567:ioLIB/dhcp.c  **** 
 568:ioLIB/dhcp.c  **** 	pDHCPMSG->OPT[k++] = endOption;
 2580              		.loc 1 568 10
 2581 022c 184B     		ldr	r3, .L53
 2582 022e 1A68     		ldr	r2, [r3]
 2583              		.loc 1 568 17
 2584 0230 7B89     		ldrh	r3, [r7, #10]
 2585 0232 591C     		adds	r1, r3, #1
 2586 0234 7981     		strh	r1, [r7, #10]	@ movhi
 2587              		.loc 1 568 21
 2588 0236 1344     		add	r3, r3, r2
 2589 0238 FF22     		movs	r2, #255
 2590 023a 83F8EC20 		strb	r2, [r3, #236]
 569:ioLIB/dhcp.c  **** 
 570:ioLIB/dhcp.c  **** 	for (i = k; i < OPT_SIZE; i++) pDHCPMSG->OPT[i] = 0;
 2591              		.loc 1 570 9
 2592 023e 7B89     		ldrh	r3, [r7, #10]
 2593 0240 FB60     		str	r3, [r7, #12]
 2594              		.loc 1 570 2
 2595 0242 09E0     		b	.L51
 2596              	.L52:
 2597              		.loc 1 570 41 discriminator 3
 2598 0244 124B     		ldr	r3, .L53
 2599 0246 1A68     		ldr	r2, [r3]
 2600              		.loc 1 570 50 discriminator 3
 2601 0248 FB68     		ldr	r3, [r7, #12]
 2602 024a 1344     		add	r3, r3, r2
 2603 024c EC33     		adds	r3, r3, #236
 2604 024e 0022     		movs	r2, #0
 2605 0250 1A70     		strb	r2, [r3]
 2606              		.loc 1 570 29 discriminator 3
 2607 0252 FB68     		ldr	r3, [r7, #12]
 2608 0254 0133     		adds	r3, r3, #1
 2609 0256 FB60     		str	r3, [r7, #12]
 2610              	.L51:
 2611              		.loc 1 570 2 discriminator 1
 2612 0258 FB68     		ldr	r3, [r7, #12]
ARM GAS  C:\Users\clay0\AppData\Local\Temp\ccq2B2ZX.s 			page 56


 2613 025a B3F59C7F 		cmp	r3, #312
 2614 025e F1DB     		blt	.L52
 571:ioLIB/dhcp.c  **** 
 572:ioLIB/dhcp.c  **** 	//send broadcasting packet
 573:ioLIB/dhcp.c  **** 	ip[0] = 0xFF;
 2615              		.loc 1 573 8
 2616 0260 FF23     		movs	r3, #255
 2617 0262 3B71     		strb	r3, [r7, #4]
 574:ioLIB/dhcp.c  **** 	ip[1] = 0xFF;
 2618              		.loc 1 574 8
 2619 0264 FF23     		movs	r3, #255
 2620 0266 7B71     		strb	r3, [r7, #5]
 575:ioLIB/dhcp.c  **** 	ip[2] = 0xFF;
 2621              		.loc 1 575 8
 2622 0268 FF23     		movs	r3, #255
 2623 026a BB71     		strb	r3, [r7, #6]
 576:ioLIB/dhcp.c  **** 	ip[3] = 0xFF;
 2624              		.loc 1 576 8
 2625 026c FF23     		movs	r3, #255
 2626 026e FB71     		strb	r3, [r7, #7]
 577:ioLIB/dhcp.c  **** 
 578:ioLIB/dhcp.c  **** #ifdef _DHCP_DEBUG_
 579:ioLIB/dhcp.c  **** 	printf("\r\n> Send DHCP_DECLINE\r\n");
 580:ioLIB/dhcp.c  **** #endif
 581:ioLIB/dhcp.c  **** 
 582:ioLIB/dhcp.c  **** 	sendto(DHCP_SOCKET, (uint8_t *)pDHCPMSG, RIP_MSG_SIZE, ip, DHCP_SERVER_PORT);
 2627              		.loc 1 582 2
 2628 0270 0B4B     		ldr	r3, .L53+16
 2629 0272 1878     		ldrb	r0, [r3]	@ zero_extendqisi2
 2630 0274 064B     		ldr	r3, .L53
 2631 0276 1968     		ldr	r1, [r3]
 2632 0278 3B1D     		adds	r3, r7, #4
 2633 027a 4322     		movs	r2, #67
 2634 027c 0092     		str	r2, [sp]
 2635 027e 4FF40972 		mov	r2, #548
 2636 0282 FFF7FEFF 		bl	sendto
 583:ioLIB/dhcp.c  **** }
 2637              		.loc 1 583 1
 2638 0286 00BF     		nop
 2639 0288 1037     		adds	r7, r7, #16
 2640              	.LCFI30:
 2641              		.cfi_def_cfa_offset 8
 2642 028a BD46     		mov	sp, r7
 2643              	.LCFI31:
 2644              		.cfi_def_cfa_register 13
 2645              		@ sp needed
 2646 028c 80BD     		pop	{r7, pc}
 2647              	.L54:
 2648 028e 00BF     		.align	2
 2649              	.L53:
 2650 0290 00000000 		.word	pDHCPMSG
 2651 0294 00000000 		.word	DHCP_CHADDR
 2652 0298 00000000 		.word	DHCP_allocated_ip
 2653 029c 00000000 		.word	DHCP_SIP
 2654 02a0 00000000 		.word	DHCP_SOCKET
 2655              		.cfi_endproc
 2656              	.LFE7:
ARM GAS  C:\Users\clay0\AppData\Local\Temp\ccq2B2ZX.s 			page 57


 2658              		.section	.text.parseDHCPMSG,"ax",%progbits
 2659              		.align	1
 2660              		.global	parseDHCPMSG
 2661              		.syntax unified
 2662              		.thumb
 2663              		.thumb_func
 2665              	parseDHCPMSG:
 2666              	.LFB8:
 584:ioLIB/dhcp.c  **** 
 585:ioLIB/dhcp.c  **** /* PARSE REPLY pDHCPMSG */
 586:ioLIB/dhcp.c  **** int8_t parseDHCPMSG(void)
 587:ioLIB/dhcp.c  **** {
 2667              		.loc 1 587 1
 2668              		.cfi_startproc
 2669              		@ args = 0, pretend = 0, frame = 24
 2670              		@ frame_needed = 1, uses_anonymous_args = 0
 2671 0000 90B5     		push	{r4, r7, lr}
 2672              	.LCFI32:
 2673              		.cfi_def_cfa_offset 12
 2674              		.cfi_offset 4, -12
 2675              		.cfi_offset 7, -8
 2676              		.cfi_offset 14, -4
 2677 0002 89B0     		sub	sp, sp, #36
 2678              	.LCFI33:
 2679              		.cfi_def_cfa_offset 48
 2680 0004 02AF     		add	r7, sp, #8
 2681              	.LCFI34:
 2682              		.cfi_def_cfa 7, 40
 588:ioLIB/dhcp.c  **** 	uint8_t svr_addr[6];
 589:ioLIB/dhcp.c  **** 	uint16_t  svr_port;
 590:ioLIB/dhcp.c  **** 	uint16_t len;
 591:ioLIB/dhcp.c  **** 
 592:ioLIB/dhcp.c  **** 	uint8_t * p;
 593:ioLIB/dhcp.c  **** 	uint8_t * e;
 594:ioLIB/dhcp.c  **** 	uint8_t type = 0;
 2683              		.loc 1 594 10
 2684 0006 0023     		movs	r3, #0
 2685 0008 FB74     		strb	r3, [r7, #19]
 595:ioLIB/dhcp.c  **** 	uint8_t opt_len;
 596:ioLIB/dhcp.c  ****    
 597:ioLIB/dhcp.c  ****    if((len = getSn_RX_RSR(DHCP_SOCKET)) > 0)
 2686              		.loc 1 597 14
 2687 000a A14B     		ldr	r3, .L80
 2688 000c 1B78     		ldrb	r3, [r3]	@ zero_extendqisi2
 2689 000e 1846     		mov	r0, r3
 2690 0010 FFF7FEFF 		bl	getSn_RX_RSR
 2691 0014 0346     		mov	r3, r0
 2692 0016 3B82     		strh	r3, [r7, #16]	@ movhi
 2693              		.loc 1 597 6
 2694 0018 3B8A     		ldrh	r3, [r7, #16]
 2695 001a 002B     		cmp	r3, #0
 2696 001c 11D0     		beq	.L56
 598:ioLIB/dhcp.c  ****    {
 599:ioLIB/dhcp.c  ****    	len = recvfrom(DHCP_SOCKET, (uint8_t *)pDHCPMSG, len, svr_addr, &svr_port);
 2697              		.loc 1 599 11
 2698 001e 9C4B     		ldr	r3, .L80
 2699 0020 1878     		ldrb	r0, [r3]	@ zero_extendqisi2
ARM GAS  C:\Users\clay0\AppData\Local\Temp\ccq2B2ZX.s 			page 58


 2700 0022 9C4B     		ldr	r3, .L80+4
 2701 0024 1968     		ldr	r1, [r3]
 2702 0026 3C1D     		adds	r4, r7, #4
 2703 0028 3A8A     		ldrh	r2, [r7, #16]
 2704 002a BB1C     		adds	r3, r7, #2
 2705 002c 0093     		str	r3, [sp]
 2706 002e 2346     		mov	r3, r4
 2707 0030 FFF7FEFF 		bl	recvfrom
 2708 0034 0346     		mov	r3, r0
 2709              		.loc 1 599 9
 2710 0036 3B82     		strh	r3, [r7, #16]	@ movhi
 600:ioLIB/dhcp.c  ****    #ifdef _DHCP_DEBUG_   
 601:ioLIB/dhcp.c  ****       printf("DHCP message : %d.%d.%d.%d(%d) %d received. \r\n",svr_addr[0],svr_addr[1],svr_addr[2]
 602:ioLIB/dhcp.c  ****    #endif   
 603:ioLIB/dhcp.c  ****    }
 604:ioLIB/dhcp.c  ****    else return 0;
 605:ioLIB/dhcp.c  **** 	if (svr_port == DHCP_SERVER_PORT) {
 2711              		.loc 1 605 15
 2712 0038 7B88     		ldrh	r3, [r7, #2]
 2713              		.loc 1 605 5
 2714 003a 432B     		cmp	r3, #67
 2715 003c 40F0ED81 		bne	.L59
 2716 0040 01E0     		b	.L79
 2717              	.L56:
 604:ioLIB/dhcp.c  **** 	if (svr_port == DHCP_SERVER_PORT) {
 2718              		.loc 1 604 16
 2719 0042 0023     		movs	r3, #0
 2720 0044 EBE1     		b	.L78
 2721              	.L79:
 606:ioLIB/dhcp.c  ****       // compare mac address
 607:ioLIB/dhcp.c  **** 		if ( (pDHCPMSG->chaddr[0] != DHCP_CHADDR[0]) || (pDHCPMSG->chaddr[1] != DHCP_CHADDR[1]) ||
 2722              		.loc 1 607 17
 2723 0046 934B     		ldr	r3, .L80+4
 2724 0048 1B68     		ldr	r3, [r3]
 2725              		.loc 1 607 25
 2726 004a 1A7F     		ldrb	r2, [r3, #28]	@ zero_extendqisi2
 2727              		.loc 1 607 43
 2728 004c 924B     		ldr	r3, .L80+8
 2729 004e 1B78     		ldrb	r3, [r3]	@ zero_extendqisi2
 2730              		.loc 1 607 6
 2731 0050 9A42     		cmp	r2, r3
 2732 0052 24D1     		bne	.L60
 2733              		.loc 1 607 60 discriminator 1
 2734 0054 8F4B     		ldr	r3, .L80+4
 2735 0056 1B68     		ldr	r3, [r3]
 2736              		.loc 1 607 68 discriminator 1
 2737 0058 5A7F     		ldrb	r2, [r3, #29]	@ zero_extendqisi2
 2738              		.loc 1 607 86 discriminator 1
 2739 005a 8F4B     		ldr	r3, .L80+8
 2740 005c 5B78     		ldrb	r3, [r3, #1]	@ zero_extendqisi2
 2741              		.loc 1 607 48 discriminator 1
 2742 005e 9A42     		cmp	r2, r3
 2743 0060 1DD1     		bne	.L60
 608:ioLIB/dhcp.c  **** 		     (pDHCPMSG->chaddr[2] != DHCP_CHADDR[2]) || (pDHCPMSG->chaddr[3] != DHCP_CHADDR[3]) ||
 2744              		.loc 1 608 17 discriminator 2
 2745 0062 8C4B     		ldr	r3, .L80+4
 2746 0064 1B68     		ldr	r3, [r3]
ARM GAS  C:\Users\clay0\AppData\Local\Temp\ccq2B2ZX.s 			page 59


 2747              		.loc 1 608 25 discriminator 2
 2748 0066 9A7F     		ldrb	r2, [r3, #30]	@ zero_extendqisi2
 2749              		.loc 1 608 43 discriminator 2
 2750 0068 8B4B     		ldr	r3, .L80+8
 2751 006a 9B78     		ldrb	r3, [r3, #2]	@ zero_extendqisi2
 607:ioLIB/dhcp.c  **** 		     (pDHCPMSG->chaddr[2] != DHCP_CHADDR[2]) || (pDHCPMSG->chaddr[3] != DHCP_CHADDR[3]) ||
 2752              		.loc 1 607 91 discriminator 2
 2753 006c 9A42     		cmp	r2, r3
 2754 006e 16D1     		bne	.L60
 2755              		.loc 1 608 60
 2756 0070 884B     		ldr	r3, .L80+4
 2757 0072 1B68     		ldr	r3, [r3]
 2758              		.loc 1 608 68
 2759 0074 DA7F     		ldrb	r2, [r3, #31]	@ zero_extendqisi2
 2760              		.loc 1 608 86
 2761 0076 884B     		ldr	r3, .L80+8
 2762 0078 DB78     		ldrb	r3, [r3, #3]	@ zero_extendqisi2
 2763              		.loc 1 608 48
 2764 007a 9A42     		cmp	r2, r3
 2765 007c 0FD1     		bne	.L60
 609:ioLIB/dhcp.c  **** 		     (pDHCPMSG->chaddr[4] != DHCP_CHADDR[4]) || (pDHCPMSG->chaddr[5] != DHCP_CHADDR[5])   )
 2766              		.loc 1 609 17 discriminator 1
 2767 007e 854B     		ldr	r3, .L80+4
 2768 0080 1B68     		ldr	r3, [r3]
 2769              		.loc 1 609 25 discriminator 1
 2770 0082 93F82020 		ldrb	r2, [r3, #32]	@ zero_extendqisi2
 2771              		.loc 1 609 43 discriminator 1
 2772 0086 844B     		ldr	r3, .L80+8
 2773 0088 1B79     		ldrb	r3, [r3, #4]	@ zero_extendqisi2
 608:ioLIB/dhcp.c  **** 		     (pDHCPMSG->chaddr[2] != DHCP_CHADDR[2]) || (pDHCPMSG->chaddr[3] != DHCP_CHADDR[3]) ||
 2774              		.loc 1 608 91 discriminator 1
 2775 008a 9A42     		cmp	r2, r3
 2776 008c 07D1     		bne	.L60
 2777              		.loc 1 609 60
 2778 008e 814B     		ldr	r3, .L80+4
 2779 0090 1B68     		ldr	r3, [r3]
 2780              		.loc 1 609 68
 2781 0092 93F82120 		ldrb	r2, [r3, #33]	@ zero_extendqisi2
 2782              		.loc 1 609 86
 2783 0096 804B     		ldr	r3, .L80+8
 2784 0098 5B79     		ldrb	r3, [r3, #5]	@ zero_extendqisi2
 2785              		.loc 1 609 48
 2786 009a 9A42     		cmp	r2, r3
 2787 009c 01D0     		beq	.L61
 2788              	.L60:
 610:ioLIB/dhcp.c  **** 		{
 611:ioLIB/dhcp.c  **** #ifdef _DHCP_DEBUG_
 612:ioLIB/dhcp.c  ****             printf("No My DHCP Message. This message is ignored.\r\n");
 613:ioLIB/dhcp.c  **** #endif
 614:ioLIB/dhcp.c  ****          return 0;
 2789              		.loc 1 614 17
 2790 009e 0023     		movs	r3, #0
 2791 00a0 BDE1     		b	.L78
 2792              	.L61:
 615:ioLIB/dhcp.c  **** 		}
 616:ioLIB/dhcp.c  ****         //compare DHCP server ip address
 617:ioLIB/dhcp.c  ****         if((DHCP_SIP[0]!=0) || (DHCP_SIP[1]!=0) || (DHCP_SIP[2]!=0) || (DHCP_SIP[3]!=0)){
ARM GAS  C:\Users\clay0\AppData\Local\Temp\ccq2B2ZX.s 			page 60


 2793              		.loc 1 617 21
 2794 00a2 7E4B     		ldr	r3, .L80+12
 2795 00a4 1B78     		ldrb	r3, [r3]	@ zero_extendqisi2
 2796              		.loc 1 617 11
 2797 00a6 002B     		cmp	r3, #0
 2798 00a8 0BD1     		bne	.L62
 2799              		.loc 1 617 41 discriminator 1
 2800 00aa 7C4B     		ldr	r3, .L80+12
 2801 00ac 5B78     		ldrb	r3, [r3, #1]	@ zero_extendqisi2
 2802              		.loc 1 617 29 discriminator 1
 2803 00ae 002B     		cmp	r3, #0
 2804 00b0 07D1     		bne	.L62
 2805              		.loc 1 617 61 discriminator 2
 2806 00b2 7A4B     		ldr	r3, .L80+12
 2807 00b4 9B78     		ldrb	r3, [r3, #2]	@ zero_extendqisi2
 2808              		.loc 1 617 49 discriminator 2
 2809 00b6 002B     		cmp	r3, #0
 2810 00b8 03D1     		bne	.L62
 2811              		.loc 1 617 81 discriminator 3
 2812 00ba 784B     		ldr	r3, .L80+12
 2813 00bc DB78     		ldrb	r3, [r3, #3]	@ zero_extendqisi2
 2814              		.loc 1 617 69 discriminator 3
 2815 00be 002B     		cmp	r3, #0
 2816 00c0 29D0     		beq	.L63
 2817              	.L62:
 618:ioLIB/dhcp.c  ****             if( ((svr_addr[0]!=DHCP_SIP[0])|| (svr_addr[1]!=DHCP_SIP[1])|| (svr_addr[2]!=DHCP_SIP[2
 2818              		.loc 1 618 27
 2819 00c2 3A79     		ldrb	r2, [r7, #4]	@ zero_extendqisi2
 2820              		.loc 1 618 40
 2821 00c4 754B     		ldr	r3, .L80+12
 2822 00c6 1B78     		ldrb	r3, [r3]	@ zero_extendqisi2
 2823              		.loc 1 618 15
 2824 00c8 9A42     		cmp	r2, r3
 2825 00ca 0ED1     		bne	.L64
 2826              		.loc 1 618 56 discriminator 2
 2827 00cc 7A79     		ldrb	r2, [r7, #5]	@ zero_extendqisi2
 2828              		.loc 1 618 69 discriminator 2
 2829 00ce 734B     		ldr	r3, .L80+12
 2830 00d0 5B78     		ldrb	r3, [r3, #1]	@ zero_extendqisi2
 2831              		.loc 1 618 44 discriminator 2
 2832 00d2 9A42     		cmp	r2, r3
 2833 00d4 09D1     		bne	.L64
 2834              		.loc 1 618 85 discriminator 4
 2835 00d6 BA79     		ldrb	r2, [r7, #6]	@ zero_extendqisi2
 2836              		.loc 1 618 98 discriminator 4
 2837 00d8 704B     		ldr	r3, .L80+12
 2838 00da 9B78     		ldrb	r3, [r3, #2]	@ zero_extendqisi2
 2839              		.loc 1 618 73 discriminator 4
 2840 00dc 9A42     		cmp	r2, r3
 2841 00de 04D1     		bne	.L64
 2842              		.loc 1 618 114 discriminator 6
 2843 00e0 FA79     		ldrb	r2, [r7, #7]	@ zero_extendqisi2
 2844              		.loc 1 618 127 discriminator 6
 2845 00e2 6E4B     		ldr	r3, .L80+12
 2846 00e4 DB78     		ldrb	r3, [r3, #3]	@ zero_extendqisi2
 2847              		.loc 1 618 102 discriminator 6
 2848 00e6 9A42     		cmp	r2, r3
ARM GAS  C:\Users\clay0\AppData\Local\Temp\ccq2B2ZX.s 			page 61


 2849 00e8 15D0     		beq	.L63
 2850              	.L64:
 619:ioLIB/dhcp.c  ****                 ((svr_addr[0]!=DHCP_REAL_SIP[0])|| (svr_addr[1]!=DHCP_REAL_SIP[1])|| (svr_addr[2]!=
 2851              		.loc 1 619 27 discriminator 7
 2852 00ea 3A79     		ldrb	r2, [r7, #4]	@ zero_extendqisi2
 2853              		.loc 1 619 45 discriminator 7
 2854 00ec 6C4B     		ldr	r3, .L80+16
 2855 00ee 1B78     		ldrb	r3, [r3]	@ zero_extendqisi2
 618:ioLIB/dhcp.c  ****             if( ((svr_addr[0]!=DHCP_SIP[0])|| (svr_addr[1]!=DHCP_SIP[1])|| (svr_addr[2]!=DHCP_SIP[2
 2856              		.loc 1 618 133 discriminator 7
 2857 00f0 9A42     		cmp	r2, r3
 2858 00f2 0ED1     		bne	.L65
 2859              		.loc 1 619 61
 2860 00f4 7A79     		ldrb	r2, [r7, #5]	@ zero_extendqisi2
 2861              		.loc 1 619 79
 2862 00f6 6A4B     		ldr	r3, .L80+16
 2863 00f8 5B78     		ldrb	r3, [r3, #1]	@ zero_extendqisi2
 2864              		.loc 1 619 49
 2865 00fa 9A42     		cmp	r2, r3
 2866 00fc 09D1     		bne	.L65
 2867              		.loc 1 619 95 discriminator 1
 2868 00fe BA79     		ldrb	r2, [r7, #6]	@ zero_extendqisi2
 2869              		.loc 1 619 113 discriminator 1
 2870 0100 674B     		ldr	r3, .L80+16
 2871 0102 9B78     		ldrb	r3, [r3, #2]	@ zero_extendqisi2
 2872              		.loc 1 619 83 discriminator 1
 2873 0104 9A42     		cmp	r2, r3
 2874 0106 04D1     		bne	.L65
 2875              		.loc 1 619 129 discriminator 2
 2876 0108 FA79     		ldrb	r2, [r7, #7]	@ zero_extendqisi2
 2877              		.loc 1 619 147 discriminator 2
 2878 010a 654B     		ldr	r3, .L80+16
 2879 010c DB78     		ldrb	r3, [r3, #3]	@ zero_extendqisi2
 2880              		.loc 1 619 117 discriminator 2
 2881 010e 9A42     		cmp	r2, r3
 2882 0110 01D0     		beq	.L63
 2883              	.L65:
 620:ioLIB/dhcp.c  ****             {
 621:ioLIB/dhcp.c  **** #ifdef _DHCP_DEBUG_
 622:ioLIB/dhcp.c  ****                 printf("Another DHCP sever send a response message. This is ignored.\r\n");
 623:ioLIB/dhcp.c  **** #endif
 624:ioLIB/dhcp.c  ****                 return 0;
 2884              		.loc 1 624 24
 2885 0112 0023     		movs	r3, #0
 2886 0114 83E1     		b	.L78
 2887              	.L63:
 625:ioLIB/dhcp.c  ****             }
 626:ioLIB/dhcp.c  ****         }
 627:ioLIB/dhcp.c  **** 		p = (uint8_t *)(&pDHCPMSG->op);
 2888              		.loc 1 627 28
 2889 0116 5F4B     		ldr	r3, .L80+4
 2890 0118 1B68     		ldr	r3, [r3]
 2891              		.loc 1 627 5
 2892 011a 7B61     		str	r3, [r7, #20]
 628:ioLIB/dhcp.c  **** 		p = p + 240;      // 240 = sizeof(RIP_MSG) + MAGIC_COOKIE size in RIP_MSG.opt - sizeof(RIP_MSG.op
 2893              		.loc 1 628 5
 2894 011c 7B69     		ldr	r3, [r7, #20]
ARM GAS  C:\Users\clay0\AppData\Local\Temp\ccq2B2ZX.s 			page 62


 2895 011e F033     		adds	r3, r3, #240
 2896 0120 7B61     		str	r3, [r7, #20]
 629:ioLIB/dhcp.c  **** 		e = p + (len - 240);
 2897              		.loc 1 629 9
 2898 0122 3B8A     		ldrh	r3, [r7, #16]
 2899 0124 F03B     		subs	r3, r3, #240
 2900              		.loc 1 629 5
 2901 0126 7A69     		ldr	r2, [r7, #20]
 2902 0128 1344     		add	r3, r3, r2
 2903 012a FB60     		str	r3, [r7, #12]
 630:ioLIB/dhcp.c  **** 
 631:ioLIB/dhcp.c  **** 		while ( p < e ) {
 2904              		.loc 1 631 9
 2905 012c 70E1     		b	.L66
 2906              	.L77:
 632:ioLIB/dhcp.c  **** 
 633:ioLIB/dhcp.c  **** 			switch ( *p ) {
 2907              		.loc 1 633 13
 2908 012e 7B69     		ldr	r3, [r7, #20]
 2909 0130 1B78     		ldrb	r3, [r3]	@ zero_extendqisi2
 2910              		.loc 1 633 4
 2911 0132 362B     		cmp	r3, #54
 2912 0134 76DC     		bgt	.L67
 2913 0136 002B     		cmp	r3, #0
 2914 0138 C0F25D81 		blt	.L68
 2915 013c 362B     		cmp	r3, #54
 2916 013e 00F25A81 		bhi	.L68
 2917 0142 01A2     		adr	r2, .L70
 2918 0144 52F823F0 		ldr	pc, [r2, r3, lsl #2]
 2919              		.p2align 2
 2920              	.L70:
 2921 0148 31020000 		.word	.L76+1
 2922 014c 51020000 		.word	.L75+1
 2923 0150 F7030000 		.word	.L68+1
 2924 0154 A9020000 		.word	.L74+1
 2925 0158 F7030000 		.word	.L68+1
 2926 015c F7030000 		.word	.L68+1
 2927 0160 F5020000 		.word	.L73+1
 2928 0164 F7030000 		.word	.L68+1
 2929 0168 F7030000 		.word	.L68+1
 2930 016c F7030000 		.word	.L68+1
 2931 0170 F7030000 		.word	.L68+1
 2932 0174 F7030000 		.word	.L68+1
 2933 0178 F7030000 		.word	.L68+1
 2934 017c F7030000 		.word	.L68+1
 2935 0180 F7030000 		.word	.L68+1
 2936 0184 F7030000 		.word	.L68+1
 2937 0188 F7030000 		.word	.L68+1
 2938 018c F7030000 		.word	.L68+1
 2939 0190 F7030000 		.word	.L68+1
 2940 0194 F7030000 		.word	.L68+1
 2941 0198 F7030000 		.word	.L68+1
 2942 019c F7030000 		.word	.L68+1
 2943 01a0 F7030000 		.word	.L68+1
 2944 01a4 F7030000 		.word	.L68+1
 2945 01a8 F7030000 		.word	.L68+1
 2946 01ac F7030000 		.word	.L68+1
ARM GAS  C:\Users\clay0\AppData\Local\Temp\ccq2B2ZX.s 			page 63


 2947 01b0 F7030000 		.word	.L68+1
 2948 01b4 F7030000 		.word	.L68+1
 2949 01b8 F7030000 		.word	.L68+1
 2950 01bc F7030000 		.word	.L68+1
 2951 01c0 F7030000 		.word	.L68+1
 2952 01c4 F7030000 		.word	.L68+1
 2953 01c8 F7030000 		.word	.L68+1
 2954 01cc F7030000 		.word	.L68+1
 2955 01d0 F7030000 		.word	.L68+1
 2956 01d4 F7030000 		.word	.L68+1
 2957 01d8 F7030000 		.word	.L68+1
 2958 01dc F7030000 		.word	.L68+1
 2959 01e0 F7030000 		.word	.L68+1
 2960 01e4 F7030000 		.word	.L68+1
 2961 01e8 F7030000 		.word	.L68+1
 2962 01ec F7030000 		.word	.L68+1
 2963 01f0 F7030000 		.word	.L68+1
 2964 01f4 F7030000 		.word	.L68+1
 2965 01f8 F7030000 		.word	.L68+1
 2966 01fc F7030000 		.word	.L68+1
 2967 0200 F7030000 		.word	.L68+1
 2968 0204 F7030000 		.word	.L68+1
 2969 0208 F7030000 		.word	.L68+1
 2970 020c F7030000 		.word	.L68+1
 2971 0210 F7030000 		.word	.L68+1
 2972 0214 41030000 		.word	.L72+1
 2973 0218 F7030000 		.word	.L68+1
 2974 021c 39020000 		.word	.L71+1
 2975 0220 9D030000 		.word	.L69+1
 2976              		.p2align 1
 2977              	.L67:
 2978 0224 FF2B     		cmp	r3, #255
 2979 0226 40F0E680 		bne	.L68
 634:ioLIB/dhcp.c  **** 
 635:ioLIB/dhcp.c  ****    			case endOption :
 636:ioLIB/dhcp.c  ****    			   p = e;   // for break while(p < e)
 2980              		.loc 1 636 12
 2981 022a FB68     		ldr	r3, [r7, #12]
 2982 022c 7B61     		str	r3, [r7, #20]
 637:ioLIB/dhcp.c  ****    				break;
 2983              		.loc 1 637 8
 2984 022e EFE0     		b	.L66
 2985              	.L76:
 638:ioLIB/dhcp.c  ****             case padOption :
 639:ioLIB/dhcp.c  ****    				p++;
 2986              		.loc 1 639 9
 2987 0230 7B69     		ldr	r3, [r7, #20]
 2988 0232 0133     		adds	r3, r3, #1
 2989 0234 7B61     		str	r3, [r7, #20]
 640:ioLIB/dhcp.c  ****    				break;
 2990              		.loc 1 640 8
 2991 0236 EBE0     		b	.L66
 2992              	.L71:
 641:ioLIB/dhcp.c  ****    			case dhcpMessageType :
 642:ioLIB/dhcp.c  ****    				p++;
 2993              		.loc 1 642 9
 2994 0238 7B69     		ldr	r3, [r7, #20]
ARM GAS  C:\Users\clay0\AppData\Local\Temp\ccq2B2ZX.s 			page 64


 2995 023a 0133     		adds	r3, r3, #1
 2996 023c 7B61     		str	r3, [r7, #20]
 643:ioLIB/dhcp.c  ****    				p++;
 2997              		.loc 1 643 9
 2998 023e 7B69     		ldr	r3, [r7, #20]
 2999 0240 0133     		adds	r3, r3, #1
 3000 0242 7B61     		str	r3, [r7, #20]
 644:ioLIB/dhcp.c  ****    				type = *p++;
 3001              		.loc 1 644 17
 3002 0244 7B69     		ldr	r3, [r7, #20]
 3003 0246 5A1C     		adds	r2, r3, #1
 3004 0248 7A61     		str	r2, [r7, #20]
 3005              		.loc 1 644 13
 3006 024a 1B78     		ldrb	r3, [r3]
 3007 024c FB74     		strb	r3, [r7, #19]
 645:ioLIB/dhcp.c  ****    				break;
 3008              		.loc 1 645 8
 3009 024e DFE0     		b	.L66
 3010              	.L75:
 646:ioLIB/dhcp.c  ****    			case subnetMask :
 647:ioLIB/dhcp.c  ****    				p++;
 3011              		.loc 1 647 9
 3012 0250 7B69     		ldr	r3, [r7, #20]
 3013 0252 0133     		adds	r3, r3, #1
 3014 0254 7B61     		str	r3, [r7, #20]
 648:ioLIB/dhcp.c  ****    				p++;
 3015              		.loc 1 648 9
 3016 0256 7B69     		ldr	r3, [r7, #20]
 3017 0258 0133     		adds	r3, r3, #1
 3018 025a 7B61     		str	r3, [r7, #20]
 649:ioLIB/dhcp.c  ****    				DHCP_allocated_sn[0] = *p++;
 3019              		.loc 1 649 33
 3020 025c 7B69     		ldr	r3, [r7, #20]
 3021 025e 5A1C     		adds	r2, r3, #1
 3022 0260 7A61     		str	r2, [r7, #20]
 3023              		.loc 1 649 31
 3024 0262 1A78     		ldrb	r2, [r3]	@ zero_extendqisi2
 3025              		.loc 1 649 29
 3026 0264 0F4B     		ldr	r3, .L80+20
 3027 0266 1A70     		strb	r2, [r3]
 650:ioLIB/dhcp.c  ****    				DHCP_allocated_sn[1] = *p++;
 3028              		.loc 1 650 33
 3029 0268 7B69     		ldr	r3, [r7, #20]
 3030 026a 5A1C     		adds	r2, r3, #1
 3031 026c 7A61     		str	r2, [r7, #20]
 3032              		.loc 1 650 31
 3033 026e 1A78     		ldrb	r2, [r3]	@ zero_extendqisi2
 3034              		.loc 1 650 29
 3035 0270 0C4B     		ldr	r3, .L80+20
 3036 0272 5A70     		strb	r2, [r3, #1]
 651:ioLIB/dhcp.c  ****    				DHCP_allocated_sn[2] = *p++;
 3037              		.loc 1 651 33
 3038 0274 7B69     		ldr	r3, [r7, #20]
 3039 0276 5A1C     		adds	r2, r3, #1
 3040 0278 7A61     		str	r2, [r7, #20]
 3041              		.loc 1 651 31
 3042 027a 1A78     		ldrb	r2, [r3]	@ zero_extendqisi2
ARM GAS  C:\Users\clay0\AppData\Local\Temp\ccq2B2ZX.s 			page 65


 3043              		.loc 1 651 29
 3044 027c 094B     		ldr	r3, .L80+20
 3045 027e 9A70     		strb	r2, [r3, #2]
 652:ioLIB/dhcp.c  ****    				DHCP_allocated_sn[3] = *p++;
 3046              		.loc 1 652 33
 3047 0280 7B69     		ldr	r3, [r7, #20]
 3048 0282 5A1C     		adds	r2, r3, #1
 3049 0284 7A61     		str	r2, [r7, #20]
 3050              		.loc 1 652 31
 3051 0286 1A78     		ldrb	r2, [r3]	@ zero_extendqisi2
 3052              		.loc 1 652 29
 3053 0288 064B     		ldr	r3, .L80+20
 3054 028a DA70     		strb	r2, [r3, #3]
 653:ioLIB/dhcp.c  ****    				break;
 3055              		.loc 1 653 8
 3056 028c C0E0     		b	.L66
 3057              	.L81:
 3058 028e 00BF     		.align	2
 3059              	.L80:
 3060 0290 00000000 		.word	DHCP_SOCKET
 3061 0294 00000000 		.word	pDHCPMSG
 3062 0298 00000000 		.word	DHCP_CHADDR
 3063 029c 00000000 		.word	DHCP_SIP
 3064 02a0 00000000 		.word	DHCP_REAL_SIP
 3065 02a4 00000000 		.word	DHCP_allocated_sn
 3066              	.L74:
 654:ioLIB/dhcp.c  ****    			case routersOnSubnet :
 655:ioLIB/dhcp.c  ****    				p++;
 3067              		.loc 1 655 9
 3068 02a8 7B69     		ldr	r3, [r7, #20]
 3069 02aa 0133     		adds	r3, r3, #1
 3070 02ac 7B61     		str	r3, [r7, #20]
 656:ioLIB/dhcp.c  ****    				opt_len = *p++;       
 3071              		.loc 1 656 20
 3072 02ae 7B69     		ldr	r3, [r7, #20]
 3073 02b0 5A1C     		adds	r2, r3, #1
 3074 02b2 7A61     		str	r2, [r7, #20]
 3075              		.loc 1 656 16
 3076 02b4 1B78     		ldrb	r3, [r3]
 3077 02b6 FB72     		strb	r3, [r7, #11]
 657:ioLIB/dhcp.c  ****    				DHCP_allocated_gw[0] = *p++;
 3078              		.loc 1 657 33
 3079 02b8 7B69     		ldr	r3, [r7, #20]
 3080 02ba 5A1C     		adds	r2, r3, #1
 3081 02bc 7A61     		str	r2, [r7, #20]
 3082              		.loc 1 657 31
 3083 02be 1A78     		ldrb	r2, [r3]	@ zero_extendqisi2
 3084              		.loc 1 657 29
 3085 02c0 594B     		ldr	r3, .L82
 3086 02c2 1A70     		strb	r2, [r3]
 658:ioLIB/dhcp.c  ****    				DHCP_allocated_gw[1] = *p++;
 3087              		.loc 1 658 33
 3088 02c4 7B69     		ldr	r3, [r7, #20]
 3089 02c6 5A1C     		adds	r2, r3, #1
 3090 02c8 7A61     		str	r2, [r7, #20]
 3091              		.loc 1 658 31
 3092 02ca 1A78     		ldrb	r2, [r3]	@ zero_extendqisi2
ARM GAS  C:\Users\clay0\AppData\Local\Temp\ccq2B2ZX.s 			page 66


 3093              		.loc 1 658 29
 3094 02cc 564B     		ldr	r3, .L82
 3095 02ce 5A70     		strb	r2, [r3, #1]
 659:ioLIB/dhcp.c  ****    				DHCP_allocated_gw[2] = *p++;
 3096              		.loc 1 659 33
 3097 02d0 7B69     		ldr	r3, [r7, #20]
 3098 02d2 5A1C     		adds	r2, r3, #1
 3099 02d4 7A61     		str	r2, [r7, #20]
 3100              		.loc 1 659 31
 3101 02d6 1A78     		ldrb	r2, [r3]	@ zero_extendqisi2
 3102              		.loc 1 659 29
 3103 02d8 534B     		ldr	r3, .L82
 3104 02da 9A70     		strb	r2, [r3, #2]
 660:ioLIB/dhcp.c  ****    				DHCP_allocated_gw[3] = *p++;
 3105              		.loc 1 660 33
 3106 02dc 7B69     		ldr	r3, [r7, #20]
 3107 02de 5A1C     		adds	r2, r3, #1
 3108 02e0 7A61     		str	r2, [r7, #20]
 3109              		.loc 1 660 31
 3110 02e2 1A78     		ldrb	r2, [r3]	@ zero_extendqisi2
 3111              		.loc 1 660 29
 3112 02e4 504B     		ldr	r3, .L82
 3113 02e6 DA70     		strb	r2, [r3, #3]
 661:ioLIB/dhcp.c  ****    				p = p + (opt_len - 4);
 3114              		.loc 1 661 14
 3115 02e8 FB7A     		ldrb	r3, [r7, #11]	@ zero_extendqisi2
 3116 02ea 043B     		subs	r3, r3, #4
 3117              		.loc 1 661 10
 3118 02ec 7A69     		ldr	r2, [r7, #20]
 3119 02ee 1344     		add	r3, r3, r2
 3120 02f0 7B61     		str	r3, [r7, #20]
 662:ioLIB/dhcp.c  ****    				break;
 3121              		.loc 1 662 8
 3122 02f2 8DE0     		b	.L66
 3123              	.L73:
 663:ioLIB/dhcp.c  ****    			case dns :
 664:ioLIB/dhcp.c  ****    				p++;                  
 3124              		.loc 1 664 9
 3125 02f4 7B69     		ldr	r3, [r7, #20]
 3126 02f6 0133     		adds	r3, r3, #1
 3127 02f8 7B61     		str	r3, [r7, #20]
 665:ioLIB/dhcp.c  ****    				opt_len = *p++;       
 3128              		.loc 1 665 20
 3129 02fa 7B69     		ldr	r3, [r7, #20]
 3130 02fc 5A1C     		adds	r2, r3, #1
 3131 02fe 7A61     		str	r2, [r7, #20]
 3132              		.loc 1 665 16
 3133 0300 1B78     		ldrb	r3, [r3]
 3134 0302 FB72     		strb	r3, [r7, #11]
 666:ioLIB/dhcp.c  ****    				DHCP_allocated_dns[0] = *p++;
 3135              		.loc 1 666 34
 3136 0304 7B69     		ldr	r3, [r7, #20]
 3137 0306 5A1C     		adds	r2, r3, #1
 3138 0308 7A61     		str	r2, [r7, #20]
 3139              		.loc 1 666 32
 3140 030a 1A78     		ldrb	r2, [r3]	@ zero_extendqisi2
 3141              		.loc 1 666 30
ARM GAS  C:\Users\clay0\AppData\Local\Temp\ccq2B2ZX.s 			page 67


 3142 030c 474B     		ldr	r3, .L82+4
 3143 030e 1A70     		strb	r2, [r3]
 667:ioLIB/dhcp.c  ****    				DHCP_allocated_dns[1] = *p++;
 3144              		.loc 1 667 34
 3145 0310 7B69     		ldr	r3, [r7, #20]
 3146 0312 5A1C     		adds	r2, r3, #1
 3147 0314 7A61     		str	r2, [r7, #20]
 3148              		.loc 1 667 32
 3149 0316 1A78     		ldrb	r2, [r3]	@ zero_extendqisi2
 3150              		.loc 1 667 30
 3151 0318 444B     		ldr	r3, .L82+4
 3152 031a 5A70     		strb	r2, [r3, #1]
 668:ioLIB/dhcp.c  ****    				DHCP_allocated_dns[2] = *p++;
 3153              		.loc 1 668 34
 3154 031c 7B69     		ldr	r3, [r7, #20]
 3155 031e 5A1C     		adds	r2, r3, #1
 3156 0320 7A61     		str	r2, [r7, #20]
 3157              		.loc 1 668 32
 3158 0322 1A78     		ldrb	r2, [r3]	@ zero_extendqisi2
 3159              		.loc 1 668 30
 3160 0324 414B     		ldr	r3, .L82+4
 3161 0326 9A70     		strb	r2, [r3, #2]
 669:ioLIB/dhcp.c  ****    				DHCP_allocated_dns[3] = *p++;
 3162              		.loc 1 669 34
 3163 0328 7B69     		ldr	r3, [r7, #20]
 3164 032a 5A1C     		adds	r2, r3, #1
 3165 032c 7A61     		str	r2, [r7, #20]
 3166              		.loc 1 669 32
 3167 032e 1A78     		ldrb	r2, [r3]	@ zero_extendqisi2
 3168              		.loc 1 669 30
 3169 0330 3E4B     		ldr	r3, .L82+4
 3170 0332 DA70     		strb	r2, [r3, #3]
 670:ioLIB/dhcp.c  ****    				p = p + (opt_len - 4);
 3171              		.loc 1 670 14
 3172 0334 FB7A     		ldrb	r3, [r7, #11]	@ zero_extendqisi2
 3173 0336 043B     		subs	r3, r3, #4
 3174              		.loc 1 670 10
 3175 0338 7A69     		ldr	r2, [r7, #20]
 3176 033a 1344     		add	r3, r3, r2
 3177 033c 7B61     		str	r3, [r7, #20]
 671:ioLIB/dhcp.c  ****    				break;
 3178              		.loc 1 671 8
 3179 033e 67E0     		b	.L66
 3180              	.L72:
 672:ioLIB/dhcp.c  ****    			case dhcpIPaddrLeaseTime :
 673:ioLIB/dhcp.c  ****    				p++;
 3181              		.loc 1 673 9
 3182 0340 7B69     		ldr	r3, [r7, #20]
 3183 0342 0133     		adds	r3, r3, #1
 3184 0344 7B61     		str	r3, [r7, #20]
 674:ioLIB/dhcp.c  ****    				opt_len = *p++;
 3185              		.loc 1 674 20
 3186 0346 7B69     		ldr	r3, [r7, #20]
 3187 0348 5A1C     		adds	r2, r3, #1
 3188 034a 7A61     		str	r2, [r7, #20]
 3189              		.loc 1 674 16
 3190 034c 1B78     		ldrb	r3, [r3]
ARM GAS  C:\Users\clay0\AppData\Local\Temp\ccq2B2ZX.s 			page 68


 3191 034e FB72     		strb	r3, [r7, #11]
 675:ioLIB/dhcp.c  ****    				dhcp_lease_time  = *p++;
 3192              		.loc 1 675 29
 3193 0350 7B69     		ldr	r3, [r7, #20]
 3194 0352 5A1C     		adds	r2, r3, #1
 3195 0354 7A61     		str	r2, [r7, #20]
 3196              		.loc 1 675 27
 3197 0356 1B78     		ldrb	r3, [r3]	@ zero_extendqisi2
 3198 0358 1A46     		mov	r2, r3
 3199              		.loc 1 675 25
 3200 035a 354B     		ldr	r3, .L82+8
 3201 035c 1A60     		str	r2, [r3]
 676:ioLIB/dhcp.c  ****    				dhcp_lease_time  = (dhcp_lease_time << 8) + *p++;
 3202              		.loc 1 676 44
 3203 035e 344B     		ldr	r3, .L82+8
 3204 0360 1B68     		ldr	r3, [r3]
 3205 0362 1A02     		lsls	r2, r3, #8
 3206              		.loc 1 676 54
 3207 0364 7B69     		ldr	r3, [r7, #20]
 3208 0366 591C     		adds	r1, r3, #1
 3209 0368 7961     		str	r1, [r7, #20]
 3210              		.loc 1 676 52
 3211 036a 1B78     		ldrb	r3, [r3]	@ zero_extendqisi2
 3212              		.loc 1 676 50
 3213 036c 1344     		add	r3, r3, r2
 3214              		.loc 1 676 25
 3215 036e 304A     		ldr	r2, .L82+8
 3216 0370 1360     		str	r3, [r2]
 677:ioLIB/dhcp.c  ****    				dhcp_lease_time  = (dhcp_lease_time << 8) + *p++;
 3217              		.loc 1 677 44
 3218 0372 2F4B     		ldr	r3, .L82+8
 3219 0374 1B68     		ldr	r3, [r3]
 3220 0376 1A02     		lsls	r2, r3, #8
 3221              		.loc 1 677 54
 3222 0378 7B69     		ldr	r3, [r7, #20]
 3223 037a 591C     		adds	r1, r3, #1
 3224 037c 7961     		str	r1, [r7, #20]
 3225              		.loc 1 677 52
 3226 037e 1B78     		ldrb	r3, [r3]	@ zero_extendqisi2
 3227              		.loc 1 677 50
 3228 0380 1344     		add	r3, r3, r2
 3229              		.loc 1 677 25
 3230 0382 2B4A     		ldr	r2, .L82+8
 3231 0384 1360     		str	r3, [r2]
 678:ioLIB/dhcp.c  ****    				dhcp_lease_time  = (dhcp_lease_time << 8) + *p++;
 3232              		.loc 1 678 44
 3233 0386 2A4B     		ldr	r3, .L82+8
 3234 0388 1B68     		ldr	r3, [r3]
 3235 038a 1A02     		lsls	r2, r3, #8
 3236              		.loc 1 678 54
 3237 038c 7B69     		ldr	r3, [r7, #20]
 3238 038e 591C     		adds	r1, r3, #1
 3239 0390 7961     		str	r1, [r7, #20]
 3240              		.loc 1 678 52
 3241 0392 1B78     		ldrb	r3, [r3]	@ zero_extendqisi2
 3242              		.loc 1 678 50
 3243 0394 1344     		add	r3, r3, r2
ARM GAS  C:\Users\clay0\AppData\Local\Temp\ccq2B2ZX.s 			page 69


 3244              		.loc 1 678 25
 3245 0396 264A     		ldr	r2, .L82+8
 3246 0398 1360     		str	r3, [r2]
 679:ioLIB/dhcp.c  ****             #ifdef _DHCP_DEBUG_  
 680:ioLIB/dhcp.c  ****                dhcp_lease_time = 10;
 681:ioLIB/dhcp.c  ****  				#endif
 682:ioLIB/dhcp.c  ****    				break;
 3247              		.loc 1 682 8
 3248 039a 39E0     		b	.L66
 3249              	.L69:
 683:ioLIB/dhcp.c  ****    			case dhcpServerIdentifier :
 684:ioLIB/dhcp.c  ****    				p++;
 3250              		.loc 1 684 9
 3251 039c 7B69     		ldr	r3, [r7, #20]
 3252 039e 0133     		adds	r3, r3, #1
 3253 03a0 7B61     		str	r3, [r7, #20]
 685:ioLIB/dhcp.c  ****    				opt_len = *p++;
 3254              		.loc 1 685 20
 3255 03a2 7B69     		ldr	r3, [r7, #20]
 3256 03a4 5A1C     		adds	r2, r3, #1
 3257 03a6 7A61     		str	r2, [r7, #20]
 3258              		.loc 1 685 16
 3259 03a8 1B78     		ldrb	r3, [r3]
 3260 03aa FB72     		strb	r3, [r7, #11]
 686:ioLIB/dhcp.c  ****    				DHCP_SIP[0] = *p++;
 3261              		.loc 1 686 24
 3262 03ac 7B69     		ldr	r3, [r7, #20]
 3263 03ae 5A1C     		adds	r2, r3, #1
 3264 03b0 7A61     		str	r2, [r7, #20]
 3265              		.loc 1 686 22
 3266 03b2 1A78     		ldrb	r2, [r3]	@ zero_extendqisi2
 3267              		.loc 1 686 20
 3268 03b4 1F4B     		ldr	r3, .L82+12
 3269 03b6 1A70     		strb	r2, [r3]
 687:ioLIB/dhcp.c  ****    				DHCP_SIP[1] = *p++;
 3270              		.loc 1 687 24
 3271 03b8 7B69     		ldr	r3, [r7, #20]
 3272 03ba 5A1C     		adds	r2, r3, #1
 3273 03bc 7A61     		str	r2, [r7, #20]
 3274              		.loc 1 687 22
 3275 03be 1A78     		ldrb	r2, [r3]	@ zero_extendqisi2
 3276              		.loc 1 687 20
 3277 03c0 1C4B     		ldr	r3, .L82+12
 3278 03c2 5A70     		strb	r2, [r3, #1]
 688:ioLIB/dhcp.c  ****    				DHCP_SIP[2] = *p++;
 3279              		.loc 1 688 24
 3280 03c4 7B69     		ldr	r3, [r7, #20]
 3281 03c6 5A1C     		adds	r2, r3, #1
 3282 03c8 7A61     		str	r2, [r7, #20]
 3283              		.loc 1 688 22
 3284 03ca 1A78     		ldrb	r2, [r3]	@ zero_extendqisi2
 3285              		.loc 1 688 20
 3286 03cc 194B     		ldr	r3, .L82+12
 3287 03ce 9A70     		strb	r2, [r3, #2]
 689:ioLIB/dhcp.c  ****    				DHCP_SIP[3] = *p++;
 3288              		.loc 1 689 24
 3289 03d0 7B69     		ldr	r3, [r7, #20]
ARM GAS  C:\Users\clay0\AppData\Local\Temp\ccq2B2ZX.s 			page 70


 3290 03d2 5A1C     		adds	r2, r3, #1
 3291 03d4 7A61     		str	r2, [r7, #20]
 3292              		.loc 1 689 22
 3293 03d6 1A78     		ldrb	r2, [r3]	@ zero_extendqisi2
 3294              		.loc 1 689 20
 3295 03d8 164B     		ldr	r3, .L82+12
 3296 03da DA70     		strb	r2, [r3, #3]
 690:ioLIB/dhcp.c  ****                 DHCP_REAL_SIP[0]=svr_addr[0];
 3297              		.loc 1 690 42
 3298 03dc 3A79     		ldrb	r2, [r7, #4]	@ zero_extendqisi2
 3299              		.loc 1 690 33
 3300 03de 164B     		ldr	r3, .L82+16
 3301 03e0 1A70     		strb	r2, [r3]
 691:ioLIB/dhcp.c  ****                 DHCP_REAL_SIP[1]=svr_addr[1];
 3302              		.loc 1 691 42
 3303 03e2 7A79     		ldrb	r2, [r7, #5]	@ zero_extendqisi2
 3304              		.loc 1 691 33
 3305 03e4 144B     		ldr	r3, .L82+16
 3306 03e6 5A70     		strb	r2, [r3, #1]
 692:ioLIB/dhcp.c  ****                 DHCP_REAL_SIP[2]=svr_addr[2];
 3307              		.loc 1 692 42
 3308 03e8 BA79     		ldrb	r2, [r7, #6]	@ zero_extendqisi2
 3309              		.loc 1 692 33
 3310 03ea 134B     		ldr	r3, .L82+16
 3311 03ec 9A70     		strb	r2, [r3, #2]
 693:ioLIB/dhcp.c  ****                 DHCP_REAL_SIP[3]=svr_addr[3];
 3312              		.loc 1 693 42
 3313 03ee FA79     		ldrb	r2, [r7, #7]	@ zero_extendqisi2
 3314              		.loc 1 693 33
 3315 03f0 114B     		ldr	r3, .L82+16
 3316 03f2 DA70     		strb	r2, [r3, #3]
 694:ioLIB/dhcp.c  ****    				break;
 3317              		.loc 1 694 8
 3318 03f4 0CE0     		b	.L66
 3319              	.L68:
 695:ioLIB/dhcp.c  ****    			default :
 696:ioLIB/dhcp.c  ****    				p++;
 3320              		.loc 1 696 9
 3321 03f6 7B69     		ldr	r3, [r7, #20]
 3322 03f8 0133     		adds	r3, r3, #1
 3323 03fa 7B61     		str	r3, [r7, #20]
 697:ioLIB/dhcp.c  ****    				opt_len = *p++;
 3324              		.loc 1 697 20
 3325 03fc 7B69     		ldr	r3, [r7, #20]
 3326 03fe 5A1C     		adds	r2, r3, #1
 3327 0400 7A61     		str	r2, [r7, #20]
 3328              		.loc 1 697 16
 3329 0402 1B78     		ldrb	r3, [r3]
 3330 0404 FB72     		strb	r3, [r7, #11]
 698:ioLIB/dhcp.c  ****    				p += opt_len;
 3331              		.loc 1 698 10
 3332 0406 FB7A     		ldrb	r3, [r7, #11]	@ zero_extendqisi2
 3333 0408 7A69     		ldr	r2, [r7, #20]
 3334 040a 1344     		add	r3, r3, r2
 3335 040c 7B61     		str	r3, [r7, #20]
 699:ioLIB/dhcp.c  ****    				break;
 3336              		.loc 1 699 8
ARM GAS  C:\Users\clay0\AppData\Local\Temp\ccq2B2ZX.s 			page 71


 3337 040e 00BF     		nop
 3338              	.L66:
 631:ioLIB/dhcp.c  **** 
 3339              		.loc 1 631 9
 3340 0410 7A69     		ldr	r2, [r7, #20]
 3341 0412 FB68     		ldr	r3, [r7, #12]
 3342 0414 9A42     		cmp	r2, r3
 3343 0416 FFF48AAE 		bcc	.L77
 3344              	.L59:
 700:ioLIB/dhcp.c  **** 			} // switch
 701:ioLIB/dhcp.c  **** 		} // while
 702:ioLIB/dhcp.c  **** 	} // if
 703:ioLIB/dhcp.c  **** 	return	type;
 3345              		.loc 1 703 9
 3346 041a 97F91330 		ldrsb	r3, [r7, #19]
 3347              	.L78:
 704:ioLIB/dhcp.c  **** }
 3348              		.loc 1 704 1 discriminator 1
 3349 041e 1846     		mov	r0, r3
 3350 0420 1C37     		adds	r7, r7, #28
 3351              	.LCFI35:
 3352              		.cfi_def_cfa_offset 12
 3353 0422 BD46     		mov	sp, r7
 3354              	.LCFI36:
 3355              		.cfi_def_cfa_register 13
 3356              		@ sp needed
 3357 0424 90BD     		pop	{r4, r7, pc}
 3358              	.L83:
 3359 0426 00BF     		.align	2
 3360              	.L82:
 3361 0428 00000000 		.word	DHCP_allocated_gw
 3362 042c 00000000 		.word	DHCP_allocated_dns
 3363 0430 00000000 		.word	dhcp_lease_time
 3364 0434 00000000 		.word	DHCP_SIP
 3365 0438 00000000 		.word	DHCP_REAL_SIP
 3366              		.cfi_endproc
 3367              	.LFE8:
 3369              		.section	.text.DHCP_run,"ax",%progbits
 3370              		.align	1
 3371              		.global	DHCP_run
 3372              		.syntax unified
 3373              		.thumb
 3374              		.thumb_func
 3376              	DHCP_run:
 3377              	.LFB9:
 705:ioLIB/dhcp.c  **** 
 706:ioLIB/dhcp.c  **** uint8_t DHCP_run(void)
 707:ioLIB/dhcp.c  **** {
 3378              		.loc 1 707 1
 3379              		.cfi_startproc
 3380              		@ args = 0, pretend = 0, frame = 8
 3381              		@ frame_needed = 1, uses_anonymous_args = 0
 3382 0000 80B5     		push	{r7, lr}
 3383              	.LCFI37:
 3384              		.cfi_def_cfa_offset 8
 3385              		.cfi_offset 7, -8
 3386              		.cfi_offset 14, -4
ARM GAS  C:\Users\clay0\AppData\Local\Temp\ccq2B2ZX.s 			page 72


 3387 0002 82B0     		sub	sp, sp, #8
 3388              	.LCFI38:
 3389              		.cfi_def_cfa_offset 16
 3390 0004 00AF     		add	r7, sp, #0
 3391              	.LCFI39:
 3392              		.cfi_def_cfa_register 7
 708:ioLIB/dhcp.c  **** 	uint8_t  type;
 709:ioLIB/dhcp.c  **** 	uint8_t  ret;
 710:ioLIB/dhcp.c  **** 
 711:ioLIB/dhcp.c  **** 	if(dhcp_state == STATE_DHCP_STOP) return DHCP_STOPPED;
 3393              		.loc 1 711 16
 3394 0006 7F4B     		ldr	r3, .L110
 3395 0008 93F90030 		ldrsb	r3, [r3]
 3396              		.loc 1 711 4
 3397 000c 062B     		cmp	r3, #6
 3398 000e 01D1     		bne	.L85
 3399              		.loc 1 711 43 discriminator 1
 3400 0010 0523     		movs	r3, #5
 3401 0012 F3E0     		b	.L86
 3402              	.L85:
 712:ioLIB/dhcp.c  **** 
 713:ioLIB/dhcp.c  **** 	if(getSn_SR(DHCP_SOCKET) != SOCK_UDP)
 3403              		.loc 1 713 5
 3404 0014 7C4B     		ldr	r3, .L110+4
 3405 0016 1B78     		ldrb	r3, [r3]	@ zero_extendqisi2
 3406 0018 9B00     		lsls	r3, r3, #2
 3407 001a 0133     		adds	r3, r3, #1
 3408 001c DB00     		lsls	r3, r3, #3
 3409 001e 03F54073 		add	r3, r3, #768
 3410 0022 1846     		mov	r0, r3
 3411 0024 FFF7FEFF 		bl	WIZCHIP_READ
 3412 0028 0346     		mov	r3, r0
 3413              		.loc 1 713 4
 3414 002a 222B     		cmp	r3, #34
 3415 002c 06D0     		beq	.L87
 714:ioLIB/dhcp.c  **** 	   socket(DHCP_SOCKET, Sn_MR_UDP, DHCP_CLIENT_PORT, 0x00);
 3416              		.loc 1 714 5
 3417 002e 764B     		ldr	r3, .L110+4
 3418 0030 1878     		ldrb	r0, [r3]	@ zero_extendqisi2
 3419 0032 0023     		movs	r3, #0
 3420 0034 4422     		movs	r2, #68
 3421 0036 0221     		movs	r1, #2
 3422 0038 FFF7FEFF 		bl	socket
 3423              	.L87:
 715:ioLIB/dhcp.c  **** 
 716:ioLIB/dhcp.c  **** 	ret = DHCP_RUNNING;
 3424              		.loc 1 716 6
 3425 003c 0123     		movs	r3, #1
 3426 003e FB71     		strb	r3, [r7, #7]
 717:ioLIB/dhcp.c  **** 	type = parseDHCPMSG();
 3427              		.loc 1 717 9
 3428 0040 FFF7FEFF 		bl	parseDHCPMSG
 3429 0044 0346     		mov	r3, r0
 3430              		.loc 1 717 7
 3431 0046 BB71     		strb	r3, [r7, #6]
 718:ioLIB/dhcp.c  **** 
 719:ioLIB/dhcp.c  **** 	switch ( dhcp_state ) {
ARM GAS  C:\Users\clay0\AppData\Local\Temp\ccq2B2ZX.s 			page 73


 3432              		.loc 1 719 2
 3433 0048 6E4B     		ldr	r3, .L110
 3434 004a 93F90030 		ldrsb	r3, [r3]
 3435 004e 042B     		cmp	r3, #4
 3436 0050 00F2D080 		bhi	.L108
 3437 0054 01A2     		adr	r2, .L90
 3438 0056 52F823F0 		ldr	pc, [r2, r3, lsl #2]
 3439 005a 00BF     		.p2align 2
 3440              	.L90:
 3441 005c 71000000 		.word	.L94+1
 3442 0060 95000000 		.word	.L93+1
 3443 0064 D9000000 		.word	.L92+1
 3444 0068 29010000 		.word	.L91+1
 3445 006c 83010000 		.word	.L89+1
 3446              		.p2align 1
 3447              	.L94:
 720:ioLIB/dhcp.c  **** 	   case STATE_DHCP_INIT     :
 721:ioLIB/dhcp.c  ****          DHCP_allocated_ip[0] = 0;
 3448              		.loc 1 721 31
 3449 0070 664B     		ldr	r3, .L110+8
 3450 0072 0022     		movs	r2, #0
 3451 0074 1A70     		strb	r2, [r3]
 722:ioLIB/dhcp.c  ****          DHCP_allocated_ip[1] = 0;
 3452              		.loc 1 722 31
 3453 0076 654B     		ldr	r3, .L110+8
 3454 0078 0022     		movs	r2, #0
 3455 007a 5A70     		strb	r2, [r3, #1]
 723:ioLIB/dhcp.c  ****          DHCP_allocated_ip[2] = 0;
 3456              		.loc 1 723 31
 3457 007c 634B     		ldr	r3, .L110+8
 3458 007e 0022     		movs	r2, #0
 3459 0080 9A70     		strb	r2, [r3, #2]
 724:ioLIB/dhcp.c  ****          DHCP_allocated_ip[3] = 0;
 3460              		.loc 1 724 31
 3461 0082 624B     		ldr	r3, .L110+8
 3462 0084 0022     		movs	r2, #0
 3463 0086 DA70     		strb	r2, [r3, #3]
 725:ioLIB/dhcp.c  ****    		send_DHCP_DISCOVER();
 3464              		.loc 1 725 6
 3465 0088 FFF7FEFF 		bl	send_DHCP_DISCOVER
 726:ioLIB/dhcp.c  ****    		dhcp_state = STATE_DHCP_DISCOVER;
 3466              		.loc 1 726 17
 3467 008c 5D4B     		ldr	r3, .L110
 3468 008e 0122     		movs	r2, #1
 3469 0090 1A70     		strb	r2, [r3]
 727:ioLIB/dhcp.c  ****    		break;
 3470              		.loc 1 727 6
 3471 0092 B2E0     		b	.L95
 3472              	.L93:
 728:ioLIB/dhcp.c  **** 		case STATE_DHCP_DISCOVER :
 729:ioLIB/dhcp.c  **** 			if (type == DHCP_OFFER){
 3473              		.loc 1 729 7
 3474 0094 BB79     		ldrb	r3, [r7, #6]	@ zero_extendqisi2
 3475 0096 022B     		cmp	r3, #2
 3476 0098 19D1     		bne	.L96
 730:ioLIB/dhcp.c  **** #ifdef _DHCP_DEBUG_
 731:ioLIB/dhcp.c  **** 				printf("> Receive DHCP_OFFER\r\n");
ARM GAS  C:\Users\clay0\AppData\Local\Temp\ccq2B2ZX.s 			page 74


 732:ioLIB/dhcp.c  **** #endif
 733:ioLIB/dhcp.c  ****             DHCP_allocated_ip[0] = pDHCPMSG->yiaddr[0];
 3477              		.loc 1 733 44
 3478 009a 5D4B     		ldr	r3, .L110+12
 3479 009c 1B68     		ldr	r3, [r3]
 3480              		.loc 1 733 52
 3481 009e 1A7C     		ldrb	r2, [r3, #16]	@ zero_extendqisi2
 3482              		.loc 1 733 34
 3483 00a0 5A4B     		ldr	r3, .L110+8
 3484 00a2 1A70     		strb	r2, [r3]
 734:ioLIB/dhcp.c  ****             DHCP_allocated_ip[1] = pDHCPMSG->yiaddr[1];
 3485              		.loc 1 734 44
 3486 00a4 5A4B     		ldr	r3, .L110+12
 3487 00a6 1B68     		ldr	r3, [r3]
 3488              		.loc 1 734 52
 3489 00a8 5A7C     		ldrb	r2, [r3, #17]	@ zero_extendqisi2
 3490              		.loc 1 734 34
 3491 00aa 584B     		ldr	r3, .L110+8
 3492 00ac 5A70     		strb	r2, [r3, #1]
 735:ioLIB/dhcp.c  ****             DHCP_allocated_ip[2] = pDHCPMSG->yiaddr[2];
 3493              		.loc 1 735 44
 3494 00ae 584B     		ldr	r3, .L110+12
 3495 00b0 1B68     		ldr	r3, [r3]
 3496              		.loc 1 735 52
 3497 00b2 9A7C     		ldrb	r2, [r3, #18]	@ zero_extendqisi2
 3498              		.loc 1 735 34
 3499 00b4 554B     		ldr	r3, .L110+8
 3500 00b6 9A70     		strb	r2, [r3, #2]
 736:ioLIB/dhcp.c  ****             DHCP_allocated_ip[3] = pDHCPMSG->yiaddr[3];
 3501              		.loc 1 736 44
 3502 00b8 554B     		ldr	r3, .L110+12
 3503 00ba 1B68     		ldr	r3, [r3]
 3504              		.loc 1 736 52
 3505 00bc DA7C     		ldrb	r2, [r3, #19]	@ zero_extendqisi2
 3506              		.loc 1 736 34
 3507 00be 534B     		ldr	r3, .L110+8
 3508 00c0 DA70     		strb	r2, [r3, #3]
 737:ioLIB/dhcp.c  **** 
 738:ioLIB/dhcp.c  **** 				send_DHCP_REQUEST();
 3509              		.loc 1 738 5
 3510 00c2 FFF7FEFF 		bl	send_DHCP_REQUEST
 739:ioLIB/dhcp.c  **** 				dhcp_state = STATE_DHCP_REQUEST;
 3511              		.loc 1 739 16
 3512 00c6 4F4B     		ldr	r3, .L110
 3513 00c8 0222     		movs	r2, #2
 3514 00ca 1A70     		strb	r2, [r3]
 740:ioLIB/dhcp.c  **** 			} else ret = check_DHCP_timeout();
 741:ioLIB/dhcp.c  ****          break;
 3515              		.loc 1 741 10
 3516 00cc 95E0     		b	.L95
 3517              	.L96:
 740:ioLIB/dhcp.c  **** 			} else ret = check_DHCP_timeout();
 3518              		.loc 1 740 17
 3519 00ce FFF7FEFF 		bl	check_DHCP_timeout
 3520 00d2 0346     		mov	r3, r0
 3521 00d4 FB71     		strb	r3, [r7, #7]
 3522              		.loc 1 741 10
ARM GAS  C:\Users\clay0\AppData\Local\Temp\ccq2B2ZX.s 			page 75


 3523 00d6 90E0     		b	.L95
 3524              	.L92:
 742:ioLIB/dhcp.c  **** 
 743:ioLIB/dhcp.c  **** 		case STATE_DHCP_REQUEST :
 744:ioLIB/dhcp.c  **** 			if (type == DHCP_ACK) {
 3525              		.loc 1 744 7
 3526 00d8 BB79     		ldrb	r3, [r7, #6]	@ zero_extendqisi2
 3527 00da 052B     		cmp	r3, #5
 3528 00dc 16D1     		bne	.L98
 745:ioLIB/dhcp.c  **** 
 746:ioLIB/dhcp.c  **** #ifdef _DHCP_DEBUG_
 747:ioLIB/dhcp.c  **** 				printf("> Receive DHCP_ACK\r\n");
 748:ioLIB/dhcp.c  **** #endif
 749:ioLIB/dhcp.c  **** 				if (check_DHCP_leasedIP()) {
 3529              		.loc 1 749 9
 3530 00de FFF7FEFF 		bl	check_DHCP_leasedIP
 3531 00e2 0346     		mov	r3, r0
 3532              		.loc 1 749 8
 3533 00e4 002B     		cmp	r3, #0
 3534 00e6 08D0     		beq	.L99
 750:ioLIB/dhcp.c  **** 					// Network info assignment from DHCP
 751:ioLIB/dhcp.c  **** 					dhcp_ip_assign();
 3535              		.loc 1 751 6
 3536 00e8 4A4B     		ldr	r3, .L110+16
 3537 00ea 1B68     		ldr	r3, [r3]
 3538 00ec 9847     		blx	r3
 3539              	.LVL0:
 752:ioLIB/dhcp.c  **** 					reset_DHCP_timeout();
 3540              		.loc 1 752 6
 3541 00ee FFF7FEFF 		bl	reset_DHCP_timeout
 753:ioLIB/dhcp.c  **** 
 754:ioLIB/dhcp.c  **** 					dhcp_state = STATE_DHCP_LEASED;
 3542              		.loc 1 754 17
 3543 00f2 444B     		ldr	r3, .L110
 3544 00f4 0322     		movs	r2, #3
 3545 00f6 1A70     		strb	r2, [r3]
 755:ioLIB/dhcp.c  **** 				} else {
 756:ioLIB/dhcp.c  **** 					// IP address conflict occurred
 757:ioLIB/dhcp.c  **** 					reset_DHCP_timeout();
 758:ioLIB/dhcp.c  **** 					dhcp_ip_conflict();
 759:ioLIB/dhcp.c  **** 				    dhcp_state = STATE_DHCP_INIT;
 760:ioLIB/dhcp.c  **** 				}
 761:ioLIB/dhcp.c  **** 			} else if (type == DHCP_NAK) {
 762:ioLIB/dhcp.c  **** 
 763:ioLIB/dhcp.c  **** #ifdef _DHCP_DEBUG_
 764:ioLIB/dhcp.c  **** 				printf("> Receive DHCP_NACK\r\n");
 765:ioLIB/dhcp.c  **** #endif
 766:ioLIB/dhcp.c  **** 
 767:ioLIB/dhcp.c  **** 				reset_DHCP_timeout();
 768:ioLIB/dhcp.c  **** 
 769:ioLIB/dhcp.c  **** 				dhcp_state = STATE_DHCP_DISCOVER;
 770:ioLIB/dhcp.c  **** 			} else ret = check_DHCP_timeout();
 771:ioLIB/dhcp.c  **** 		break;
 3546              		.loc 1 771 3
 3547 00f8 7FE0     		b	.L95
 3548              	.L99:
 757:ioLIB/dhcp.c  **** 					dhcp_ip_conflict();
ARM GAS  C:\Users\clay0\AppData\Local\Temp\ccq2B2ZX.s 			page 76


 3549              		.loc 1 757 6
 3550 00fa FFF7FEFF 		bl	reset_DHCP_timeout
 758:ioLIB/dhcp.c  **** 				    dhcp_state = STATE_DHCP_INIT;
 3551              		.loc 1 758 6
 3552 00fe 464B     		ldr	r3, .L110+20
 3553 0100 1B68     		ldr	r3, [r3]
 3554 0102 9847     		blx	r3
 3555              	.LVL1:
 759:ioLIB/dhcp.c  **** 				}
 3556              		.loc 1 759 20
 3557 0104 3F4B     		ldr	r3, .L110
 3558 0106 0022     		movs	r2, #0
 3559 0108 1A70     		strb	r2, [r3]
 3560              		.loc 1 771 3
 3561 010a 76E0     		b	.L95
 3562              	.L98:
 761:ioLIB/dhcp.c  **** 
 3563              		.loc 1 761 14
 3564 010c BB79     		ldrb	r3, [r7, #6]	@ zero_extendqisi2
 3565 010e 062B     		cmp	r3, #6
 3566 0110 05D1     		bne	.L101
 767:ioLIB/dhcp.c  **** 
 3567              		.loc 1 767 5
 3568 0112 FFF7FEFF 		bl	reset_DHCP_timeout
 769:ioLIB/dhcp.c  **** 			} else ret = check_DHCP_timeout();
 3569              		.loc 1 769 16
 3570 0116 3B4B     		ldr	r3, .L110
 3571 0118 0122     		movs	r2, #1
 3572 011a 1A70     		strb	r2, [r3]
 3573              		.loc 1 771 3
 3574 011c 6DE0     		b	.L95
 3575              	.L101:
 770:ioLIB/dhcp.c  **** 		break;
 3576              		.loc 1 770 17
 3577 011e FFF7FEFF 		bl	check_DHCP_timeout
 3578 0122 0346     		mov	r3, r0
 3579 0124 FB71     		strb	r3, [r7, #7]
 3580              		.loc 1 771 3
 3581 0126 68E0     		b	.L95
 3582              	.L91:
 772:ioLIB/dhcp.c  **** 
 773:ioLIB/dhcp.c  **** 		case STATE_DHCP_LEASED :
 774:ioLIB/dhcp.c  **** 		   ret = DHCP_IP_LEASED;
 3583              		.loc 1 774 10
 3584 0128 0423     		movs	r3, #4
 3585 012a FB71     		strb	r3, [r7, #7]
 775:ioLIB/dhcp.c  **** 			if ((dhcp_lease_time != INFINITE_LEASETIME) && ((dhcp_lease_time/2) < dhcp_tick_1s)) {
 3586              		.loc 1 775 25
 3587 012c 3B4B     		ldr	r3, .L110+24
 3588 012e 1B68     		ldr	r3, [r3]
 3589              		.loc 1 775 7
 3590 0130 B3F1FF3F 		cmp	r3, #-1
 3591 0134 60D0     		beq	.L109
 3592              		.loc 1 775 68 discriminator 1
 3593 0136 394B     		ldr	r3, .L110+24
 3594 0138 1B68     		ldr	r3, [r3]
 3595 013a 5A08     		lsrs	r2, r3, #1
ARM GAS  C:\Users\clay0\AppData\Local\Temp\ccq2B2ZX.s 			page 77


 3596              		.loc 1 775 72 discriminator 1
 3597 013c 384B     		ldr	r3, .L110+28
 3598 013e 1B68     		ldr	r3, [r3]
 3599              		.loc 1 775 48 discriminator 1
 3600 0140 9A42     		cmp	r2, r3
 3601 0142 59D2     		bcs	.L109
 776:ioLIB/dhcp.c  **** 				
 777:ioLIB/dhcp.c  **** #ifdef _DHCP_DEBUG_
 778:ioLIB/dhcp.c  ****  				printf("> Maintains the IP address \r\n");
 779:ioLIB/dhcp.c  **** #endif
 780:ioLIB/dhcp.c  **** 
 781:ioLIB/dhcp.c  **** 				type = 0;
 3602              		.loc 1 781 10
 3603 0144 0023     		movs	r3, #0
 3604 0146 BB71     		strb	r3, [r7, #6]
 782:ioLIB/dhcp.c  **** 				OLD_allocated_ip[0] = DHCP_allocated_ip[0];
 3605              		.loc 1 782 44
 3606 0148 304B     		ldr	r3, .L110+8
 3607 014a 1A78     		ldrb	r2, [r3]	@ zero_extendqisi2
 3608              		.loc 1 782 25
 3609 014c 354B     		ldr	r3, .L110+32
 3610 014e 1A70     		strb	r2, [r3]
 783:ioLIB/dhcp.c  **** 				OLD_allocated_ip[1] = DHCP_allocated_ip[1];
 3611              		.loc 1 783 44
 3612 0150 2E4B     		ldr	r3, .L110+8
 3613 0152 5A78     		ldrb	r2, [r3, #1]	@ zero_extendqisi2
 3614              		.loc 1 783 25
 3615 0154 334B     		ldr	r3, .L110+32
 3616 0156 5A70     		strb	r2, [r3, #1]
 784:ioLIB/dhcp.c  **** 				OLD_allocated_ip[2] = DHCP_allocated_ip[2];
 3617              		.loc 1 784 44
 3618 0158 2C4B     		ldr	r3, .L110+8
 3619 015a 9A78     		ldrb	r2, [r3, #2]	@ zero_extendqisi2
 3620              		.loc 1 784 25
 3621 015c 314B     		ldr	r3, .L110+32
 3622 015e 9A70     		strb	r2, [r3, #2]
 785:ioLIB/dhcp.c  **** 				OLD_allocated_ip[3] = DHCP_allocated_ip[3];
 3623              		.loc 1 785 44
 3624 0160 2A4B     		ldr	r3, .L110+8
 3625 0162 DA78     		ldrb	r2, [r3, #3]	@ zero_extendqisi2
 3626              		.loc 1 785 25
 3627 0164 2F4B     		ldr	r3, .L110+32
 3628 0166 DA70     		strb	r2, [r3, #3]
 786:ioLIB/dhcp.c  **** 				
 787:ioLIB/dhcp.c  **** 				DHCP_XID++;
 3629              		.loc 1 787 13
 3630 0168 2F4B     		ldr	r3, .L110+36
 3631 016a 1B68     		ldr	r3, [r3]
 3632 016c 0133     		adds	r3, r3, #1
 3633 016e 2E4A     		ldr	r2, .L110+36
 3634 0170 1360     		str	r3, [r2]
 788:ioLIB/dhcp.c  **** 
 789:ioLIB/dhcp.c  **** 				send_DHCP_REQUEST();
 3635              		.loc 1 789 5
 3636 0172 FFF7FEFF 		bl	send_DHCP_REQUEST
 790:ioLIB/dhcp.c  **** 
 791:ioLIB/dhcp.c  **** 				reset_DHCP_timeout();
ARM GAS  C:\Users\clay0\AppData\Local\Temp\ccq2B2ZX.s 			page 78


 3637              		.loc 1 791 5
 3638 0176 FFF7FEFF 		bl	reset_DHCP_timeout
 792:ioLIB/dhcp.c  **** 
 793:ioLIB/dhcp.c  **** 				dhcp_state = STATE_DHCP_REREQUEST;
 3639              		.loc 1 793 16
 3640 017a 224B     		ldr	r3, .L110
 3641 017c 0422     		movs	r2, #4
 3642 017e 1A70     		strb	r2, [r3]
 794:ioLIB/dhcp.c  **** 			}
 795:ioLIB/dhcp.c  **** 		break;
 3643              		.loc 1 795 3
 3644 0180 3AE0     		b	.L109
 3645              	.L89:
 796:ioLIB/dhcp.c  **** 
 797:ioLIB/dhcp.c  **** 		case STATE_DHCP_REREQUEST :
 798:ioLIB/dhcp.c  **** 		   ret = DHCP_IP_LEASED;
 3646              		.loc 1 798 10
 3647 0182 0423     		movs	r3, #4
 3648 0184 FB71     		strb	r3, [r7, #7]
 799:ioLIB/dhcp.c  **** 			if (type == DHCP_ACK) {
 3649              		.loc 1 799 7
 3650 0186 BB79     		ldrb	r3, [r7, #6]	@ zero_extendqisi2
 3651 0188 052B     		cmp	r3, #5
 3652 018a 25D1     		bne	.L103
 800:ioLIB/dhcp.c  **** 				dhcp_retry_count = 0;
 3653              		.loc 1 800 22
 3654 018c 274B     		ldr	r3, .L110+40
 3655 018e 0022     		movs	r2, #0
 3656 0190 1A70     		strb	r2, [r3]
 801:ioLIB/dhcp.c  **** 				if (OLD_allocated_ip[0] != DHCP_allocated_ip[0] || 
 3657              		.loc 1 801 25
 3658 0192 244B     		ldr	r3, .L110+32
 3659 0194 1A78     		ldrb	r2, [r3]	@ zero_extendqisi2
 3660              		.loc 1 801 49
 3661 0196 1D4B     		ldr	r3, .L110+8
 3662 0198 1B78     		ldrb	r3, [r3]	@ zero_extendqisi2
 3663              		.loc 1 801 8
 3664 019a 9A42     		cmp	r2, r3
 3665 019c 11D1     		bne	.L104
 802:ioLIB/dhcp.c  **** 				    OLD_allocated_ip[1] != DHCP_allocated_ip[1] ||
 3666              		.loc 1 802 25 discriminator 1
 3667 019e 214B     		ldr	r3, .L110+32
 3668 01a0 5A78     		ldrb	r2, [r3, #1]	@ zero_extendqisi2
 3669              		.loc 1 802 49 discriminator 1
 3670 01a2 1A4B     		ldr	r3, .L110+8
 3671 01a4 5B78     		ldrb	r3, [r3, #1]	@ zero_extendqisi2
 801:ioLIB/dhcp.c  **** 				if (OLD_allocated_ip[0] != DHCP_allocated_ip[0] || 
 3672              		.loc 1 801 53 discriminator 1
 3673 01a6 9A42     		cmp	r2, r3
 3674 01a8 0BD1     		bne	.L104
 803:ioLIB/dhcp.c  **** 				    OLD_allocated_ip[2] != DHCP_allocated_ip[2] ||
 3675              		.loc 1 803 25
 3676 01aa 1E4B     		ldr	r3, .L110+32
 3677 01ac 9A78     		ldrb	r2, [r3, #2]	@ zero_extendqisi2
 3678              		.loc 1 803 49
 3679 01ae 174B     		ldr	r3, .L110+8
 3680 01b0 9B78     		ldrb	r3, [r3, #2]	@ zero_extendqisi2
ARM GAS  C:\Users\clay0\AppData\Local\Temp\ccq2B2ZX.s 			page 79


 802:ioLIB/dhcp.c  **** 				    OLD_allocated_ip[1] != DHCP_allocated_ip[1] ||
 3681              		.loc 1 802 53
 3682 01b2 9A42     		cmp	r2, r3
 3683 01b4 05D1     		bne	.L104
 804:ioLIB/dhcp.c  **** 				    OLD_allocated_ip[3] != DHCP_allocated_ip[3]) 
 3684              		.loc 1 804 25
 3685 01b6 1B4B     		ldr	r3, .L110+32
 3686 01b8 DA78     		ldrb	r2, [r3, #3]	@ zero_extendqisi2
 3687              		.loc 1 804 49
 3688 01ba 144B     		ldr	r3, .L110+8
 3689 01bc DB78     		ldrb	r3, [r3, #3]	@ zero_extendqisi2
 803:ioLIB/dhcp.c  **** 				    OLD_allocated_ip[2] != DHCP_allocated_ip[2] ||
 3690              		.loc 1 803 53
 3691 01be 9A42     		cmp	r2, r3
 3692 01c0 04D0     		beq	.L105
 3693              	.L104:
 805:ioLIB/dhcp.c  **** 				{
 806:ioLIB/dhcp.c  **** 					ret = DHCP_IP_CHANGED;
 3694              		.loc 1 806 10
 3695 01c2 0323     		movs	r3, #3
 3696 01c4 FB71     		strb	r3, [r7, #7]
 807:ioLIB/dhcp.c  **** 					dhcp_ip_update();
 3697              		.loc 1 807 6
 3698 01c6 1A4B     		ldr	r3, .L110+44
 3699 01c8 1B68     		ldr	r3, [r3]
 3700 01ca 9847     		blx	r3
 3701              	.LVL2:
 3702              	.L105:
 808:ioLIB/dhcp.c  ****                #ifdef _DHCP_DEBUG_
 809:ioLIB/dhcp.c  ****                   printf(">IP changed.\r\n");
 810:ioLIB/dhcp.c  ****                #endif
 811:ioLIB/dhcp.c  **** 					
 812:ioLIB/dhcp.c  **** 				}
 813:ioLIB/dhcp.c  ****          #ifdef _DHCP_DEBUG_
 814:ioLIB/dhcp.c  ****             else printf(">IP is continued.\r\n");
 815:ioLIB/dhcp.c  ****          #endif            				
 816:ioLIB/dhcp.c  **** 				reset_DHCP_timeout();
 3703              		.loc 1 816 5
 3704 01cc FFF7FEFF 		bl	reset_DHCP_timeout
 817:ioLIB/dhcp.c  **** 				dhcp_state = STATE_DHCP_LEASED;
 3705              		.loc 1 817 16
 3706 01d0 0C4B     		ldr	r3, .L110
 3707 01d2 0322     		movs	r2, #3
 3708 01d4 1A70     		strb	r2, [r3]
 818:ioLIB/dhcp.c  **** 			} else if (type == DHCP_NAK) {
 819:ioLIB/dhcp.c  **** 
 820:ioLIB/dhcp.c  **** #ifdef _DHCP_DEBUG_
 821:ioLIB/dhcp.c  **** 				printf("> Receive DHCP_NACK, Failed to maintain ip\r\n");
 822:ioLIB/dhcp.c  **** #endif
 823:ioLIB/dhcp.c  **** 
 824:ioLIB/dhcp.c  **** 				reset_DHCP_timeout();
 825:ioLIB/dhcp.c  **** 
 826:ioLIB/dhcp.c  **** 				dhcp_state = STATE_DHCP_DISCOVER;
 827:ioLIB/dhcp.c  **** 			} else ret = check_DHCP_timeout();
 828:ioLIB/dhcp.c  **** 	   	break;
 3709              		.loc 1 828 6
 3710 01d6 10E0     		b	.L95
ARM GAS  C:\Users\clay0\AppData\Local\Temp\ccq2B2ZX.s 			page 80


 3711              	.L103:
 818:ioLIB/dhcp.c  **** 			} else if (type == DHCP_NAK) {
 3712              		.loc 1 818 14
 3713 01d8 BB79     		ldrb	r3, [r7, #6]	@ zero_extendqisi2
 3714 01da 062B     		cmp	r3, #6
 3715 01dc 05D1     		bne	.L107
 824:ioLIB/dhcp.c  **** 
 3716              		.loc 1 824 5
 3717 01de FFF7FEFF 		bl	reset_DHCP_timeout
 826:ioLIB/dhcp.c  **** 			} else ret = check_DHCP_timeout();
 3718              		.loc 1 826 16
 3719 01e2 084B     		ldr	r3, .L110
 3720 01e4 0122     		movs	r2, #1
 3721 01e6 1A70     		strb	r2, [r3]
 3722              		.loc 1 828 6
 3723 01e8 07E0     		b	.L95
 3724              	.L107:
 827:ioLIB/dhcp.c  **** 	   	break;
 3725              		.loc 1 827 17
 3726 01ea FFF7FEFF 		bl	check_DHCP_timeout
 3727 01ee 0346     		mov	r3, r0
 3728 01f0 FB71     		strb	r3, [r7, #7]
 3729              		.loc 1 828 6
 3730 01f2 02E0     		b	.L95
 3731              	.L108:
 829:ioLIB/dhcp.c  **** 		default :
 830:ioLIB/dhcp.c  ****    		break;
 3732              		.loc 1 830 6
 3733 01f4 00BF     		nop
 3734 01f6 00E0     		b	.L95
 3735              	.L109:
 795:ioLIB/dhcp.c  **** 
 3736              		.loc 1 795 3
 3737 01f8 00BF     		nop
 3738              	.L95:
 831:ioLIB/dhcp.c  **** 	}
 832:ioLIB/dhcp.c  **** 
 833:ioLIB/dhcp.c  **** 	return ret;
 3739              		.loc 1 833 9
 3740 01fa FB79     		ldrb	r3, [r7, #7]	@ zero_extendqisi2
 3741              	.L86:
 834:ioLIB/dhcp.c  **** }
 3742              		.loc 1 834 1
 3743 01fc 1846     		mov	r0, r3
 3744 01fe 0837     		adds	r7, r7, #8
 3745              	.LCFI40:
 3746              		.cfi_def_cfa_offset 8
 3747 0200 BD46     		mov	sp, r7
 3748              	.LCFI41:
 3749              		.cfi_def_cfa_register 13
 3750              		@ sp needed
 3751 0202 80BD     		pop	{r7, pc}
 3752              	.L111:
 3753              		.align	2
 3754              	.L110:
 3755 0204 00000000 		.word	dhcp_state
 3756 0208 00000000 		.word	DHCP_SOCKET
ARM GAS  C:\Users\clay0\AppData\Local\Temp\ccq2B2ZX.s 			page 81


 3757 020c 00000000 		.word	DHCP_allocated_ip
 3758 0210 00000000 		.word	pDHCPMSG
 3759 0214 00000000 		.word	dhcp_ip_assign
 3760 0218 00000000 		.word	dhcp_ip_conflict
 3761 021c 00000000 		.word	dhcp_lease_time
 3762 0220 00000000 		.word	dhcp_tick_1s
 3763 0224 00000000 		.word	OLD_allocated_ip
 3764 0228 00000000 		.word	DHCP_XID
 3765 022c 00000000 		.word	dhcp_retry_count
 3766 0230 00000000 		.word	dhcp_ip_update
 3767              		.cfi_endproc
 3768              	.LFE9:
 3770              		.section	.text.DHCP_stop,"ax",%progbits
 3771              		.align	1
 3772              		.global	DHCP_stop
 3773              		.syntax unified
 3774              		.thumb
 3775              		.thumb_func
 3777              	DHCP_stop:
 3778              	.LFB10:
 835:ioLIB/dhcp.c  **** 
 836:ioLIB/dhcp.c  **** void    DHCP_stop(void)
 837:ioLIB/dhcp.c  **** {
 3779              		.loc 1 837 1
 3780              		.cfi_startproc
 3781              		@ args = 0, pretend = 0, frame = 0
 3782              		@ frame_needed = 1, uses_anonymous_args = 0
 3783 0000 80B5     		push	{r7, lr}
 3784              	.LCFI42:
 3785              		.cfi_def_cfa_offset 8
 3786              		.cfi_offset 7, -8
 3787              		.cfi_offset 14, -4
 3788 0002 00AF     		add	r7, sp, #0
 3789              	.LCFI43:
 3790              		.cfi_def_cfa_register 7
 838:ioLIB/dhcp.c  ****    close(DHCP_SOCKET);
 3791              		.loc 1 838 4
 3792 0004 044B     		ldr	r3, .L113
 3793 0006 1B78     		ldrb	r3, [r3]	@ zero_extendqisi2
 3794 0008 1846     		mov	r0, r3
 3795 000a FFF7FEFF 		bl	close
 839:ioLIB/dhcp.c  ****    dhcp_state = STATE_DHCP_STOP;
 3796              		.loc 1 839 15
 3797 000e 034B     		ldr	r3, .L113+4
 3798 0010 0622     		movs	r2, #6
 3799 0012 1A70     		strb	r2, [r3]
 840:ioLIB/dhcp.c  **** }
 3800              		.loc 1 840 1
 3801 0014 00BF     		nop
 3802 0016 80BD     		pop	{r7, pc}
 3803              	.L114:
 3804              		.align	2
 3805              	.L113:
 3806 0018 00000000 		.word	DHCP_SOCKET
 3807 001c 00000000 		.word	dhcp_state
 3808              		.cfi_endproc
 3809              	.LFE10:
ARM GAS  C:\Users\clay0\AppData\Local\Temp\ccq2B2ZX.s 			page 82


 3811              		.section	.text.check_DHCP_timeout,"ax",%progbits
 3812              		.align	1
 3813              		.global	check_DHCP_timeout
 3814              		.syntax unified
 3815              		.thumb
 3816              		.thumb_func
 3818              	check_DHCP_timeout:
 3819              	.LFB11:
 841:ioLIB/dhcp.c  **** 
 842:ioLIB/dhcp.c  **** uint8_t check_DHCP_timeout(void)
 843:ioLIB/dhcp.c  **** {
 3820              		.loc 1 843 1
 3821              		.cfi_startproc
 3822              		@ args = 0, pretend = 0, frame = 8
 3823              		@ frame_needed = 1, uses_anonymous_args = 0
 3824 0000 80B5     		push	{r7, lr}
 3825              	.LCFI44:
 3826              		.cfi_def_cfa_offset 8
 3827              		.cfi_offset 7, -8
 3828              		.cfi_offset 14, -4
 3829 0002 82B0     		sub	sp, sp, #8
 3830              	.LCFI45:
 3831              		.cfi_def_cfa_offset 16
 3832 0004 00AF     		add	r7, sp, #0
 3833              	.LCFI46:
 3834              		.cfi_def_cfa_register 7
 844:ioLIB/dhcp.c  **** 	uint8_t ret = DHCP_RUNNING;
 3835              		.loc 1 844 10
 3836 0006 0123     		movs	r3, #1
 3837 0008 FB71     		strb	r3, [r7, #7]
 845:ioLIB/dhcp.c  **** 	
 846:ioLIB/dhcp.c  **** 	if (dhcp_retry_count < MAX_DHCP_RETRY) {
 3838              		.loc 1 846 23
 3839 000a 294B     		ldr	r3, .L130
 3840 000c 93F90030 		ldrsb	r3, [r3]
 3841              		.loc 1 846 5
 3842 0010 012B     		cmp	r3, #1
 3843 0012 2DDC     		bgt	.L116
 847:ioLIB/dhcp.c  **** 		if (dhcp_tick_next < dhcp_tick_1s) {
 3844              		.loc 1 847 22
 3845 0014 274B     		ldr	r3, .L130+4
 3846 0016 1A68     		ldr	r2, [r3]
 3847 0018 274B     		ldr	r3, .L130+8
 3848 001a 1B68     		ldr	r3, [r3]
 3849              		.loc 1 847 6
 3850 001c 9A42     		cmp	r2, r3
 3851 001e 42D2     		bcs	.L117
 848:ioLIB/dhcp.c  **** 
 849:ioLIB/dhcp.c  **** 			switch ( dhcp_state ) {
 3852              		.loc 1 849 4
 3853 0020 264B     		ldr	r3, .L130+12
 3854 0022 93F90030 		ldrsb	r3, [r3]
 3855 0026 042B     		cmp	r3, #4
 3856 0028 0CD0     		beq	.L118
 3857 002a 042B     		cmp	r3, #4
 3858 002c 0DDC     		bgt	.L128
 3859 002e 012B     		cmp	r3, #1
ARM GAS  C:\Users\clay0\AppData\Local\Temp\ccq2B2ZX.s 			page 83


 3860 0030 02D0     		beq	.L120
 3861 0032 022B     		cmp	r3, #2
 3862 0034 03D0     		beq	.L121
 850:ioLIB/dhcp.c  **** 				case STATE_DHCP_DISCOVER :
 851:ioLIB/dhcp.c  **** //					printf("<<timeout>> state : STATE_DHCP_DISCOVER\r\n");
 852:ioLIB/dhcp.c  **** 					send_DHCP_DISCOVER();
 853:ioLIB/dhcp.c  **** 				break;
 854:ioLIB/dhcp.c  **** 		
 855:ioLIB/dhcp.c  **** 				case STATE_DHCP_REQUEST :
 856:ioLIB/dhcp.c  **** //					printf("<<timeout>> state : STATE_DHCP_REQUEST\r\n");
 857:ioLIB/dhcp.c  **** 
 858:ioLIB/dhcp.c  **** 					send_DHCP_REQUEST();
 859:ioLIB/dhcp.c  **** 				break;
 860:ioLIB/dhcp.c  **** 
 861:ioLIB/dhcp.c  **** 				case STATE_DHCP_REREQUEST :
 862:ioLIB/dhcp.c  **** //					printf("<<timeout>> state : STATE_DHCP_REREQUEST\r\n");
 863:ioLIB/dhcp.c  **** 					
 864:ioLIB/dhcp.c  **** 					send_DHCP_REQUEST();
 865:ioLIB/dhcp.c  **** 				break;
 866:ioLIB/dhcp.c  **** 		
 867:ioLIB/dhcp.c  **** 				default :
 868:ioLIB/dhcp.c  **** 				break;
 3863              		.loc 1 868 5
 3864 0036 08E0     		b	.L128
 3865              	.L120:
 852:ioLIB/dhcp.c  **** 				break;
 3866              		.loc 1 852 6
 3867 0038 FFF7FEFF 		bl	send_DHCP_DISCOVER
 853:ioLIB/dhcp.c  **** 		
 3868              		.loc 1 853 5
 3869 003c 06E0     		b	.L122
 3870              	.L121:
 858:ioLIB/dhcp.c  **** 				break;
 3871              		.loc 1 858 6
 3872 003e FFF7FEFF 		bl	send_DHCP_REQUEST
 859:ioLIB/dhcp.c  **** 
 3873              		.loc 1 859 5
 3874 0042 03E0     		b	.L122
 3875              	.L118:
 864:ioLIB/dhcp.c  **** 				break;
 3876              		.loc 1 864 6
 3877 0044 FFF7FEFF 		bl	send_DHCP_REQUEST
 865:ioLIB/dhcp.c  **** 		
 3878              		.loc 1 865 5
 3879 0048 00E0     		b	.L122
 3880              	.L128:
 3881              		.loc 1 868 5
 3882 004a 00BF     		nop
 3883              	.L122:
 869:ioLIB/dhcp.c  **** 			}
 870:ioLIB/dhcp.c  **** 
 871:ioLIB/dhcp.c  **** 			dhcp_tick_1s = 0;
 3884              		.loc 1 871 17
 3885 004c 1A4B     		ldr	r3, .L130+8
 3886 004e 0022     		movs	r2, #0
 3887 0050 1A60     		str	r2, [r3]
 872:ioLIB/dhcp.c  **** 			dhcp_tick_next = dhcp_tick_1s + DHCP_WAIT_TIME;
ARM GAS  C:\Users\clay0\AppData\Local\Temp\ccq2B2ZX.s 			page 84


 3888              		.loc 1 872 34
 3889 0052 194B     		ldr	r3, .L130+8
 3890 0054 1B68     		ldr	r3, [r3]
 3891 0056 0A33     		adds	r3, r3, #10
 3892              		.loc 1 872 19
 3893 0058 164A     		ldr	r2, .L130+4
 3894 005a 1360     		str	r3, [r2]
 873:ioLIB/dhcp.c  **** 			dhcp_retry_count++;
 3895              		.loc 1 873 20
 3896 005c 144B     		ldr	r3, .L130
 3897 005e 93F90030 		ldrsb	r3, [r3]
 3898 0062 DBB2     		uxtb	r3, r3
 3899 0064 0133     		adds	r3, r3, #1
 3900 0066 DBB2     		uxtb	r3, r3
 3901 0068 5AB2     		sxtb	r2, r3
 3902 006a 114B     		ldr	r3, .L130
 3903 006c 1A70     		strb	r2, [r3]
 3904 006e 1AE0     		b	.L117
 3905              	.L116:
 874:ioLIB/dhcp.c  **** 		}
 875:ioLIB/dhcp.c  **** 	} else { // timeout occurred
 876:ioLIB/dhcp.c  **** 
 877:ioLIB/dhcp.c  **** 		switch(dhcp_state) {
 3906              		.loc 1 877 3
 3907 0070 124B     		ldr	r3, .L130+12
 3908 0072 93F90030 		ldrsb	r3, [r3]
 3909 0076 042B     		cmp	r3, #4
 3910 0078 0CD0     		beq	.L123
 3911 007a 042B     		cmp	r3, #4
 3912 007c 10DC     		bgt	.L129
 3913 007e 012B     		cmp	r3, #1
 3914 0080 02D0     		beq	.L125
 3915 0082 022B     		cmp	r3, #2
 3916 0084 06D0     		beq	.L123
 878:ioLIB/dhcp.c  **** 			case STATE_DHCP_DISCOVER:
 879:ioLIB/dhcp.c  **** 				dhcp_state = STATE_DHCP_INIT;
 880:ioLIB/dhcp.c  **** 				ret = DHCP_FAILED;
 881:ioLIB/dhcp.c  **** 				break;
 882:ioLIB/dhcp.c  **** 			case STATE_DHCP_REQUEST:
 883:ioLIB/dhcp.c  **** 			case STATE_DHCP_REREQUEST:
 884:ioLIB/dhcp.c  **** 				send_DHCP_DISCOVER();
 885:ioLIB/dhcp.c  **** 				dhcp_state = STATE_DHCP_DISCOVER;
 886:ioLIB/dhcp.c  **** 				break;
 887:ioLIB/dhcp.c  **** 			default :
 888:ioLIB/dhcp.c  **** 				break;
 3917              		.loc 1 888 5
 3918 0086 0BE0     		b	.L129
 3919              	.L125:
 879:ioLIB/dhcp.c  **** 				ret = DHCP_FAILED;
 3920              		.loc 1 879 16
 3921 0088 0C4B     		ldr	r3, .L130+12
 3922 008a 0022     		movs	r2, #0
 3923 008c 1A70     		strb	r2, [r3]
 880:ioLIB/dhcp.c  **** 				break;
 3924              		.loc 1 880 9
 3925 008e 0023     		movs	r3, #0
 3926 0090 FB71     		strb	r3, [r7, #7]
ARM GAS  C:\Users\clay0\AppData\Local\Temp\ccq2B2ZX.s 			page 85


 881:ioLIB/dhcp.c  **** 			case STATE_DHCP_REQUEST:
 3927              		.loc 1 881 5
 3928 0092 06E0     		b	.L126
 3929              	.L123:
 884:ioLIB/dhcp.c  **** 				dhcp_state = STATE_DHCP_DISCOVER;
 3930              		.loc 1 884 5
 3931 0094 FFF7FEFF 		bl	send_DHCP_DISCOVER
 885:ioLIB/dhcp.c  **** 				break;
 3932              		.loc 1 885 16
 3933 0098 084B     		ldr	r3, .L130+12
 3934 009a 0122     		movs	r2, #1
 3935 009c 1A70     		strb	r2, [r3]
 886:ioLIB/dhcp.c  **** 			default :
 3936              		.loc 1 886 5
 3937 009e 00E0     		b	.L126
 3938              	.L129:
 3939              		.loc 1 888 5
 3940 00a0 00BF     		nop
 3941              	.L126:
 889:ioLIB/dhcp.c  **** 		}
 890:ioLIB/dhcp.c  **** 		reset_DHCP_timeout();
 3942              		.loc 1 890 3
 3943 00a2 FFF7FEFF 		bl	reset_DHCP_timeout
 3944              	.L117:
 891:ioLIB/dhcp.c  **** 	}
 892:ioLIB/dhcp.c  **** 	return ret;
 3945              		.loc 1 892 9
 3946 00a6 FB79     		ldrb	r3, [r7, #7]	@ zero_extendqisi2
 893:ioLIB/dhcp.c  **** }
 3947              		.loc 1 893 1
 3948 00a8 1846     		mov	r0, r3
 3949 00aa 0837     		adds	r7, r7, #8
 3950              	.LCFI47:
 3951              		.cfi_def_cfa_offset 8
 3952 00ac BD46     		mov	sp, r7
 3953              	.LCFI48:
 3954              		.cfi_def_cfa_register 13
 3955              		@ sp needed
 3956 00ae 80BD     		pop	{r7, pc}
 3957              	.L131:
 3958              		.align	2
 3959              	.L130:
 3960 00b0 00000000 		.word	dhcp_retry_count
 3961 00b4 00000000 		.word	dhcp_tick_next
 3962 00b8 00000000 		.word	dhcp_tick_1s
 3963 00bc 00000000 		.word	dhcp_state
 3964              		.cfi_endproc
 3965              	.LFE11:
 3967              		.section	.rodata
 3968              		.align	2
 3969              	.LC0:
 3970 0000 43484543 		.ascii	"CHECK_IP_CONFLICT\000"
 3970      4B5F4950 
 3970      5F434F4E 
 3970      464C4943 
 3970      5400
 3971              		.section	.text.check_DHCP_leasedIP,"ax",%progbits
ARM GAS  C:\Users\clay0\AppData\Local\Temp\ccq2B2ZX.s 			page 86


 3972              		.align	1
 3973              		.global	check_DHCP_leasedIP
 3974              		.syntax unified
 3975              		.thumb
 3976              		.thumb_func
 3978              	check_DHCP_leasedIP:
 3979              	.LFB12:
 894:ioLIB/dhcp.c  **** 
 895:ioLIB/dhcp.c  **** int8_t check_DHCP_leasedIP(void)
 896:ioLIB/dhcp.c  **** {
 3980              		.loc 1 896 1
 3981              		.cfi_startproc
 3982              		@ args = 0, pretend = 0, frame = 8
 3983              		@ frame_needed = 1, uses_anonymous_args = 0
 3984 0000 80B5     		push	{r7, lr}
 3985              	.LCFI49:
 3986              		.cfi_def_cfa_offset 8
 3987              		.cfi_offset 7, -8
 3988              		.cfi_offset 14, -4
 3989 0002 84B0     		sub	sp, sp, #16
 3990              	.LCFI50:
 3991              		.cfi_def_cfa_offset 24
 3992 0004 02AF     		add	r7, sp, #8
 3993              	.LCFI51:
 3994              		.cfi_def_cfa 7, 16
 897:ioLIB/dhcp.c  **** 	uint8_t tmp;
 898:ioLIB/dhcp.c  **** 	int32_t ret;
 899:ioLIB/dhcp.c  **** 
 900:ioLIB/dhcp.c  **** 	//WIZchip RCR value changed for ARP Timeout count control
 901:ioLIB/dhcp.c  **** 	tmp = getRCR();
 3995              		.loc 1 901 8
 3996 0006 4FF4D850 		mov	r0, #6912
 3997 000a FFF7FEFF 		bl	WIZCHIP_READ
 3998 000e 0346     		mov	r3, r0
 3999 0010 FB71     		strb	r3, [r7, #7]
 902:ioLIB/dhcp.c  **** 	setRCR(0x03);
 4000              		.loc 1 902 2
 4001 0012 0321     		movs	r1, #3
 4002 0014 4FF4D850 		mov	r0, #6912
 4003 0018 FFF7FEFF 		bl	WIZCHIP_WRITE
 903:ioLIB/dhcp.c  **** 
 904:ioLIB/dhcp.c  **** 	// IP conflict detection : ARP request - ARP reply
 905:ioLIB/dhcp.c  **** 	// Broadcasting ARP Request for check the IP conflict using UDP sendto() function
 906:ioLIB/dhcp.c  **** 	ret = sendto(DHCP_SOCKET, (uint8_t *)"CHECK_IP_CONFLICT", 17, DHCP_allocated_ip, 5000);
 4004              		.loc 1 906 8
 4005 001c 134B     		ldr	r3, .L136
 4006 001e 1878     		ldrb	r0, [r3]	@ zero_extendqisi2
 4007 0020 41F28833 		movw	r3, #5000
 4008 0024 0093     		str	r3, [sp]
 4009 0026 124B     		ldr	r3, .L136+4
 4010 0028 1122     		movs	r2, #17
 4011 002a 1249     		ldr	r1, .L136+8
 4012 002c FFF7FEFF 		bl	sendto
 4013 0030 3860     		str	r0, [r7]
 907:ioLIB/dhcp.c  **** 
 908:ioLIB/dhcp.c  **** 	// RCR value restore
 909:ioLIB/dhcp.c  **** 	setRCR(tmp);
ARM GAS  C:\Users\clay0\AppData\Local\Temp\ccq2B2ZX.s 			page 87


 4014              		.loc 1 909 2
 4015 0032 FB79     		ldrb	r3, [r7, #7]	@ zero_extendqisi2
 4016 0034 1946     		mov	r1, r3
 4017 0036 4FF4D850 		mov	r0, #6912
 4018 003a FFF7FEFF 		bl	WIZCHIP_WRITE
 910:ioLIB/dhcp.c  **** 
 911:ioLIB/dhcp.c  **** 	if(ret == SOCKERR_TIMEOUT) {
 4019              		.loc 1 911 4
 4020 003e 3B68     		ldr	r3, [r7]
 4021 0040 13F10D0F 		cmn	r3, #13
 4022 0044 01D1     		bne	.L133
 912:ioLIB/dhcp.c  **** 		// UDP send Timeout occurred : allocated IP address is unique, DHCP Success
 913:ioLIB/dhcp.c  **** 
 914:ioLIB/dhcp.c  **** #ifdef _DHCP_DEBUG_
 915:ioLIB/dhcp.c  **** 		printf("\r\n> Check leased IP - OK\r\n");
 916:ioLIB/dhcp.c  **** #endif
 917:ioLIB/dhcp.c  **** 
 918:ioLIB/dhcp.c  **** 		return 1;
 4023              		.loc 1 918 10
 4024 0046 0123     		movs	r3, #1
 4025 0048 0CE0     		b	.L134
 4026              	.L133:
 919:ioLIB/dhcp.c  **** 	} else {
 920:ioLIB/dhcp.c  **** 		// Received ARP reply or etc : IP address conflict occur, DHCP Failed
 921:ioLIB/dhcp.c  **** 		send_DHCP_DECLINE();
 4027              		.loc 1 921 3
 4028 004a FFF7FEFF 		bl	send_DHCP_DECLINE
 922:ioLIB/dhcp.c  **** 
 923:ioLIB/dhcp.c  **** 		ret = dhcp_tick_1s;
 4029              		.loc 1 923 7
 4030 004e 0A4B     		ldr	r3, .L136+12
 4031 0050 1B68     		ldr	r3, [r3]
 4032 0052 3B60     		str	r3, [r7]
 924:ioLIB/dhcp.c  **** 		while((dhcp_tick_1s - ret) < 2) ;   // wait for 1s over; wait to complete to send DECLINE message
 4033              		.loc 1 924 8
 4034 0054 00BF     		nop
 4035              	.L135:
 4036              		.loc 1 924 23 discriminator 1
 4037 0056 084B     		ldr	r3, .L136+12
 4038 0058 1A68     		ldr	r2, [r3]
 4039 005a 3B68     		ldr	r3, [r7]
 4040 005c D31A     		subs	r3, r2, r3
 4041              		.loc 1 924 8 discriminator 1
 4042 005e 012B     		cmp	r3, #1
 4043 0060 F9D9     		bls	.L135
 925:ioLIB/dhcp.c  **** 
 926:ioLIB/dhcp.c  **** 		return 0;
 4044              		.loc 1 926 10
 4045 0062 0023     		movs	r3, #0
 4046              	.L134:
 927:ioLIB/dhcp.c  **** 	}
 928:ioLIB/dhcp.c  **** }	
 4047              		.loc 1 928 1
 4048 0064 1846     		mov	r0, r3
 4049 0066 0837     		adds	r7, r7, #8
 4050              	.LCFI52:
 4051              		.cfi_def_cfa_offset 8
ARM GAS  C:\Users\clay0\AppData\Local\Temp\ccq2B2ZX.s 			page 88


 4052 0068 BD46     		mov	sp, r7
 4053              	.LCFI53:
 4054              		.cfi_def_cfa_register 13
 4055              		@ sp needed
 4056 006a 80BD     		pop	{r7, pc}
 4057              	.L137:
 4058              		.align	2
 4059              	.L136:
 4060 006c 00000000 		.word	DHCP_SOCKET
 4061 0070 00000000 		.word	DHCP_allocated_ip
 4062 0074 00000000 		.word	.LC0
 4063 0078 00000000 		.word	dhcp_tick_1s
 4064              		.cfi_endproc
 4065              	.LFE12:
 4067              		.section	.text.DHCP_init,"ax",%progbits
 4068              		.align	1
 4069              		.global	DHCP_init
 4070              		.syntax unified
 4071              		.thumb
 4072              		.thumb_func
 4074              	DHCP_init:
 4075              	.LFB13:
 929:ioLIB/dhcp.c  **** 
 930:ioLIB/dhcp.c  **** void DHCP_init(uint8_t s, uint8_t * buf)
 931:ioLIB/dhcp.c  **** {
 4076              		.loc 1 931 1
 4077              		.cfi_startproc
 4078              		@ args = 0, pretend = 0, frame = 16
 4079              		@ frame_needed = 1, uses_anonymous_args = 0
 4080 0000 80B5     		push	{r7, lr}
 4081              	.LCFI54:
 4082              		.cfi_def_cfa_offset 8
 4083              		.cfi_offset 7, -8
 4084              		.cfi_offset 14, -4
 4085 0002 84B0     		sub	sp, sp, #16
 4086              	.LCFI55:
 4087              		.cfi_def_cfa_offset 24
 4088 0004 00AF     		add	r7, sp, #0
 4089              	.LCFI56:
 4090              		.cfi_def_cfa_register 7
 4091 0006 0346     		mov	r3, r0
 4092 0008 3960     		str	r1, [r7]
 4093 000a FB71     		strb	r3, [r7, #7]
 932:ioLIB/dhcp.c  ****    uint8_t zeroip[4] = {0,0,0,0};
 4094              		.loc 1 932 12
 4095 000c 0023     		movs	r3, #0
 4096 000e FB60     		str	r3, [r7, #12]
 933:ioLIB/dhcp.c  ****    getSHAR(DHCP_CHADDR);
 4097              		.loc 1 933 4
 4098 0010 0622     		movs	r2, #6
 4099 0012 3F49     		ldr	r1, .L140
 4100 0014 4FF41060 		mov	r0, #2304
 4101 0018 FFF7FEFF 		bl	WIZCHIP_READ_BUF
 934:ioLIB/dhcp.c  ****    if((DHCP_CHADDR[0] | DHCP_CHADDR[1]  | DHCP_CHADDR[2] | DHCP_CHADDR[3] | DHCP_CHADDR[4] | DHCP_C
 4102              		.loc 1 934 19
 4103 001c 3C4B     		ldr	r3, .L140
 4104 001e 1A78     		ldrb	r2, [r3]	@ zero_extendqisi2
ARM GAS  C:\Users\clay0\AppData\Local\Temp\ccq2B2ZX.s 			page 89


 4105              		.loc 1 934 36
 4106 0020 3B4B     		ldr	r3, .L140
 4107 0022 5B78     		ldrb	r3, [r3, #1]	@ zero_extendqisi2
 4108              		.loc 1 934 110
 4109 0024 1343     		orrs	r3, r3, r2
 4110 0026 DAB2     		uxtb	r2, r3
 4111              		.loc 1 934 54
 4112 0028 394B     		ldr	r3, .L140
 4113 002a 9B78     		ldrb	r3, [r3, #2]	@ zero_extendqisi2
 4114              		.loc 1 934 110
 4115 002c 1343     		orrs	r3, r3, r2
 4116 002e DAB2     		uxtb	r2, r3
 4117              		.loc 1 934 71
 4118 0030 374B     		ldr	r3, .L140
 4119 0032 DB78     		ldrb	r3, [r3, #3]	@ zero_extendqisi2
 4120              		.loc 1 934 110
 4121 0034 1343     		orrs	r3, r3, r2
 4122 0036 DAB2     		uxtb	r2, r3
 4123              		.loc 1 934 88
 4124 0038 354B     		ldr	r3, .L140
 4125 003a 1B79     		ldrb	r3, [r3, #4]	@ zero_extendqisi2
 4126              		.loc 1 934 110
 4127 003c 1343     		orrs	r3, r3, r2
 4128 003e DAB2     		uxtb	r2, r3
 4129              		.loc 1 934 105
 4130 0040 334B     		ldr	r3, .L140
 4131 0042 5B79     		ldrb	r3, [r3, #5]	@ zero_extendqisi2
 4132              		.loc 1 934 110
 4133 0044 1343     		orrs	r3, r3, r2
 4134 0046 DBB2     		uxtb	r3, r3
 4135              		.loc 1 934 6
 4136 0048 002B     		cmp	r3, #0
 4137 004a 17D1     		bne	.L139
 935:ioLIB/dhcp.c  ****    {
 936:ioLIB/dhcp.c  ****       // assigning temporary mac address, you should be set SHAR before call this function. 
 937:ioLIB/dhcp.c  ****       DHCP_CHADDR[0] = 0x00;
 4138              		.loc 1 937 22
 4139 004c 304B     		ldr	r3, .L140
 4140 004e 0022     		movs	r2, #0
 4141 0050 1A70     		strb	r2, [r3]
 938:ioLIB/dhcp.c  ****       DHCP_CHADDR[1] = 0x08;
 4142              		.loc 1 938 22
 4143 0052 2F4B     		ldr	r3, .L140
 4144 0054 0822     		movs	r2, #8
 4145 0056 5A70     		strb	r2, [r3, #1]
 939:ioLIB/dhcp.c  ****       DHCP_CHADDR[2] = 0xdc;      
 4146              		.loc 1 939 22
 4147 0058 2D4B     		ldr	r3, .L140
 4148 005a DC22     		movs	r2, #220
 4149 005c 9A70     		strb	r2, [r3, #2]
 940:ioLIB/dhcp.c  ****       DHCP_CHADDR[3] = 0x00;
 4150              		.loc 1 940 22
 4151 005e 2C4B     		ldr	r3, .L140
 4152 0060 0022     		movs	r2, #0
 4153 0062 DA70     		strb	r2, [r3, #3]
 941:ioLIB/dhcp.c  ****       DHCP_CHADDR[4] = 0x00;
 4154              		.loc 1 941 22
ARM GAS  C:\Users\clay0\AppData\Local\Temp\ccq2B2ZX.s 			page 90


 4155 0064 2A4B     		ldr	r3, .L140
 4156 0066 0022     		movs	r2, #0
 4157 0068 1A71     		strb	r2, [r3, #4]
 942:ioLIB/dhcp.c  ****       DHCP_CHADDR[5] = 0x00; 
 4158              		.loc 1 942 22
 4159 006a 294B     		ldr	r3, .L140
 4160 006c 0022     		movs	r2, #0
 4161 006e 5A71     		strb	r2, [r3, #5]
 943:ioLIB/dhcp.c  ****       setSHAR(DHCP_CHADDR);     
 4162              		.loc 1 943 7
 4163 0070 0622     		movs	r2, #6
 4164 0072 2749     		ldr	r1, .L140
 4165 0074 4FF41060 		mov	r0, #2304
 4166 0078 FFF7FEFF 		bl	WIZCHIP_WRITE_BUF
 4167              	.L139:
 944:ioLIB/dhcp.c  ****    }
 945:ioLIB/dhcp.c  **** 
 946:ioLIB/dhcp.c  **** 	DHCP_SOCKET = s; // SOCK_DHCP
 4168              		.loc 1 946 14
 4169 007c 254A     		ldr	r2, .L140+4
 4170 007e FB79     		ldrb	r3, [r7, #7]
 4171 0080 1370     		strb	r3, [r2]
 947:ioLIB/dhcp.c  **** 	pDHCPMSG = (RIP_MSG*)buf;
 4172              		.loc 1 947 11
 4173 0082 254A     		ldr	r2, .L140+8
 4174 0084 3B68     		ldr	r3, [r7]
 4175 0086 1360     		str	r3, [r2]
 948:ioLIB/dhcp.c  **** 	DHCP_XID = 0x12345678;
 4176              		.loc 1 948 11
 4177 0088 244B     		ldr	r3, .L140+12
 4178 008a 254A     		ldr	r2, .L140+16
 4179 008c 1A60     		str	r2, [r3]
 949:ioLIB/dhcp.c  **** 	{
 950:ioLIB/dhcp.c  **** 		DHCP_XID += DHCP_CHADDR[3];
 4180              		.loc 1 950 26
 4181 008e 204B     		ldr	r3, .L140
 4182 0090 DB78     		ldrb	r3, [r3, #3]	@ zero_extendqisi2
 4183 0092 1A46     		mov	r2, r3
 4184              		.loc 1 950 12
 4185 0094 214B     		ldr	r3, .L140+12
 4186 0096 1B68     		ldr	r3, [r3]
 4187 0098 1344     		add	r3, r3, r2
 4188 009a 204A     		ldr	r2, .L140+12
 4189 009c 1360     		str	r3, [r2]
 951:ioLIB/dhcp.c  **** 		DHCP_XID += DHCP_CHADDR[4];
 4190              		.loc 1 951 26
 4191 009e 1C4B     		ldr	r3, .L140
 4192 00a0 1B79     		ldrb	r3, [r3, #4]	@ zero_extendqisi2
 4193 00a2 1A46     		mov	r2, r3
 4194              		.loc 1 951 12
 4195 00a4 1D4B     		ldr	r3, .L140+12
 4196 00a6 1B68     		ldr	r3, [r3]
 4197 00a8 1344     		add	r3, r3, r2
 4198 00aa 1C4A     		ldr	r2, .L140+12
 4199 00ac 1360     		str	r3, [r2]
 952:ioLIB/dhcp.c  **** 		DHCP_XID += DHCP_CHADDR[5];
 4200              		.loc 1 952 26
ARM GAS  C:\Users\clay0\AppData\Local\Temp\ccq2B2ZX.s 			page 91


 4201 00ae 184B     		ldr	r3, .L140
 4202 00b0 5B79     		ldrb	r3, [r3, #5]	@ zero_extendqisi2
 4203 00b2 1A46     		mov	r2, r3
 4204              		.loc 1 952 12
 4205 00b4 194B     		ldr	r3, .L140+12
 4206 00b6 1B68     		ldr	r3, [r3]
 4207 00b8 1344     		add	r3, r3, r2
 4208 00ba 184A     		ldr	r2, .L140+12
 4209 00bc 1360     		str	r3, [r2]
 953:ioLIB/dhcp.c  **** 		DHCP_XID += (DHCP_CHADDR[3] ^ DHCP_CHADDR[4] ^ DHCP_CHADDR[5]);
 4210              		.loc 1 953 27
 4211 00be 144B     		ldr	r3, .L140
 4212 00c0 DA78     		ldrb	r2, [r3, #3]	@ zero_extendqisi2
 4213              		.loc 1 953 44
 4214 00c2 134B     		ldr	r3, .L140
 4215 00c4 1B79     		ldrb	r3, [r3, #4]	@ zero_extendqisi2
 4216              		.loc 1 953 48
 4217 00c6 5340     		eors	r3, r3, r2
 4218 00c8 DAB2     		uxtb	r2, r3
 4219              		.loc 1 953 61
 4220 00ca 114B     		ldr	r3, .L140
 4221 00cc 5B79     		ldrb	r3, [r3, #5]	@ zero_extendqisi2
 4222              		.loc 1 953 48
 4223 00ce 5340     		eors	r3, r3, r2
 4224 00d0 DBB2     		uxtb	r3, r3
 4225 00d2 1A46     		mov	r2, r3
 4226              		.loc 1 953 12
 4227 00d4 114B     		ldr	r3, .L140+12
 4228 00d6 1B68     		ldr	r3, [r3]
 4229 00d8 1344     		add	r3, r3, r2
 4230 00da 104A     		ldr	r2, .L140+12
 4231 00dc 1360     		str	r3, [r2]
 954:ioLIB/dhcp.c  **** 	}
 955:ioLIB/dhcp.c  **** 	// WIZchip Netinfo Clear
 956:ioLIB/dhcp.c  **** 	setSIPR(zeroip);
 4232              		.loc 1 956 2
 4233 00de 07F10C03 		add	r3, r7, #12
 4234 00e2 0422     		movs	r2, #4
 4235 00e4 1946     		mov	r1, r3
 4236 00e6 4FF47060 		mov	r0, #3840
 4237 00ea FFF7FEFF 		bl	WIZCHIP_WRITE_BUF
 957:ioLIB/dhcp.c  **** 	setGAR(zeroip);
 4238              		.loc 1 957 2
 4239 00ee 07F10C03 		add	r3, r7, #12
 4240 00f2 0422     		movs	r2, #4
 4241 00f4 1946     		mov	r1, r3
 4242 00f6 4FF48070 		mov	r0, #256
 4243 00fa FFF7FEFF 		bl	WIZCHIP_WRITE_BUF
 958:ioLIB/dhcp.c  **** 
 959:ioLIB/dhcp.c  **** 	reset_DHCP_timeout();
 4244              		.loc 1 959 2
 4245 00fe FFF7FEFF 		bl	reset_DHCP_timeout
 960:ioLIB/dhcp.c  **** 	dhcp_state = STATE_DHCP_INIT;
 4246              		.loc 1 960 13
 4247 0102 084B     		ldr	r3, .L140+20
 4248 0104 0022     		movs	r2, #0
 4249 0106 1A70     		strb	r2, [r3]
ARM GAS  C:\Users\clay0\AppData\Local\Temp\ccq2B2ZX.s 			page 92


 961:ioLIB/dhcp.c  **** }
 4250              		.loc 1 961 1
 4251 0108 00BF     		nop
 4252 010a 1037     		adds	r7, r7, #16
 4253              	.LCFI57:
 4254              		.cfi_def_cfa_offset 8
 4255 010c BD46     		mov	sp, r7
 4256              	.LCFI58:
 4257              		.cfi_def_cfa_register 13
 4258              		@ sp needed
 4259 010e 80BD     		pop	{r7, pc}
 4260              	.L141:
 4261              		.align	2
 4262              	.L140:
 4263 0110 00000000 		.word	DHCP_CHADDR
 4264 0114 00000000 		.word	DHCP_SOCKET
 4265 0118 00000000 		.word	pDHCPMSG
 4266 011c 00000000 		.word	DHCP_XID
 4267 0120 78563412 		.word	305419896
 4268 0124 00000000 		.word	dhcp_state
 4269              		.cfi_endproc
 4270              	.LFE13:
 4272              		.section	.text.reset_DHCP_timeout,"ax",%progbits
 4273              		.align	1
 4274              		.global	reset_DHCP_timeout
 4275              		.syntax unified
 4276              		.thumb
 4277              		.thumb_func
 4279              	reset_DHCP_timeout:
 4280              	.LFB14:
 962:ioLIB/dhcp.c  **** 
 963:ioLIB/dhcp.c  **** 
 964:ioLIB/dhcp.c  **** /* Reset the DHCP timeout count and retry count. */
 965:ioLIB/dhcp.c  **** void reset_DHCP_timeout(void)
 966:ioLIB/dhcp.c  **** {
 4281              		.loc 1 966 1
 4282              		.cfi_startproc
 4283              		@ args = 0, pretend = 0, frame = 0
 4284              		@ frame_needed = 1, uses_anonymous_args = 0
 4285              		@ link register save eliminated.
 4286 0000 80B4     		push	{r7}
 4287              	.LCFI59:
 4288              		.cfi_def_cfa_offset 4
 4289              		.cfi_offset 7, -4
 4290 0002 00AF     		add	r7, sp, #0
 4291              	.LCFI60:
 4292              		.cfi_def_cfa_register 7
 967:ioLIB/dhcp.c  **** 	dhcp_tick_1s = 0;
 4293              		.loc 1 967 15
 4294 0004 064B     		ldr	r3, .L143
 4295 0006 0022     		movs	r2, #0
 4296 0008 1A60     		str	r2, [r3]
 968:ioLIB/dhcp.c  **** 	dhcp_tick_next = DHCP_WAIT_TIME;
 4297              		.loc 1 968 17
 4298 000a 064B     		ldr	r3, .L143+4
 4299 000c 0A22     		movs	r2, #10
 4300 000e 1A60     		str	r2, [r3]
ARM GAS  C:\Users\clay0\AppData\Local\Temp\ccq2B2ZX.s 			page 93


 969:ioLIB/dhcp.c  **** 	dhcp_retry_count = 0;
 4301              		.loc 1 969 19
 4302 0010 054B     		ldr	r3, .L143+8
 4303 0012 0022     		movs	r2, #0
 4304 0014 1A70     		strb	r2, [r3]
 970:ioLIB/dhcp.c  **** }
 4305              		.loc 1 970 1
 4306 0016 00BF     		nop
 4307 0018 BD46     		mov	sp, r7
 4308              	.LCFI61:
 4309              		.cfi_def_cfa_register 13
 4310              		@ sp needed
 4311 001a 5DF8047B 		ldr	r7, [sp], #4
 4312              	.LCFI62:
 4313              		.cfi_restore 7
 4314              		.cfi_def_cfa_offset 0
 4315 001e 7047     		bx	lr
 4316              	.L144:
 4317              		.align	2
 4318              	.L143:
 4319 0020 00000000 		.word	dhcp_tick_1s
 4320 0024 00000000 		.word	dhcp_tick_next
 4321 0028 00000000 		.word	dhcp_retry_count
 4322              		.cfi_endproc
 4323              	.LFE14:
 4325              		.section	.text.DHCP_time_handler,"ax",%progbits
 4326              		.align	1
 4327              		.global	DHCP_time_handler
 4328              		.syntax unified
 4329              		.thumb
 4330              		.thumb_func
 4332              	DHCP_time_handler:
 4333              	.LFB15:
 971:ioLIB/dhcp.c  **** 
 972:ioLIB/dhcp.c  **** void DHCP_time_handler(void)
 973:ioLIB/dhcp.c  **** {
 4334              		.loc 1 973 1
 4335              		.cfi_startproc
 4336              		@ args = 0, pretend = 0, frame = 0
 4337              		@ frame_needed = 1, uses_anonymous_args = 0
 4338              		@ link register save eliminated.
 4339 0000 80B4     		push	{r7}
 4340              	.LCFI63:
 4341              		.cfi_def_cfa_offset 4
 4342              		.cfi_offset 7, -4
 4343 0002 00AF     		add	r7, sp, #0
 4344              	.LCFI64:
 4345              		.cfi_def_cfa_register 7
 974:ioLIB/dhcp.c  **** 	dhcp_tick_1s++;
 4346              		.loc 1 974 14
 4347 0004 044B     		ldr	r3, .L146
 4348 0006 1B68     		ldr	r3, [r3]
 4349 0008 0133     		adds	r3, r3, #1
 4350 000a 034A     		ldr	r2, .L146
 4351 000c 1360     		str	r3, [r2]
 975:ioLIB/dhcp.c  **** }
 4352              		.loc 1 975 1
ARM GAS  C:\Users\clay0\AppData\Local\Temp\ccq2B2ZX.s 			page 94


 4353 000e 00BF     		nop
 4354 0010 BD46     		mov	sp, r7
 4355              	.LCFI65:
 4356              		.cfi_def_cfa_register 13
 4357              		@ sp needed
 4358 0012 5DF8047B 		ldr	r7, [sp], #4
 4359              	.LCFI66:
 4360              		.cfi_restore 7
 4361              		.cfi_def_cfa_offset 0
 4362 0016 7047     		bx	lr
 4363              	.L147:
 4364              		.align	2
 4365              	.L146:
 4366 0018 00000000 		.word	dhcp_tick_1s
 4367              		.cfi_endproc
 4368              	.LFE15:
 4370              		.section	.text.getIPfromDHCP,"ax",%progbits
 4371              		.align	1
 4372              		.global	getIPfromDHCP
 4373              		.syntax unified
 4374              		.thumb
 4375              		.thumb_func
 4377              	getIPfromDHCP:
 4378              	.LFB16:
 976:ioLIB/dhcp.c  **** 
 977:ioLIB/dhcp.c  **** void getIPfromDHCP(uint8_t* ip)
 978:ioLIB/dhcp.c  **** {
 4379              		.loc 1 978 1
 4380              		.cfi_startproc
 4381              		@ args = 0, pretend = 0, frame = 8
 4382              		@ frame_needed = 1, uses_anonymous_args = 0
 4383              		@ link register save eliminated.
 4384 0000 80B4     		push	{r7}
 4385              	.LCFI67:
 4386              		.cfi_def_cfa_offset 4
 4387              		.cfi_offset 7, -4
 4388 0002 83B0     		sub	sp, sp, #12
 4389              	.LCFI68:
 4390              		.cfi_def_cfa_offset 16
 4391 0004 00AF     		add	r7, sp, #0
 4392              	.LCFI69:
 4393              		.cfi_def_cfa_register 7
 4394 0006 7860     		str	r0, [r7, #4]
 979:ioLIB/dhcp.c  **** 	ip[0] = DHCP_allocated_ip[0];
 4395              		.loc 1 979 27
 4396 0008 0C4B     		ldr	r3, .L149
 4397 000a 1A78     		ldrb	r2, [r3]	@ zero_extendqisi2
 4398              		.loc 1 979 8
 4399 000c 7B68     		ldr	r3, [r7, #4]
 4400 000e 1A70     		strb	r2, [r3]
 980:ioLIB/dhcp.c  **** 	ip[1] = DHCP_allocated_ip[1];
 4401              		.loc 1 980 4
 4402 0010 7B68     		ldr	r3, [r7, #4]
 4403 0012 0133     		adds	r3, r3, #1
 4404              		.loc 1 980 27
 4405 0014 094A     		ldr	r2, .L149
 4406 0016 5278     		ldrb	r2, [r2, #1]	@ zero_extendqisi2
ARM GAS  C:\Users\clay0\AppData\Local\Temp\ccq2B2ZX.s 			page 95


 4407              		.loc 1 980 8
 4408 0018 1A70     		strb	r2, [r3]
 981:ioLIB/dhcp.c  **** 	ip[2] = DHCP_allocated_ip[2];	
 4409              		.loc 1 981 4
 4410 001a 7B68     		ldr	r3, [r7, #4]
 4411 001c 0233     		adds	r3, r3, #2
 4412              		.loc 1 981 27
 4413 001e 074A     		ldr	r2, .L149
 4414 0020 9278     		ldrb	r2, [r2, #2]	@ zero_extendqisi2
 4415              		.loc 1 981 8
 4416 0022 1A70     		strb	r2, [r3]
 982:ioLIB/dhcp.c  **** 	ip[3] = DHCP_allocated_ip[3];
 4417              		.loc 1 982 4
 4418 0024 7B68     		ldr	r3, [r7, #4]
 4419 0026 0333     		adds	r3, r3, #3
 4420              		.loc 1 982 27
 4421 0028 044A     		ldr	r2, .L149
 4422 002a D278     		ldrb	r2, [r2, #3]	@ zero_extendqisi2
 4423              		.loc 1 982 8
 4424 002c 1A70     		strb	r2, [r3]
 983:ioLIB/dhcp.c  **** }
 4425              		.loc 1 983 1
 4426 002e 00BF     		nop
 4427 0030 0C37     		adds	r7, r7, #12
 4428              	.LCFI70:
 4429              		.cfi_def_cfa_offset 4
 4430 0032 BD46     		mov	sp, r7
 4431              	.LCFI71:
 4432              		.cfi_def_cfa_register 13
 4433              		@ sp needed
 4434 0034 5DF8047B 		ldr	r7, [sp], #4
 4435              	.LCFI72:
 4436              		.cfi_restore 7
 4437              		.cfi_def_cfa_offset 0
 4438 0038 7047     		bx	lr
 4439              	.L150:
 4440 003a 00BF     		.align	2
 4441              	.L149:
 4442 003c 00000000 		.word	DHCP_allocated_ip
 4443              		.cfi_endproc
 4444              	.LFE16:
 4446              		.section	.text.getGWfromDHCP,"ax",%progbits
 4447              		.align	1
 4448              		.global	getGWfromDHCP
 4449              		.syntax unified
 4450              		.thumb
 4451              		.thumb_func
 4453              	getGWfromDHCP:
 4454              	.LFB17:
 984:ioLIB/dhcp.c  **** 
 985:ioLIB/dhcp.c  **** void getGWfromDHCP(uint8_t* ip)
 986:ioLIB/dhcp.c  **** {
 4455              		.loc 1 986 1
 4456              		.cfi_startproc
 4457              		@ args = 0, pretend = 0, frame = 8
 4458              		@ frame_needed = 1, uses_anonymous_args = 0
 4459              		@ link register save eliminated.
ARM GAS  C:\Users\clay0\AppData\Local\Temp\ccq2B2ZX.s 			page 96


 4460 0000 80B4     		push	{r7}
 4461              	.LCFI73:
 4462              		.cfi_def_cfa_offset 4
 4463              		.cfi_offset 7, -4
 4464 0002 83B0     		sub	sp, sp, #12
 4465              	.LCFI74:
 4466              		.cfi_def_cfa_offset 16
 4467 0004 00AF     		add	r7, sp, #0
 4468              	.LCFI75:
 4469              		.cfi_def_cfa_register 7
 4470 0006 7860     		str	r0, [r7, #4]
 987:ioLIB/dhcp.c  **** 	ip[0] =DHCP_allocated_gw[0];
 4471              		.loc 1 987 26
 4472 0008 0C4B     		ldr	r3, .L152
 4473 000a 1A78     		ldrb	r2, [r3]	@ zero_extendqisi2
 4474              		.loc 1 987 8
 4475 000c 7B68     		ldr	r3, [r7, #4]
 4476 000e 1A70     		strb	r2, [r3]
 988:ioLIB/dhcp.c  **** 	ip[1] =DHCP_allocated_gw[1];
 4477              		.loc 1 988 4
 4478 0010 7B68     		ldr	r3, [r7, #4]
 4479 0012 0133     		adds	r3, r3, #1
 4480              		.loc 1 988 26
 4481 0014 094A     		ldr	r2, .L152
 4482 0016 5278     		ldrb	r2, [r2, #1]	@ zero_extendqisi2
 4483              		.loc 1 988 8
 4484 0018 1A70     		strb	r2, [r3]
 989:ioLIB/dhcp.c  **** 	ip[2] =DHCP_allocated_gw[2];
 4485              		.loc 1 989 4
 4486 001a 7B68     		ldr	r3, [r7, #4]
 4487 001c 0233     		adds	r3, r3, #2
 4488              		.loc 1 989 26
 4489 001e 074A     		ldr	r2, .L152
 4490 0020 9278     		ldrb	r2, [r2, #2]	@ zero_extendqisi2
 4491              		.loc 1 989 8
 4492 0022 1A70     		strb	r2, [r3]
 990:ioLIB/dhcp.c  **** 	ip[3] =DHCP_allocated_gw[3];			
 4493              		.loc 1 990 4
 4494 0024 7B68     		ldr	r3, [r7, #4]
 4495 0026 0333     		adds	r3, r3, #3
 4496              		.loc 1 990 26
 4497 0028 044A     		ldr	r2, .L152
 4498 002a D278     		ldrb	r2, [r2, #3]	@ zero_extendqisi2
 4499              		.loc 1 990 8
 4500 002c 1A70     		strb	r2, [r3]
 991:ioLIB/dhcp.c  **** }
 4501              		.loc 1 991 1
 4502 002e 00BF     		nop
 4503 0030 0C37     		adds	r7, r7, #12
 4504              	.LCFI76:
 4505              		.cfi_def_cfa_offset 4
 4506 0032 BD46     		mov	sp, r7
 4507              	.LCFI77:
 4508              		.cfi_def_cfa_register 13
 4509              		@ sp needed
 4510 0034 5DF8047B 		ldr	r7, [sp], #4
 4511              	.LCFI78:
ARM GAS  C:\Users\clay0\AppData\Local\Temp\ccq2B2ZX.s 			page 97


 4512              		.cfi_restore 7
 4513              		.cfi_def_cfa_offset 0
 4514 0038 7047     		bx	lr
 4515              	.L153:
 4516 003a 00BF     		.align	2
 4517              	.L152:
 4518 003c 00000000 		.word	DHCP_allocated_gw
 4519              		.cfi_endproc
 4520              	.LFE17:
 4522              		.section	.text.getSNfromDHCP,"ax",%progbits
 4523              		.align	1
 4524              		.global	getSNfromDHCP
 4525              		.syntax unified
 4526              		.thumb
 4527              		.thumb_func
 4529              	getSNfromDHCP:
 4530              	.LFB18:
 992:ioLIB/dhcp.c  **** 
 993:ioLIB/dhcp.c  **** void getSNfromDHCP(uint8_t* ip)
 994:ioLIB/dhcp.c  **** {
 4531              		.loc 1 994 1
 4532              		.cfi_startproc
 4533              		@ args = 0, pretend = 0, frame = 8
 4534              		@ frame_needed = 1, uses_anonymous_args = 0
 4535              		@ link register save eliminated.
 4536 0000 80B4     		push	{r7}
 4537              	.LCFI79:
 4538              		.cfi_def_cfa_offset 4
 4539              		.cfi_offset 7, -4
 4540 0002 83B0     		sub	sp, sp, #12
 4541              	.LCFI80:
 4542              		.cfi_def_cfa_offset 16
 4543 0004 00AF     		add	r7, sp, #0
 4544              	.LCFI81:
 4545              		.cfi_def_cfa_register 7
 4546 0006 7860     		str	r0, [r7, #4]
 995:ioLIB/dhcp.c  ****    ip[0] = DHCP_allocated_sn[0];
 4547              		.loc 1 995 29
 4548 0008 0C4B     		ldr	r3, .L155
 4549 000a 1A78     		ldrb	r2, [r3]	@ zero_extendqisi2
 4550              		.loc 1 995 10
 4551 000c 7B68     		ldr	r3, [r7, #4]
 4552 000e 1A70     		strb	r2, [r3]
 996:ioLIB/dhcp.c  ****    ip[1] = DHCP_allocated_sn[1];
 4553              		.loc 1 996 6
 4554 0010 7B68     		ldr	r3, [r7, #4]
 4555 0012 0133     		adds	r3, r3, #1
 4556              		.loc 1 996 29
 4557 0014 094A     		ldr	r2, .L155
 4558 0016 5278     		ldrb	r2, [r2, #1]	@ zero_extendqisi2
 4559              		.loc 1 996 10
 4560 0018 1A70     		strb	r2, [r3]
 997:ioLIB/dhcp.c  ****    ip[2] = DHCP_allocated_sn[2];
 4561              		.loc 1 997 6
 4562 001a 7B68     		ldr	r3, [r7, #4]
 4563 001c 0233     		adds	r3, r3, #2
 4564              		.loc 1 997 29
ARM GAS  C:\Users\clay0\AppData\Local\Temp\ccq2B2ZX.s 			page 98


 4565 001e 074A     		ldr	r2, .L155
 4566 0020 9278     		ldrb	r2, [r2, #2]	@ zero_extendqisi2
 4567              		.loc 1 997 10
 4568 0022 1A70     		strb	r2, [r3]
 998:ioLIB/dhcp.c  ****    ip[3] = DHCP_allocated_sn[3];         
 4569              		.loc 1 998 6
 4570 0024 7B68     		ldr	r3, [r7, #4]
 4571 0026 0333     		adds	r3, r3, #3
 4572              		.loc 1 998 29
 4573 0028 044A     		ldr	r2, .L155
 4574 002a D278     		ldrb	r2, [r2, #3]	@ zero_extendqisi2
 4575              		.loc 1 998 10
 4576 002c 1A70     		strb	r2, [r3]
 999:ioLIB/dhcp.c  **** }
 4577              		.loc 1 999 1
 4578 002e 00BF     		nop
 4579 0030 0C37     		adds	r7, r7, #12
 4580              	.LCFI82:
 4581              		.cfi_def_cfa_offset 4
 4582 0032 BD46     		mov	sp, r7
 4583              	.LCFI83:
 4584              		.cfi_def_cfa_register 13
 4585              		@ sp needed
 4586 0034 5DF8047B 		ldr	r7, [sp], #4
 4587              	.LCFI84:
 4588              		.cfi_restore 7
 4589              		.cfi_def_cfa_offset 0
 4590 0038 7047     		bx	lr
 4591              	.L156:
 4592 003a 00BF     		.align	2
 4593              	.L155:
 4594 003c 00000000 		.word	DHCP_allocated_sn
 4595              		.cfi_endproc
 4596              	.LFE18:
 4598              		.section	.text.getDNSfromDHCP,"ax",%progbits
 4599              		.align	1
 4600              		.global	getDNSfromDHCP
 4601              		.syntax unified
 4602              		.thumb
 4603              		.thumb_func
 4605              	getDNSfromDHCP:
 4606              	.LFB19:
1000:ioLIB/dhcp.c  **** 
1001:ioLIB/dhcp.c  **** void getDNSfromDHCP(uint8_t* ip)
1002:ioLIB/dhcp.c  **** {
 4607              		.loc 1 1002 1
 4608              		.cfi_startproc
 4609              		@ args = 0, pretend = 0, frame = 8
 4610              		@ frame_needed = 1, uses_anonymous_args = 0
 4611              		@ link register save eliminated.
 4612 0000 80B4     		push	{r7}
 4613              	.LCFI85:
 4614              		.cfi_def_cfa_offset 4
 4615              		.cfi_offset 7, -4
 4616 0002 83B0     		sub	sp, sp, #12
 4617              	.LCFI86:
 4618              		.cfi_def_cfa_offset 16
ARM GAS  C:\Users\clay0\AppData\Local\Temp\ccq2B2ZX.s 			page 99


 4619 0004 00AF     		add	r7, sp, #0
 4620              	.LCFI87:
 4621              		.cfi_def_cfa_register 7
 4622 0006 7860     		str	r0, [r7, #4]
1003:ioLIB/dhcp.c  ****    ip[0] = DHCP_allocated_dns[0];
 4623              		.loc 1 1003 30
 4624 0008 0C4B     		ldr	r3, .L158
 4625 000a 1A78     		ldrb	r2, [r3]	@ zero_extendqisi2
 4626              		.loc 1 1003 10
 4627 000c 7B68     		ldr	r3, [r7, #4]
 4628 000e 1A70     		strb	r2, [r3]
1004:ioLIB/dhcp.c  ****    ip[1] = DHCP_allocated_dns[1];
 4629              		.loc 1 1004 6
 4630 0010 7B68     		ldr	r3, [r7, #4]
 4631 0012 0133     		adds	r3, r3, #1
 4632              		.loc 1 1004 30
 4633 0014 094A     		ldr	r2, .L158
 4634 0016 5278     		ldrb	r2, [r2, #1]	@ zero_extendqisi2
 4635              		.loc 1 1004 10
 4636 0018 1A70     		strb	r2, [r3]
1005:ioLIB/dhcp.c  ****    ip[2] = DHCP_allocated_dns[2];
 4637              		.loc 1 1005 6
 4638 001a 7B68     		ldr	r3, [r7, #4]
 4639 001c 0233     		adds	r3, r3, #2
 4640              		.loc 1 1005 30
 4641 001e 074A     		ldr	r2, .L158
 4642 0020 9278     		ldrb	r2, [r2, #2]	@ zero_extendqisi2
 4643              		.loc 1 1005 10
 4644 0022 1A70     		strb	r2, [r3]
1006:ioLIB/dhcp.c  ****    ip[3] = DHCP_allocated_dns[3];         
 4645              		.loc 1 1006 6
 4646 0024 7B68     		ldr	r3, [r7, #4]
 4647 0026 0333     		adds	r3, r3, #3
 4648              		.loc 1 1006 30
 4649 0028 044A     		ldr	r2, .L158
 4650 002a D278     		ldrb	r2, [r2, #3]	@ zero_extendqisi2
 4651              		.loc 1 1006 10
 4652 002c 1A70     		strb	r2, [r3]
1007:ioLIB/dhcp.c  **** }
 4653              		.loc 1 1007 1
 4654 002e 00BF     		nop
 4655 0030 0C37     		adds	r7, r7, #12
 4656              	.LCFI88:
 4657              		.cfi_def_cfa_offset 4
 4658 0032 BD46     		mov	sp, r7
 4659              	.LCFI89:
 4660              		.cfi_def_cfa_register 13
 4661              		@ sp needed
 4662 0034 5DF8047B 		ldr	r7, [sp], #4
 4663              	.LCFI90:
 4664              		.cfi_restore 7
 4665              		.cfi_def_cfa_offset 0
 4666 0038 7047     		bx	lr
 4667              	.L159:
 4668 003a 00BF     		.align	2
 4669              	.L158:
 4670 003c 00000000 		.word	DHCP_allocated_dns
ARM GAS  C:\Users\clay0\AppData\Local\Temp\ccq2B2ZX.s 			page 100


 4671              		.cfi_endproc
 4672              	.LFE19:
 4674              		.section	.text.getDHCPLeasetime,"ax",%progbits
 4675              		.align	1
 4676              		.global	getDHCPLeasetime
 4677              		.syntax unified
 4678              		.thumb
 4679              		.thumb_func
 4681              	getDHCPLeasetime:
 4682              	.LFB20:
1008:ioLIB/dhcp.c  **** 
1009:ioLIB/dhcp.c  **** uint32_t getDHCPLeasetime(void)
1010:ioLIB/dhcp.c  **** {
 4683              		.loc 1 1010 1
 4684              		.cfi_startproc
 4685              		@ args = 0, pretend = 0, frame = 0
 4686              		@ frame_needed = 1, uses_anonymous_args = 0
 4687              		@ link register save eliminated.
 4688 0000 80B4     		push	{r7}
 4689              	.LCFI91:
 4690              		.cfi_def_cfa_offset 4
 4691              		.cfi_offset 7, -4
 4692 0002 00AF     		add	r7, sp, #0
 4693              	.LCFI92:
 4694              		.cfi_def_cfa_register 7
1011:ioLIB/dhcp.c  **** 	return dhcp_lease_time;
 4695              		.loc 1 1011 9
 4696 0004 034B     		ldr	r3, .L162
 4697 0006 1B68     		ldr	r3, [r3]
1012:ioLIB/dhcp.c  **** }
 4698              		.loc 1 1012 1
 4699 0008 1846     		mov	r0, r3
 4700 000a BD46     		mov	sp, r7
 4701              	.LCFI93:
 4702              		.cfi_def_cfa_register 13
 4703              		@ sp needed
 4704 000c 5DF8047B 		ldr	r7, [sp], #4
 4705              	.LCFI94:
 4706              		.cfi_restore 7
 4707              		.cfi_def_cfa_offset 0
 4708 0010 7047     		bx	lr
 4709              	.L163:
 4710 0012 00BF     		.align	2
 4711              	.L162:
 4712 0014 00000000 		.word	dhcp_lease_time
 4713              		.cfi_endproc
 4714              	.LFE20:
 4716              		.section	.text.NibbleToHex,"ax",%progbits
 4717              		.align	1
 4718              		.global	NibbleToHex
 4719              		.syntax unified
 4720              		.thumb
 4721              		.thumb_func
 4723              	NibbleToHex:
 4724              	.LFB21:
1013:ioLIB/dhcp.c  **** 
1014:ioLIB/dhcp.c  **** char NibbleToHex(uint8_t nibble)
ARM GAS  C:\Users\clay0\AppData\Local\Temp\ccq2B2ZX.s 			page 101


1015:ioLIB/dhcp.c  **** {
 4725              		.loc 1 1015 1
 4726              		.cfi_startproc
 4727              		@ args = 0, pretend = 0, frame = 8
 4728              		@ frame_needed = 1, uses_anonymous_args = 0
 4729              		@ link register save eliminated.
 4730 0000 80B4     		push	{r7}
 4731              	.LCFI95:
 4732              		.cfi_def_cfa_offset 4
 4733              		.cfi_offset 7, -4
 4734 0002 83B0     		sub	sp, sp, #12
 4735              	.LCFI96:
 4736              		.cfi_def_cfa_offset 16
 4737 0004 00AF     		add	r7, sp, #0
 4738              	.LCFI97:
 4739              		.cfi_def_cfa_register 7
 4740 0006 0346     		mov	r3, r0
 4741 0008 FB71     		strb	r3, [r7, #7]
1016:ioLIB/dhcp.c  ****   nibble &= 0x0F;
 4742              		.loc 1 1016 10
 4743 000a FB79     		ldrb	r3, [r7, #7]
 4744 000c 03F00F03 		and	r3, r3, #15
 4745 0010 FB71     		strb	r3, [r7, #7]
1017:ioLIB/dhcp.c  ****   if (nibble <= 9)
 4746              		.loc 1 1017 6
 4747 0012 FB79     		ldrb	r3, [r7, #7]	@ zero_extendqisi2
 4748 0014 092B     		cmp	r3, #9
 4749 0016 03D8     		bhi	.L165
1018:ioLIB/dhcp.c  ****     return nibble + '0';
 4750              		.loc 1 1018 19
 4751 0018 FB79     		ldrb	r3, [r7, #7]
 4752 001a 3033     		adds	r3, r3, #48
 4753 001c DBB2     		uxtb	r3, r3
 4754 001e 02E0     		b	.L166
 4755              	.L165:
1019:ioLIB/dhcp.c  ****   else 
1020:ioLIB/dhcp.c  ****     return nibble + ('A'-0x0A);
 4756              		.loc 1 1020 19
 4757 0020 FB79     		ldrb	r3, [r7, #7]
 4758 0022 3733     		adds	r3, r3, #55
 4759 0024 DBB2     		uxtb	r3, r3
 4760              	.L166:
1021:ioLIB/dhcp.c  **** }
 4761              		.loc 1 1021 1
 4762 0026 1846     		mov	r0, r3
 4763 0028 0C37     		adds	r7, r7, #12
 4764              	.LCFI98:
 4765              		.cfi_def_cfa_offset 4
 4766 002a BD46     		mov	sp, r7
 4767              	.LCFI99:
 4768              		.cfi_def_cfa_register 13
 4769              		@ sp needed
 4770 002c 5DF8047B 		ldr	r7, [sp], #4
 4771              	.LCFI100:
 4772              		.cfi_restore 7
 4773              		.cfi_def_cfa_offset 0
 4774 0030 7047     		bx	lr
ARM GAS  C:\Users\clay0\AppData\Local\Temp\ccq2B2ZX.s 			page 102


 4775              		.cfi_endproc
 4776              	.LFE21:
 4778              		.text
 4779              	.Letext0:
 4780              		.file 2 "d:\\gcc arm\\10 2021.10\\arm-none-eabi\\include\\machine\\_default_types.h"
 4781              		.file 3 "d:\\gcc arm\\10 2021.10\\arm-none-eabi\\include\\sys\\_stdint.h"
 4782              		.file 4 "ioLIB/dhcp.h"
ARM GAS  C:\Users\clay0\AppData\Local\Temp\ccq2B2ZX.s 			page 103


DEFINED SYMBOLS
                            *ABS*:00000000 dhcp.c
C:\Users\clay0\AppData\Local\Temp\ccq2B2ZX.s:23     .bss.DHCP_SOCKET:00000000 DHCP_SOCKET
C:\Users\clay0\AppData\Local\Temp\ccq2B2ZX.s:24     .bss.DHCP_SOCKET:00000000 $d
C:\Users\clay0\AppData\Local\Temp\ccq2B2ZX.s:30     .bss.DHCP_SIP:00000000 DHCP_SIP
C:\Users\clay0\AppData\Local\Temp\ccq2B2ZX.s:27     .bss.DHCP_SIP:00000000 $d
C:\Users\clay0\AppData\Local\Temp\ccq2B2ZX.s:37     .bss.DHCP_REAL_SIP:00000000 DHCP_REAL_SIP
C:\Users\clay0\AppData\Local\Temp\ccq2B2ZX.s:34     .bss.DHCP_REAL_SIP:00000000 $d
C:\Users\clay0\AppData\Local\Temp\ccq2B2ZX.s:44     .bss.OLD_allocated_ip:00000000 OLD_allocated_ip
C:\Users\clay0\AppData\Local\Temp\ccq2B2ZX.s:41     .bss.OLD_allocated_ip:00000000 $d
C:\Users\clay0\AppData\Local\Temp\ccq2B2ZX.s:51     .bss.DHCP_allocated_ip:00000000 DHCP_allocated_ip
C:\Users\clay0\AppData\Local\Temp\ccq2B2ZX.s:48     .bss.DHCP_allocated_ip:00000000 $d
C:\Users\clay0\AppData\Local\Temp\ccq2B2ZX.s:58     .bss.DHCP_allocated_gw:00000000 DHCP_allocated_gw
C:\Users\clay0\AppData\Local\Temp\ccq2B2ZX.s:55     .bss.DHCP_allocated_gw:00000000 $d
C:\Users\clay0\AppData\Local\Temp\ccq2B2ZX.s:65     .bss.DHCP_allocated_sn:00000000 DHCP_allocated_sn
C:\Users\clay0\AppData\Local\Temp\ccq2B2ZX.s:62     .bss.DHCP_allocated_sn:00000000 $d
C:\Users\clay0\AppData\Local\Temp\ccq2B2ZX.s:72     .bss.DHCP_allocated_dns:00000000 DHCP_allocated_dns
C:\Users\clay0\AppData\Local\Temp\ccq2B2ZX.s:69     .bss.DHCP_allocated_dns:00000000 $d
C:\Users\clay0\AppData\Local\Temp\ccq2B2ZX.s:78     .bss.dhcp_state:00000000 dhcp_state
C:\Users\clay0\AppData\Local\Temp\ccq2B2ZX.s:79     .bss.dhcp_state:00000000 $d
C:\Users\clay0\AppData\Local\Temp\ccq2B2ZX.s:84     .bss.dhcp_retry_count:00000000 dhcp_retry_count
C:\Users\clay0\AppData\Local\Temp\ccq2B2ZX.s:85     .bss.dhcp_retry_count:00000000 $d
C:\Users\clay0\AppData\Local\Temp\ccq2B2ZX.s:91     .data.dhcp_lease_time:00000000 dhcp_lease_time
C:\Users\clay0\AppData\Local\Temp\ccq2B2ZX.s:88     .data.dhcp_lease_time:00000000 $d
C:\Users\clay0\AppData\Local\Temp\ccq2B2ZX.s:98     .bss.dhcp_tick_1s:00000000 dhcp_tick_1s
C:\Users\clay0\AppData\Local\Temp\ccq2B2ZX.s:95     .bss.dhcp_tick_1s:00000000 $d
C:\Users\clay0\AppData\Local\Temp\ccq2B2ZX.s:105    .data.dhcp_tick_next:00000000 dhcp_tick_next
C:\Users\clay0\AppData\Local\Temp\ccq2B2ZX.s:102    .data.dhcp_tick_next:00000000 $d
C:\Users\clay0\AppData\Local\Temp\ccq2B2ZX.s:112    .bss.DHCP_XID:00000000 DHCP_XID
C:\Users\clay0\AppData\Local\Temp\ccq2B2ZX.s:109    .bss.DHCP_XID:00000000 $d
C:\Users\clay0\AppData\Local\Temp\ccq2B2ZX.s:119    .bss.pDHCPMSG:00000000 pDHCPMSG
C:\Users\clay0\AppData\Local\Temp\ccq2B2ZX.s:116    .bss.pDHCPMSG:00000000 $d
C:\Users\clay0\AppData\Local\Temp\ccq2B2ZX.s:126    .data.HOST_NAME:00000000 HOST_NAME
C:\Users\clay0\AppData\Local\Temp\ccq2B2ZX.s:123    .data.HOST_NAME:00000000 $d
C:\Users\clay0\AppData\Local\Temp\ccq2B2ZX.s:133    .bss.DHCP_CHADDR:00000000 DHCP_CHADDR
C:\Users\clay0\AppData\Local\Temp\ccq2B2ZX.s:130    .bss.DHCP_CHADDR:00000000 $d
C:\Users\clay0\AppData\Local\Temp\ccq2B2ZX.s:140    .data.dhcp_ip_assign:00000000 dhcp_ip_assign
C:\Users\clay0\AppData\Local\Temp\ccq2B2ZX.s:137    .data.dhcp_ip_assign:00000000 $d
C:\Users\clay0\AppData\Local\Temp\ccq2B2ZX.s:163    .text.default_ip_assign:00000000 default_ip_assign
C:\Users\clay0\AppData\Local\Temp\ccq2B2ZX.s:147    .data.dhcp_ip_update:00000000 dhcp_ip_update
C:\Users\clay0\AppData\Local\Temp\ccq2B2ZX.s:144    .data.dhcp_ip_update:00000000 $d
C:\Users\clay0\AppData\Local\Temp\ccq2B2ZX.s:212    .text.default_ip_update:00000000 default_ip_update
C:\Users\clay0\AppData\Local\Temp\ccq2B2ZX.s:154    .data.dhcp_ip_conflict:00000000 dhcp_ip_conflict
C:\Users\clay0\AppData\Local\Temp\ccq2B2ZX.s:151    .data.dhcp_ip_conflict:00000000 $d
C:\Users\clay0\AppData\Local\Temp\ccq2B2ZX.s:257    .text.default_ip_conflict:00000000 default_ip_conflict
C:\Users\clay0\AppData\Local\Temp\ccq2B2ZX.s:157    .text.default_ip_assign:00000000 $t
C:\Users\clay0\AppData\Local\Temp\ccq2B2ZX.s:199    .text.default_ip_assign:0000002c $d
C:\Users\clay0\AppData\Local\Temp\ccq2B2ZX.s:206    .text.default_ip_update:00000000 $t
C:\Users\clay0\AppData\Local\Temp\ccq2B2ZX.s:246    .text.default_ip_update:00000028 $d
C:\Users\clay0\AppData\Local\Temp\ccq2B2ZX.s:251    .text.default_ip_conflict:00000000 $t
C:\Users\clay0\AppData\Local\Temp\ccq2B2ZX.s:289    .text.default_ip_conflict:00000024 $d
C:\Users\clay0\AppData\Local\Temp\ccq2B2ZX.s:294    .text.reg_dhcp_cbfunc:00000000 $t
C:\Users\clay0\AppData\Local\Temp\ccq2B2ZX.s:300    .text.reg_dhcp_cbfunc:00000000 reg_dhcp_cbfunc
C:\Users\clay0\AppData\Local\Temp\ccq2B2ZX.s:376    .text.reg_dhcp_cbfunc:00000050 $d
C:\Users\clay0\AppData\Local\Temp\ccq2B2ZX.s:386    .text.makeDHCPMSG:00000000 $t
C:\Users\clay0\AppData\Local\Temp\ccq2B2ZX.s:392    .text.makeDHCPMSG:00000000 makeDHCPMSG
C:\Users\clay0\AppData\Local\Temp\ccq2B2ZX.s:762    .text.makeDHCPMSG:000001e0 $d
ARM GAS  C:\Users\clay0\AppData\Local\Temp\ccq2B2ZX.s 			page 104


C:\Users\clay0\AppData\Local\Temp\ccq2B2ZX.s:769    .text.send_DHCP_DISCOVER:00000000 $t
C:\Users\clay0\AppData\Local\Temp\ccq2B2ZX.s:775    .text.send_DHCP_DISCOVER:00000000 send_DHCP_DISCOVER
C:\Users\clay0\AppData\Local\Temp\ccq2B2ZX.s:1020   .text.send_DHCP_DISCOVER:00000168 $d
C:\Users\clay0\AppData\Local\Temp\ccq2B2ZX.s:1026   .text.send_DHCP_DISCOVER:00000178 $t
C:\Users\clay0\AppData\Local\Temp\ccq2B2ZX.s:4723   .text.NibbleToHex:00000000 NibbleToHex
C:\Users\clay0\AppData\Local\Temp\ccq2B2ZX.s:1355   .text.send_DHCP_DISCOVER:0000037c $d
C:\Users\clay0\AppData\Local\Temp\ccq2B2ZX.s:1363   .text.send_DHCP_REQUEST:00000000 $t
C:\Users\clay0\AppData\Local\Temp\ccq2B2ZX.s:1369   .text.send_DHCP_REQUEST:00000000 send_DHCP_REQUEST
C:\Users\clay0\AppData\Local\Temp\ccq2B2ZX.s:1480   .text.send_DHCP_REQUEST:0000007c $d
C:\Users\clay0\AppData\Local\Temp\ccq2B2ZX.s:1486   .text.send_DHCP_REQUEST:0000008c $t
C:\Users\clay0\AppData\Local\Temp\ccq2B2ZX.s:1857   .text.send_DHCP_REQUEST:000002d8 $d
C:\Users\clay0\AppData\Local\Temp\ccq2B2ZX.s:1863   .text.send_DHCP_REQUEST:000002e8 $t
C:\Users\clay0\AppData\Local\Temp\ccq2B2ZX.s:2203   .text.send_DHCP_REQUEST:00000504 $d
C:\Users\clay0\AppData\Local\Temp\ccq2B2ZX.s:2211   .text.send_DHCP_DECLINE:00000000 $t
C:\Users\clay0\AppData\Local\Temp\ccq2B2ZX.s:2217   .text.send_DHCP_DECLINE:00000000 send_DHCP_DECLINE
C:\Users\clay0\AppData\Local\Temp\ccq2B2ZX.s:2650   .text.send_DHCP_DECLINE:00000290 $d
C:\Users\clay0\AppData\Local\Temp\ccq2B2ZX.s:2659   .text.parseDHCPMSG:00000000 $t
C:\Users\clay0\AppData\Local\Temp\ccq2B2ZX.s:2665   .text.parseDHCPMSG:00000000 parseDHCPMSG
C:\Users\clay0\AppData\Local\Temp\ccq2B2ZX.s:2921   .text.parseDHCPMSG:00000148 $d
C:\Users\clay0\AppData\Local\Temp\ccq2B2ZX.s:2976   .text.parseDHCPMSG:00000224 $t
C:\Users\clay0\AppData\Local\Temp\ccq2B2ZX.s:3060   .text.parseDHCPMSG:00000290 $d
C:\Users\clay0\AppData\Local\Temp\ccq2B2ZX.s:3068   .text.parseDHCPMSG:000002a8 $t
C:\Users\clay0\AppData\Local\Temp\ccq2B2ZX.s:3361   .text.parseDHCPMSG:00000428 $d
C:\Users\clay0\AppData\Local\Temp\ccq2B2ZX.s:3370   .text.DHCP_run:00000000 $t
C:\Users\clay0\AppData\Local\Temp\ccq2B2ZX.s:3376   .text.DHCP_run:00000000 DHCP_run
C:\Users\clay0\AppData\Local\Temp\ccq2B2ZX.s:3441   .text.DHCP_run:0000005c $d
C:\Users\clay0\AppData\Local\Temp\ccq2B2ZX.s:3446   .text.DHCP_run:00000070 $t
C:\Users\clay0\AppData\Local\Temp\ccq2B2ZX.s:3818   .text.check_DHCP_timeout:00000000 check_DHCP_timeout
C:\Users\clay0\AppData\Local\Temp\ccq2B2ZX.s:3978   .text.check_DHCP_leasedIP:00000000 check_DHCP_leasedIP
C:\Users\clay0\AppData\Local\Temp\ccq2B2ZX.s:4279   .text.reset_DHCP_timeout:00000000 reset_DHCP_timeout
C:\Users\clay0\AppData\Local\Temp\ccq2B2ZX.s:3755   .text.DHCP_run:00000204 $d
C:\Users\clay0\AppData\Local\Temp\ccq2B2ZX.s:3771   .text.DHCP_stop:00000000 $t
C:\Users\clay0\AppData\Local\Temp\ccq2B2ZX.s:3777   .text.DHCP_stop:00000000 DHCP_stop
C:\Users\clay0\AppData\Local\Temp\ccq2B2ZX.s:3806   .text.DHCP_stop:00000018 $d
C:\Users\clay0\AppData\Local\Temp\ccq2B2ZX.s:3812   .text.check_DHCP_timeout:00000000 $t
C:\Users\clay0\AppData\Local\Temp\ccq2B2ZX.s:3960   .text.check_DHCP_timeout:000000b0 $d
C:\Users\clay0\AppData\Local\Temp\ccq2B2ZX.s:3968   .rodata:00000000 $d
C:\Users\clay0\AppData\Local\Temp\ccq2B2ZX.s:3972   .text.check_DHCP_leasedIP:00000000 $t
C:\Users\clay0\AppData\Local\Temp\ccq2B2ZX.s:4060   .text.check_DHCP_leasedIP:0000006c $d
C:\Users\clay0\AppData\Local\Temp\ccq2B2ZX.s:4068   .text.DHCP_init:00000000 $t
C:\Users\clay0\AppData\Local\Temp\ccq2B2ZX.s:4074   .text.DHCP_init:00000000 DHCP_init
C:\Users\clay0\AppData\Local\Temp\ccq2B2ZX.s:4263   .text.DHCP_init:00000110 $d
C:\Users\clay0\AppData\Local\Temp\ccq2B2ZX.s:4273   .text.reset_DHCP_timeout:00000000 $t
C:\Users\clay0\AppData\Local\Temp\ccq2B2ZX.s:4319   .text.reset_DHCP_timeout:00000020 $d
C:\Users\clay0\AppData\Local\Temp\ccq2B2ZX.s:4326   .text.DHCP_time_handler:00000000 $t
C:\Users\clay0\AppData\Local\Temp\ccq2B2ZX.s:4332   .text.DHCP_time_handler:00000000 DHCP_time_handler
C:\Users\clay0\AppData\Local\Temp\ccq2B2ZX.s:4366   .text.DHCP_time_handler:00000018 $d
C:\Users\clay0\AppData\Local\Temp\ccq2B2ZX.s:4371   .text.getIPfromDHCP:00000000 $t
C:\Users\clay0\AppData\Local\Temp\ccq2B2ZX.s:4377   .text.getIPfromDHCP:00000000 getIPfromDHCP
C:\Users\clay0\AppData\Local\Temp\ccq2B2ZX.s:4442   .text.getIPfromDHCP:0000003c $d
C:\Users\clay0\AppData\Local\Temp\ccq2B2ZX.s:4447   .text.getGWfromDHCP:00000000 $t
C:\Users\clay0\AppData\Local\Temp\ccq2B2ZX.s:4453   .text.getGWfromDHCP:00000000 getGWfromDHCP
C:\Users\clay0\AppData\Local\Temp\ccq2B2ZX.s:4518   .text.getGWfromDHCP:0000003c $d
C:\Users\clay0\AppData\Local\Temp\ccq2B2ZX.s:4523   .text.getSNfromDHCP:00000000 $t
C:\Users\clay0\AppData\Local\Temp\ccq2B2ZX.s:4529   .text.getSNfromDHCP:00000000 getSNfromDHCP
C:\Users\clay0\AppData\Local\Temp\ccq2B2ZX.s:4594   .text.getSNfromDHCP:0000003c $d
C:\Users\clay0\AppData\Local\Temp\ccq2B2ZX.s:4599   .text.getDNSfromDHCP:00000000 $t
ARM GAS  C:\Users\clay0\AppData\Local\Temp\ccq2B2ZX.s 			page 105


C:\Users\clay0\AppData\Local\Temp\ccq2B2ZX.s:4605   .text.getDNSfromDHCP:00000000 getDNSfromDHCP
C:\Users\clay0\AppData\Local\Temp\ccq2B2ZX.s:4670   .text.getDNSfromDHCP:0000003c $d
C:\Users\clay0\AppData\Local\Temp\ccq2B2ZX.s:4675   .text.getDHCPLeasetime:00000000 $t
C:\Users\clay0\AppData\Local\Temp\ccq2B2ZX.s:4681   .text.getDHCPLeasetime:00000000 getDHCPLeasetime
C:\Users\clay0\AppData\Local\Temp\ccq2B2ZX.s:4712   .text.getDHCPLeasetime:00000014 $d
C:\Users\clay0\AppData\Local\Temp\ccq2B2ZX.s:4717   .text.NibbleToHex:00000000 $t

UNDEFINED SYMBOLS
WIZCHIP_WRITE_BUF
WIZCHIP_WRITE
WIZCHIP_READ
WIZCHIP_READ_BUF
sendto
getSn_RX_RSR
recvfrom
socket
close
