ARM GAS  C:\Users\clay0\AppData\Local\Temp\ccwyaGl2.s 			page 1


   1              		.cpu cortex-m4
   2              		.arch armv7e-m
   3              		.fpu fpv4-sp-d16
   4              		.eabi_attribute 27, 1
   5              		.eabi_attribute 28, 1
   6              		.eabi_attribute 20, 1
   7              		.eabi_attribute 21, 1
   8              		.eabi_attribute 23, 3
   9              		.eabi_attribute 24, 1
  10              		.eabi_attribute 25, 1
  11              		.eabi_attribute 26, 1
  12              		.eabi_attribute 30, 2
  13              		.eabi_attribute 34, 1
  14              		.eabi_attribute 18, 4
  15              		.file	"endpoints.c"
  16              		.text
  17              	.Ltext0:
  18              		.cfi_sections	.debug_frame
  19              		.section	.text.handle_put_light,"ax",%progbits
  20              		.align	1
  21              		.p2align 2,,3
  22              		.syntax unified
  23              		.thumb
  24              		.thumb_func
  26              	handle_put_light:
  27              	.LVL0:
  28              	.LFB138:
  29              		.file 1 "coapLIB/endpoints.c"
   1:coapLIB/endpoints.c **** #include <stdio.h>
   2:coapLIB/endpoints.c **** #include <stdbool.h>
   3:coapLIB/endpoints.c **** #include <string.h>
   4:coapLIB/endpoints.c **** #include "coap.h"
   5:coapLIB/endpoints.c **** #include "main.h"
   6:coapLIB/endpoints.c **** 
   7:coapLIB/endpoints.c **** static char light = '0';
   8:coapLIB/endpoints.c **** 
   9:coapLIB/endpoints.c **** const uint16_t rsplen = 1500;
  10:coapLIB/endpoints.c **** static char rsp[1500] = "";
  11:coapLIB/endpoints.c **** void build_rsp(void);
  12:coapLIB/endpoints.c **** 
  13:coapLIB/endpoints.c **** 
  14:coapLIB/endpoints.c **** void endpoint_setup(void)
  15:coapLIB/endpoints.c **** {
  16:coapLIB/endpoints.c ****     blink_run(50);
  17:coapLIB/endpoints.c ****     build_rsp();
  18:coapLIB/endpoints.c **** }
  19:coapLIB/endpoints.c **** 
  20:coapLIB/endpoints.c **** static const coap_endpoint_path_t path_well_known_core = {2, {".well-known", "core"}};
  21:coapLIB/endpoints.c **** static int handle_get_well_known_core(coap_rw_buffer_t *scratch, const coap_packet_t *inpkt, coap_p
  22:coapLIB/endpoints.c **** {
  23:coapLIB/endpoints.c ****     return coap_make_response(scratch, outpkt, (const uint8_t *)rsp, strlen(rsp), id_hi, id_lo, &in
  24:coapLIB/endpoints.c **** }
  25:coapLIB/endpoints.c **** 
  26:coapLIB/endpoints.c **** static const coap_endpoint_path_t path_light = {1, {"light"}};
  27:coapLIB/endpoints.c **** static int handle_get_light(coap_rw_buffer_t *scratch, const coap_packet_t *inpkt, coap_packet_t *o
  28:coapLIB/endpoints.c **** {
  29:coapLIB/endpoints.c ****     return coap_make_response(scratch, outpkt, (const uint8_t *)&light, 1, id_hi, id_lo, &inpkt->to
ARM GAS  C:\Users\clay0\AppData\Local\Temp\ccwyaGl2.s 			page 2


  30:coapLIB/endpoints.c **** }
  31:coapLIB/endpoints.c **** 
  32:coapLIB/endpoints.c **** static int handle_put_light(coap_rw_buffer_t *scratch, const coap_packet_t *inpkt, coap_packet_t *o
  33:coapLIB/endpoints.c **** {
  30              		.loc 1 33 1 view -0
  31              		.cfi_startproc
  32              		@ args = 4, pretend = 0, frame = 0
  33              		@ frame_needed = 0, uses_anonymous_args = 0
  34:coapLIB/endpoints.c ****     if (inpkt->payload.len == 0)
  34              		.loc 1 34 5 view .LVU1
  33:coapLIB/endpoints.c ****     if (inpkt->payload.len == 0)
  35              		.loc 1 33 1 is_stmt 0 view .LVU2
  36 0000 2DE9F043 		push	{r4, r5, r6, r7, r8, r9, lr}
  37              	.LCFI0:
  38              		.cfi_def_cfa_offset 28
  39              		.cfi_offset 4, -28
  40              		.cfi_offset 5, -24
  41              		.cfi_offset 6, -20
  42              		.cfi_offset 7, -16
  43              		.cfi_offset 8, -12
  44              		.cfi_offset 9, -8
  45              		.cfi_offset 14, -4
  46 0004 1E46     		mov	r6, r3
  47 0006 87B0     		sub	sp, sp, #28
  48              	.LCFI1:
  49              		.cfi_def_cfa_offset 56
  50              		.loc 1 34 8 view .LVU3
  51 0008 D1F8D830 		ldr	r3, [r1, #216]
  52              	.LVL1:
  33:coapLIB/endpoints.c ****     if (inpkt->payload.len == 0)
  53              		.loc 1 33 1 view .LVU4
  54 000c 9DF83890 		ldrb	r9, [sp, #56]	@ zero_extendqisi2
  55 0010 0C46     		mov	r4, r1
  56 0012 1746     		mov	r7, r2
  57              		.loc 1 34 8 view .LVU5
  58 0014 03B3     		cbz	r3, .L8
  35:coapLIB/endpoints.c ****         return coap_make_response(scratch, outpkt, NULL, 0, id_hi, id_lo, &inpkt->tok, COAP_RSPCODE
  36:coapLIB/endpoints.c ****     if (inpkt->payload.p[0] == '1')
  59              		.loc 1 36 25 view .LVU6
  60 0016 D1F8D430 		ldr	r3, [r1, #212]
  37:coapLIB/endpoints.c ****     {
  38:coapLIB/endpoints.c ****         light = '1';
  61              		.loc 1 38 15 view .LVU7
  62 001a 174D     		ldr	r5, .L10
  36:coapLIB/endpoints.c ****     {
  63              		.loc 1 36 8 view .LVU8
  64 001c 1B78     		ldrb	r3, [r3]	@ zero_extendqisi2
  65 001e 312B     		cmp	r3, #49
  66 0020 8046     		mov	r8, r0
  36:coapLIB/endpoints.c ****     {
  67              		.loc 1 36 5 is_stmt 1 view .LVU9
  36:coapLIB/endpoints.c ****     {
  68              		.loc 1 36 8 is_stmt 0 view .LVU10
  69 0022 16D0     		beq	.L9
  39:coapLIB/endpoints.c **** 
  40:coapLIB/endpoints.c ****         blink_run(50);
  41:coapLIB/endpoints.c ****         return coap_make_response(scratch, outpkt, (const uint8_t *)&light, 1, id_hi, id_lo, &inpkt
ARM GAS  C:\Users\clay0\AppData\Local\Temp\ccwyaGl2.s 			page 3


  42:coapLIB/endpoints.c ****     }
  43:coapLIB/endpoints.c ****     else
  44:coapLIB/endpoints.c ****     {
  45:coapLIB/endpoints.c ****         light = '0';
  70              		.loc 1 45 9 is_stmt 1 view .LVU11
  71              		.loc 1 45 15 is_stmt 0 view .LVU12
  72 0024 3023     		movs	r3, #48
  46:coapLIB/endpoints.c ****         blink_run(50);
  73              		.loc 1 46 9 view .LVU13
  74 0026 3220     		movs	r0, #50
  75              	.LVL2:
  45:coapLIB/endpoints.c ****         blink_run(50);
  76              		.loc 1 45 15 view .LVU14
  77 0028 2B70     		strb	r3, [r5]
  78              	.L6:
  79              		.loc 1 46 9 is_stmt 1 view .LVU15
  47:coapLIB/endpoints.c ****         return coap_make_response(scratch, outpkt, (const uint8_t *)&light, 1, id_hi, id_lo, &inpkt
  80              		.loc 1 47 16 is_stmt 0 view .LVU16
  81 002a 0834     		adds	r4, r4, #8
  46:coapLIB/endpoints.c ****         blink_run(50);
  82              		.loc 1 46 9 view .LVU17
  83 002c FFF7FEFF 		bl	blink_run
  84              	.LVL3:
  85              		.loc 1 47 9 is_stmt 1 view .LVU18
  86              		.loc 1 47 16 is_stmt 0 view .LVU19
  87 0030 0294     		str	r4, [sp, #8]
  88 0032 2A46     		mov	r2, r5
  89 0034 4424     		movs	r4, #68
  90              	.LVL4:
  91              		.loc 1 47 16 view .LVU20
  92 0036 0025     		movs	r5, #0
  93 0038 CDE90345 		strd	r4, r5, [sp, #12]
  94 003c CDF80490 		str	r9, [sp, #4]
  95 0040 0096     		str	r6, [sp]
  96 0042 0123     		movs	r3, #1
  97 0044 3946     		mov	r1, r7
  98 0046 4046     		mov	r0, r8
  99 0048 FFF7FEFF 		bl	coap_make_response
 100              	.LVL5:
  48:coapLIB/endpoints.c ****     }
  49:coapLIB/endpoints.c **** }
 101              		.loc 1 49 1 view .LVU21
 102 004c 07B0     		add	sp, sp, #28
 103              	.LCFI2:
 104              		.cfi_remember_state
 105              		.cfi_def_cfa_offset 28
 106              		@ sp needed
 107 004e BDE8F083 		pop	{r4, r5, r6, r7, r8, r9, pc}
 108              	.LVL6:
 109              	.L9:
 110              	.LCFI3:
 111              		.cfi_restore_state
  38:coapLIB/endpoints.c **** 
 112              		.loc 1 38 9 is_stmt 1 view .LVU22
  38:coapLIB/endpoints.c **** 
 113              		.loc 1 38 15 is_stmt 0 view .LVU23
 114 0052 2B70     		strb	r3, [r5]
ARM GAS  C:\Users\clay0\AppData\Local\Temp\ccwyaGl2.s 			page 4


  40:coapLIB/endpoints.c ****         return coap_make_response(scratch, outpkt, (const uint8_t *)&light, 1, id_hi, id_lo, &inpkt
 115              		.loc 1 40 9 is_stmt 1 view .LVU24
 116 0054 3220     		movs	r0, #50
 117              	.LVL7:
  40:coapLIB/endpoints.c ****         return coap_make_response(scratch, outpkt, (const uint8_t *)&light, 1, id_hi, id_lo, &inpkt
 118              		.loc 1 40 9 is_stmt 0 view .LVU25
 119 0056 E8E7     		b	.L6
 120              	.LVL8:
 121              	.L8:
  35:coapLIB/endpoints.c ****     if (inpkt->payload.p[0] == '1')
 122              		.loc 1 35 9 is_stmt 1 view .LVU26
  35:coapLIB/endpoints.c ****     if (inpkt->payload.p[0] == '1')
 123              		.loc 1 35 16 is_stmt 0 view .LVU27
 124 0058 0834     		adds	r4, r4, #8
 125 005a 0294     		str	r4, [sp, #8]
 126 005c 8024     		movs	r4, #128
 127 005e CDF80490 		str	r9, [sp, #4]
 128 0062 0493     		str	r3, [sp, #16]
 129 0064 0096     		str	r6, [sp]
 130 0066 1A46     		mov	r2, r3
 131              	.LVL9:
  35:coapLIB/endpoints.c ****     if (inpkt->payload.p[0] == '1')
 132              		.loc 1 35 16 view .LVU28
 133 0068 3946     		mov	r1, r7
 134              	.LVL10:
  35:coapLIB/endpoints.c ****     if (inpkt->payload.p[0] == '1')
 135              		.loc 1 35 16 view .LVU29
 136 006a 0394     		str	r4, [sp, #12]
 137 006c FFF7FEFF 		bl	coap_make_response
 138              	.LVL11:
 139              		.loc 1 49 1 view .LVU30
 140 0070 07B0     		add	sp, sp, #28
 141              	.LCFI4:
 142              		.cfi_def_cfa_offset 28
 143              		@ sp needed
 144 0072 BDE8F083 		pop	{r4, r5, r6, r7, r8, r9, pc}
 145              	.LVL12:
 146              	.L11:
 147              		.loc 1 49 1 view .LVU31
 148 0076 00BF     		.align	2
 149              	.L10:
 150 0078 00000000 		.word	.LANCHOR0
 151              		.cfi_endproc
 152              	.LFE138:
 154              		.section	.text.handle_get_light,"ax",%progbits
 155              		.align	1
 156              		.p2align 2,,3
 157              		.syntax unified
 158              		.thumb
 159              		.thumb_func
 161              	handle_get_light:
 162              	.LVL13:
 163              	.LFB137:
  28:coapLIB/endpoints.c ****     return coap_make_response(scratch, outpkt, (const uint8_t *)&light, 1, id_hi, id_lo, &inpkt->to
 164              		.loc 1 28 1 is_stmt 1 view -0
 165              		.cfi_startproc
 166              		@ args = 4, pretend = 0, frame = 0
ARM GAS  C:\Users\clay0\AppData\Local\Temp\ccwyaGl2.s 			page 5


 167              		@ frame_needed = 0, uses_anonymous_args = 0
  29:coapLIB/endpoints.c **** }
 168              		.loc 1 29 5 view .LVU33
  28:coapLIB/endpoints.c ****     return coap_make_response(scratch, outpkt, (const uint8_t *)&light, 1, id_hi, id_lo, &inpkt->to
 169              		.loc 1 28 1 is_stmt 0 view .LVU34
 170 0000 10B5     		push	{r4, lr}
 171              	.LCFI5:
 172              		.cfi_def_cfa_offset 8
 173              		.cfi_offset 4, -8
 174              		.cfi_offset 14, -4
 175 0002 86B0     		sub	sp, sp, #24
 176              	.LCFI6:
 177              		.cfi_def_cfa_offset 32
  28:coapLIB/endpoints.c ****     return coap_make_response(scratch, outpkt, (const uint8_t *)&light, 1, id_hi, id_lo, &inpkt->to
 178              		.loc 1 28 1 view .LVU35
 179 0004 9446     		mov	ip, r2
 180 0006 9DF82040 		ldrb	r4, [sp, #32]	@ zero_extendqisi2
  29:coapLIB/endpoints.c **** }
 181              		.loc 1 29 12 view .LVU36
 182 000a 0093     		str	r3, [sp]
 183 000c 0022     		movs	r2, #0
 184              	.LVL14:
  29:coapLIB/endpoints.c **** }
 185              		.loc 1 29 12 view .LVU37
 186 000e 0492     		str	r2, [sp, #16]
 187 0010 0831     		adds	r1, r1, #8
 188              	.LVL15:
  29:coapLIB/endpoints.c **** }
 189              		.loc 1 29 12 view .LVU38
 190 0012 4522     		movs	r2, #69
 191 0014 CDE90141 		strd	r4, r1, [sp, #4]
 192 0018 0392     		str	r2, [sp, #12]
 193 001a 0123     		movs	r3, #1
 194              	.LVL16:
  29:coapLIB/endpoints.c **** }
 195              		.loc 1 29 12 view .LVU39
 196 001c 024A     		ldr	r2, .L14
 197 001e 6146     		mov	r1, ip
 198              	.LVL17:
  29:coapLIB/endpoints.c **** }
 199              		.loc 1 29 12 view .LVU40
 200 0020 FFF7FEFF 		bl	coap_make_response
 201              	.LVL18:
  30:coapLIB/endpoints.c **** 
 202              		.loc 1 30 1 view .LVU41
 203 0024 06B0     		add	sp, sp, #24
 204              	.LCFI7:
 205              		.cfi_def_cfa_offset 8
 206              		@ sp needed
 207 0026 10BD     		pop	{r4, pc}
 208              	.LVL19:
 209              	.L15:
  30:coapLIB/endpoints.c **** 
 210              		.loc 1 30 1 view .LVU42
 211              		.align	2
 212              	.L14:
 213 0028 00000000 		.word	.LANCHOR0
ARM GAS  C:\Users\clay0\AppData\Local\Temp\ccwyaGl2.s 			page 6


 214              		.cfi_endproc
 215              	.LFE137:
 217              		.section	.text.handle_get_well_known_core,"ax",%progbits
 218              		.align	1
 219              		.p2align 2,,3
 220              		.syntax unified
 221              		.thumb
 222              		.thumb_func
 224              	handle_get_well_known_core:
 225              	.LVL20:
 226              	.LFB136:
  22:coapLIB/endpoints.c ****     return coap_make_response(scratch, outpkt, (const uint8_t *)rsp, strlen(rsp), id_hi, id_lo, &in
 227              		.loc 1 22 1 is_stmt 1 view -0
 228              		.cfi_startproc
 229              		@ args = 4, pretend = 0, frame = 8
 230              		@ frame_needed = 0, uses_anonymous_args = 0
  23:coapLIB/endpoints.c **** }
 231              		.loc 1 23 5 view .LVU44
  22:coapLIB/endpoints.c ****     return coap_make_response(scratch, outpkt, (const uint8_t *)rsp, strlen(rsp), id_hi, id_lo, &in
 232              		.loc 1 22 1 is_stmt 0 view .LVU45
 233 0000 F0B5     		push	{r4, r5, r6, r7, lr}
 234              	.LCFI8:
 235              		.cfi_def_cfa_offset 20
 236              		.cfi_offset 4, -20
 237              		.cfi_offset 5, -16
 238              		.cfi_offset 6, -12
 239              		.cfi_offset 7, -8
 240              		.cfi_offset 14, -4
 241 0002 89B0     		sub	sp, sp, #36
 242              	.LCFI9:
 243              		.cfi_def_cfa_offset 56
  22:coapLIB/endpoints.c ****     return coap_make_response(scratch, outpkt, (const uint8_t *)rsp, strlen(rsp), id_hi, id_lo, &in
 244              		.loc 1 22 1 view .LVU46
 245 0004 0546     		mov	r5, r0
 246 0006 0792     		str	r2, [sp, #28]
  23:coapLIB/endpoints.c **** }
 247              		.loc 1 23 12 view .LVU47
 248 0008 0B4A     		ldr	r2, .L18
 249              	.LVL21:
  22:coapLIB/endpoints.c ****     return coap_make_response(scratch, outpkt, (const uint8_t *)rsp, strlen(rsp), id_hi, id_lo, &in
 250              		.loc 1 22 1 view .LVU48
 251 000a 9DF83870 		ldrb	r7, [sp, #56]	@ zero_extendqisi2
  23:coapLIB/endpoints.c **** }
 252              		.loc 1 23 12 view .LVU49
 253 000e 1046     		mov	r0, r2
 254              	.LVL22:
  22:coapLIB/endpoints.c ****     return coap_make_response(scratch, outpkt, (const uint8_t *)rsp, strlen(rsp), id_hi, id_lo, &in
 255              		.loc 1 22 1 view .LVU50
 256 0010 1E46     		mov	r6, r3
 257 0012 0C46     		mov	r4, r1
  23:coapLIB/endpoints.c **** }
 258              		.loc 1 23 12 view .LVU51
 259 0014 FFF7FEFF 		bl	strlen
 260              	.LVL23:
  23:coapLIB/endpoints.c **** }
 261              		.loc 1 23 12 view .LVU52
 262 0018 0834     		adds	r4, r4, #8
ARM GAS  C:\Users\clay0\AppData\Local\Temp\ccwyaGl2.s 			page 7


 263              	.LVL24:
  23:coapLIB/endpoints.c **** }
 264              		.loc 1 23 12 view .LVU53
 265 001a 0346     		mov	r3, r0
 266 001c 0294     		str	r4, [sp, #8]
 267 001e 2846     		mov	r0, r5
 268 0020 4524     		movs	r4, #69
 269              	.LVL25:
  23:coapLIB/endpoints.c **** }
 270              		.loc 1 23 12 view .LVU54
 271 0022 2825     		movs	r5, #40
 272              	.LVL26:
  23:coapLIB/endpoints.c **** }
 273              		.loc 1 23 12 view .LVU55
 274 0024 CDE90067 		strd	r6, r7, [sp]
 275 0028 CDE90345 		strd	r4, r5, [sp, #12]
 276 002c 024A     		ldr	r2, .L18
 277 002e 0799     		ldr	r1, [sp, #28]
 278 0030 FFF7FEFF 		bl	coap_make_response
 279              	.LVL27:
  24:coapLIB/endpoints.c **** 
 280              		.loc 1 24 1 view .LVU56
 281 0034 09B0     		add	sp, sp, #36
 282              	.LCFI10:
 283              		.cfi_def_cfa_offset 20
 284              		@ sp needed
 285 0036 F0BD     		pop	{r4, r5, r6, r7, pc}
 286              	.LVL28:
 287              	.L19:
  24:coapLIB/endpoints.c **** 
 288              		.loc 1 24 1 view .LVU57
 289              		.align	2
 290              	.L18:
 291 0038 00000000 		.word	.LANCHOR1
 292              		.cfi_endproc
 293              	.LFE136:
 295              		.section	.rodata.build_rsp.str1.4,"aMS",%progbits,1
 296              		.align	2
 297              	.LC0:
 298 0000 2C00     		.ascii	",\000"
 299 0002 0000     		.align	2
 300              	.LC1:
 301 0004 3C00     		.ascii	"<\000"
 302 0006 0000     		.align	2
 303              	.LC2:
 304 0008 2F00     		.ascii	"/\000"
 305 000a 0000     		.align	2
 306              	.LC3:
 307 000c 3E3B00   		.ascii	">;\000"
 308              		.section	.text.build_rsp,"ax",%progbits
 309              		.align	1
 310              		.p2align 2,,3
 311              		.global	build_rsp
 312              		.syntax unified
 313              		.thumb
 314              		.thumb_func
 316              	build_rsp:
ARM GAS  C:\Users\clay0\AppData\Local\Temp\ccwyaGl2.s 			page 8


 317              	.LFB139:
  50:coapLIB/endpoints.c **** 
  51:coapLIB/endpoints.c **** const coap_endpoint_t endpoints[] =
  52:coapLIB/endpoints.c **** {
  53:coapLIB/endpoints.c ****     {COAP_METHOD_GET, handle_get_well_known_core, &path_well_known_core, "ct=40"},
  54:coapLIB/endpoints.c ****     {COAP_METHOD_GET, handle_get_light, &path_light, "ct=0"},
  55:coapLIB/endpoints.c ****     {COAP_METHOD_PUT, handle_put_light, &path_light, NULL},
  56:coapLIB/endpoints.c ****     {(coap_method_t)0, NULL, NULL, NULL}
  57:coapLIB/endpoints.c **** };
  58:coapLIB/endpoints.c **** 
  59:coapLIB/endpoints.c **** void build_rsp(void)
  60:coapLIB/endpoints.c **** {
 318              		.loc 1 60 1 is_stmt 1 view -0
 319              		.cfi_startproc
 320              		@ args = 0, pretend = 0, frame = 0
 321              		@ frame_needed = 0, uses_anonymous_args = 0
  61:coapLIB/endpoints.c ****     uint16_t len = rsplen;
 322              		.loc 1 61 5 view .LVU59
 323              	.LVL29:
  62:coapLIB/endpoints.c ****     const coap_endpoint_t *ep = endpoints;
 324              		.loc 1 62 5 view .LVU60
  63:coapLIB/endpoints.c ****     int i;
 325              		.loc 1 63 5 view .LVU61
  64:coapLIB/endpoints.c **** 
  65:coapLIB/endpoints.c ****     len--; // Null-terminated string
 326              		.loc 1 65 5 view .LVU62
  66:coapLIB/endpoints.c **** 
  67:coapLIB/endpoints.c ****     while(NULL != ep->handler)
 327              		.loc 1 67 5 view .LVU63
 328              		.loc 1 67 10 view .LVU64
  60:coapLIB/endpoints.c ****     uint16_t len = rsplen;
 329              		.loc 1 60 1 is_stmt 0 view .LVU65
 330 0000 2DE9F84F 		push	{r3, r4, r5, r6, r7, r8, r9, r10, fp, lr}
 331              	.LCFI11:
 332              		.cfi_def_cfa_offset 40
 333              		.cfi_offset 3, -40
 334              		.cfi_offset 4, -36
 335              		.cfi_offset 5, -32
 336              		.cfi_offset 6, -28
 337              		.cfi_offset 7, -24
 338              		.cfi_offset 8, -20
 339              		.cfi_offset 9, -16
 340              		.cfi_offset 10, -12
 341              		.cfi_offset 11, -8
 342              		.cfi_offset 14, -4
  65:coapLIB/endpoints.c **** 
 343              		.loc 1 65 8 view .LVU66
 344 0004 40F2DB5B 		movw	fp, #1499
 345 0008 524D     		ldr	r5, .L37
  68:coapLIB/endpoints.c ****     {
  69:coapLIB/endpoints.c ****         if (NULL == ep->core_attr) {
  70:coapLIB/endpoints.c ****             ep++;
  71:coapLIB/endpoints.c ****             continue;
  72:coapLIB/endpoints.c ****         }
  73:coapLIB/endpoints.c **** 
  74:coapLIB/endpoints.c ****         if (0 < strlen(rsp)) {
 346              		.loc 1 74 15 view .LVU67
ARM GAS  C:\Users\clay0\AppData\Local\Temp\ccwyaGl2.s 			page 9


 347 000a 534C     		ldr	r4, .L37+4
  75:coapLIB/endpoints.c ****             strncat(rsp, ",", len);
  76:coapLIB/endpoints.c ****             len--;
  77:coapLIB/endpoints.c ****         }
  78:coapLIB/endpoints.c **** 
  79:coapLIB/endpoints.c ****         strncat(rsp, "<", len);
 348              		.loc 1 79 9 view .LVU68
 349 000c DFF858A1 		ldr	r10, .L37+20
  65:coapLIB/endpoints.c **** 
 350              		.loc 1 65 8 view .LVU69
 351 0010 D946     		mov	r9, fp
 352              	.LVL30:
 353              	.L26:
  69:coapLIB/endpoints.c ****             ep++;
 354              		.loc 1 69 9 is_stmt 1 view .LVU70
  69:coapLIB/endpoints.c ****             ep++;
 355              		.loc 1 69 23 is_stmt 0 view .LVU71
 356 0012 55F8048C 		ldr	r8, [r5, #-4]
 357 0016 2F46     		mov	r7, r5
  69:coapLIB/endpoints.c ****             ep++;
 358              		.loc 1 69 12 view .LVU72
 359 0018 B8F1000F 		cmp	r8, #0
 360 001c 00F08980 		beq	.L21
  74:coapLIB/endpoints.c ****             strncat(rsp, ",", len);
 361              		.loc 1 74 9 is_stmt 1 view .LVU73
  74:coapLIB/endpoints.c ****             strncat(rsp, ",", len);
 362              		.loc 1 74 12 is_stmt 0 view .LVU74
 363 0020 2378     		ldrb	r3, [r4]	@ zero_extendqisi2
 364 0022 002B     		cmp	r3, #0
 365 0024 40F08C80 		bne	.L36
 366              	.L22:
 367              		.loc 1 79 9 is_stmt 1 view .LVU75
 368 0028 4A46     		mov	r2, r9
 369 002a 5146     		mov	r1, r10
 370 002c 2046     		mov	r0, r4
 371 002e FFF7FEFF 		bl	strncat
 372              	.LVL31:
  80:coapLIB/endpoints.c ****         len--;
 373              		.loc 1 80 9 view .LVU76
  81:coapLIB/endpoints.c **** 
  82:coapLIB/endpoints.c ****         for (i = 0; i < ep->path->count; i++) {
 374              		.loc 1 82 27 is_stmt 0 view .LVU77
 375 0032 55F808BC 		ldr	fp, [r5, #-8]
 376              		.loc 1 82 9 view .LVU78
 377 0036 DBF80030 		ldr	r3, [fp]
  80:coapLIB/endpoints.c ****         len--;
 378              		.loc 1 80 12 view .LVU79
 379 003a 09F1FF36 		add	r6, r9, #-1
 380              		.loc 1 82 9 view .LVU80
 381 003e 002B     		cmp	r3, #0
  80:coapLIB/endpoints.c ****         len--;
 382              		.loc 1 80 12 view .LVU81
 383 0040 B6B2     		uxth	r6, r6
 384              	.LVL32:
 385              		.loc 1 82 9 is_stmt 1 view .LVU82
 386              		.loc 1 82 21 view .LVU83
 387              		.loc 1 82 9 is_stmt 0 view .LVU84
ARM GAS  C:\Users\clay0\AppData\Local\Temp\ccwyaGl2.s 			page 10


 388 0042 64DD     		ble	.L23
  83:coapLIB/endpoints.c ****             strncat(rsp, "/", len);
 389              		.loc 1 83 13 is_stmt 1 view .LVU85
  84:coapLIB/endpoints.c ****             len--;
 390              		.loc 1 84 16 is_stmt 0 view .LVU86
 391 0044 A9F10209 		sub	r9, r9, #2
  83:coapLIB/endpoints.c ****             strncat(rsp, "/", len);
 392              		.loc 1 83 13 view .LVU87
 393 0048 3246     		mov	r2, r6
 394 004a 4449     		ldr	r1, .L37+8
 395              		.loc 1 84 16 view .LVU88
 396 004c 1FFA89F9 		uxth	r9, r9
  83:coapLIB/endpoints.c ****             strncat(rsp, "/", len);
 397              		.loc 1 83 13 view .LVU89
 398 0050 2046     		mov	r0, r4
 399 0052 FFF7FEFF 		bl	strncat
 400              	.LVL33:
 401              		.loc 1 84 13 is_stmt 1 view .LVU90
  85:coapLIB/endpoints.c **** 
  86:coapLIB/endpoints.c ****             strncat(rsp, ep->path->elems[i], len);
 402              		.loc 1 86 13 view .LVU91
 403 0056 DBF80410 		ldr	r1, [fp, #4]
 404 005a 4A46     		mov	r2, r9
 405 005c 2046     		mov	r0, r4
 406 005e FFF7FEFF 		bl	strncat
 407              	.LVL34:
  87:coapLIB/endpoints.c ****             len -= strlen(ep->path->elems[i]);
 408              		.loc 1 87 13 view .LVU92
 409              		.loc 1 87 20 is_stmt 0 view .LVU93
 410 0062 DBF80400 		ldr	r0, [fp, #4]
 411 0066 FFF7FEFF 		bl	strlen
 412              	.LVL35:
  82:coapLIB/endpoints.c ****             strncat(rsp, "/", len);
 413              		.loc 1 82 9 view .LVU94
 414 006a DBF80030 		ldr	r3, [fp]
 415              		.loc 1 87 17 view .LVU95
 416 006e A9EB0000 		sub	r0, r9, r0
  82:coapLIB/endpoints.c ****             strncat(rsp, "/", len);
 417              		.loc 1 82 9 view .LVU96
 418 0072 012B     		cmp	r3, #1
 419              		.loc 1 87 17 view .LVU97
 420 0074 86B2     		uxth	r6, r0
 421              	.LVL36:
  82:coapLIB/endpoints.c ****             strncat(rsp, "/", len);
 422              		.loc 1 82 42 is_stmt 1 view .LVU98
  82:coapLIB/endpoints.c ****             strncat(rsp, "/", len);
 423              		.loc 1 82 21 view .LVU99
  82:coapLIB/endpoints.c ****             strncat(rsp, "/", len);
 424              		.loc 1 82 9 is_stmt 0 view .LVU100
 425 0076 4ADD     		ble	.L23
  83:coapLIB/endpoints.c ****             len--;
 426              		.loc 1 83 13 is_stmt 1 view .LVU101
 427 0078 3246     		mov	r2, r6
  84:coapLIB/endpoints.c **** 
 428              		.loc 1 84 16 is_stmt 0 view .LVU102
 429 007a 013E     		subs	r6, r6, #1
 430              	.LVL37:
ARM GAS  C:\Users\clay0\AppData\Local\Temp\ccwyaGl2.s 			page 11


  83:coapLIB/endpoints.c ****             len--;
 431              		.loc 1 83 13 view .LVU103
 432 007c 3749     		ldr	r1, .L37+8
  84:coapLIB/endpoints.c **** 
 433              		.loc 1 84 16 view .LVU104
 434 007e B6B2     		uxth	r6, r6
  83:coapLIB/endpoints.c ****             len--;
 435              		.loc 1 83 13 view .LVU105
 436 0080 2046     		mov	r0, r4
 437 0082 FFF7FEFF 		bl	strncat
 438              	.LVL38:
  84:coapLIB/endpoints.c **** 
 439              		.loc 1 84 13 is_stmt 1 view .LVU106
  86:coapLIB/endpoints.c ****             len -= strlen(ep->path->elems[i]);
 440              		.loc 1 86 13 view .LVU107
 441 0086 3246     		mov	r2, r6
 442 0088 DBF80810 		ldr	r1, [fp, #8]
 443 008c 2046     		mov	r0, r4
 444 008e FFF7FEFF 		bl	strncat
 445              	.LVL39:
 446              		.loc 1 87 13 view .LVU108
 447              		.loc 1 87 20 is_stmt 0 view .LVU109
 448 0092 DBF80800 		ldr	r0, [fp, #8]
 449 0096 FFF7FEFF 		bl	strlen
 450              	.LVL40:
  82:coapLIB/endpoints.c ****             strncat(rsp, "/", len);
 451              		.loc 1 82 9 view .LVU110
 452 009a DBF80030 		ldr	r3, [fp]
 453              		.loc 1 87 17 view .LVU111
 454 009e 361A     		subs	r6, r6, r0
 455              	.LVL41:
  82:coapLIB/endpoints.c ****             strncat(rsp, "/", len);
 456              		.loc 1 82 9 view .LVU112
 457 00a0 022B     		cmp	r3, #2
 458              		.loc 1 87 17 view .LVU113
 459 00a2 B6B2     		uxth	r6, r6
 460              	.LVL42:
  82:coapLIB/endpoints.c ****             strncat(rsp, "/", len);
 461              		.loc 1 82 42 is_stmt 1 view .LVU114
  82:coapLIB/endpoints.c ****             strncat(rsp, "/", len);
 462              		.loc 1 82 21 view .LVU115
  82:coapLIB/endpoints.c ****             strncat(rsp, "/", len);
 463              		.loc 1 82 9 is_stmt 0 view .LVU116
 464 00a4 33DD     		ble	.L23
  83:coapLIB/endpoints.c ****             len--;
 465              		.loc 1 83 13 is_stmt 1 view .LVU117
 466 00a6 3246     		mov	r2, r6
  84:coapLIB/endpoints.c **** 
 467              		.loc 1 84 16 is_stmt 0 view .LVU118
 468 00a8 013E     		subs	r6, r6, #1
 469              	.LVL43:
  83:coapLIB/endpoints.c ****             len--;
 470              		.loc 1 83 13 view .LVU119
 471 00aa 2C49     		ldr	r1, .L37+8
  84:coapLIB/endpoints.c **** 
 472              		.loc 1 84 16 view .LVU120
 473 00ac B6B2     		uxth	r6, r6
ARM GAS  C:\Users\clay0\AppData\Local\Temp\ccwyaGl2.s 			page 12


  83:coapLIB/endpoints.c ****             len--;
 474              		.loc 1 83 13 view .LVU121
 475 00ae 2046     		mov	r0, r4
 476 00b0 FFF7FEFF 		bl	strncat
 477              	.LVL44:
  84:coapLIB/endpoints.c **** 
 478              		.loc 1 84 13 is_stmt 1 view .LVU122
  86:coapLIB/endpoints.c ****             len -= strlen(ep->path->elems[i]);
 479              		.loc 1 86 13 view .LVU123
 480 00b4 3246     		mov	r2, r6
 481 00b6 DBF80C10 		ldr	r1, [fp, #12]
 482 00ba 2046     		mov	r0, r4
 483 00bc FFF7FEFF 		bl	strncat
 484              	.LVL45:
 485              		.loc 1 87 13 view .LVU124
 486              		.loc 1 87 20 is_stmt 0 view .LVU125
 487 00c0 DBF80C00 		ldr	r0, [fp, #12]
 488 00c4 FFF7FEFF 		bl	strlen
 489              	.LVL46:
  82:coapLIB/endpoints.c ****             strncat(rsp, "/", len);
 490              		.loc 1 82 9 view .LVU126
 491 00c8 DBF80030 		ldr	r3, [fp]
 492              		.loc 1 87 17 view .LVU127
 493 00cc 361A     		subs	r6, r6, r0
 494              	.LVL47:
  82:coapLIB/endpoints.c ****             strncat(rsp, "/", len);
 495              		.loc 1 82 9 view .LVU128
 496 00ce 032B     		cmp	r3, #3
 497              		.loc 1 87 17 view .LVU129
 498 00d0 B6B2     		uxth	r6, r6
 499              	.LVL48:
  82:coapLIB/endpoints.c ****             strncat(rsp, "/", len);
 500              		.loc 1 82 42 is_stmt 1 view .LVU130
  82:coapLIB/endpoints.c ****             strncat(rsp, "/", len);
 501              		.loc 1 82 21 view .LVU131
  82:coapLIB/endpoints.c ****             strncat(rsp, "/", len);
 502              		.loc 1 82 9 is_stmt 0 view .LVU132
 503 00d2 1CDD     		ble	.L23
  83:coapLIB/endpoints.c ****             len--;
 504              		.loc 1 83 13 view .LVU133
 505 00d4 214B     		ldr	r3, .L37+8
  82:coapLIB/endpoints.c ****             strncat(rsp, "/", len);
 506              		.loc 1 82 9 view .LVU134
 507 00d6 4FF00409 		mov	r9, #4
 508              	.LVL49:
 509              	.L25:
  83:coapLIB/endpoints.c ****             len--;
 510              		.loc 1 83 13 is_stmt 1 discriminator 3 view .LVU135
 511 00da 3246     		mov	r2, r6
  84:coapLIB/endpoints.c **** 
 512              		.loc 1 84 16 is_stmt 0 discriminator 3 view .LVU136
 513 00dc 013E     		subs	r6, r6, #1
 514              	.LVL50:
  83:coapLIB/endpoints.c ****             len--;
 515              		.loc 1 83 13 discriminator 3 view .LVU137
 516 00de 1946     		mov	r1, r3
  84:coapLIB/endpoints.c **** 
ARM GAS  C:\Users\clay0\AppData\Local\Temp\ccwyaGl2.s 			page 13


 517              		.loc 1 84 16 discriminator 3 view .LVU138
 518 00e0 B6B2     		uxth	r6, r6
  83:coapLIB/endpoints.c ****             len--;
 519              		.loc 1 83 13 discriminator 3 view .LVU139
 520 00e2 2046     		mov	r0, r4
 521 00e4 FFF7FEFF 		bl	strncat
 522              	.LVL51:
  84:coapLIB/endpoints.c **** 
 523              		.loc 1 84 13 is_stmt 1 discriminator 3 view .LVU140
  86:coapLIB/endpoints.c ****             len -= strlen(ep->path->elems[i]);
 524              		.loc 1 86 13 discriminator 3 view .LVU141
 525 00e8 5BF82910 		ldr	r1, [fp, r9, lsl #2]
 526 00ec 3246     		mov	r2, r6
 527 00ee 2046     		mov	r0, r4
 528 00f0 FFF7FEFF 		bl	strncat
 529              	.LVL52:
 530              		.loc 1 87 13 discriminator 3 view .LVU142
 531              		.loc 1 87 20 is_stmt 0 discriminator 3 view .LVU143
 532 00f4 5BF82900 		ldr	r0, [fp, r9, lsl #2]
 533 00f8 FFF7FEFF 		bl	strlen
 534              	.LVL53:
  82:coapLIB/endpoints.c ****             strncat(rsp, "/", len);
 535              		.loc 1 82 9 discriminator 3 view .LVU144
 536 00fc DBF80010 		ldr	r1, [fp]
 537 0100 164B     		ldr	r3, .L37+8
 538              		.loc 1 87 17 discriminator 3 view .LVU145
 539 0102 361A     		subs	r6, r6, r0
 540              	.LVL54:
  82:coapLIB/endpoints.c ****             strncat(rsp, "/", len);
 541              		.loc 1 82 9 discriminator 3 view .LVU146
 542 0104 4945     		cmp	r1, r9
 543              		.loc 1 87 17 discriminator 3 view .LVU147
 544 0106 B6B2     		uxth	r6, r6
 545              	.LVL55:
  82:coapLIB/endpoints.c ****             strncat(rsp, "/", len);
 546              		.loc 1 82 42 is_stmt 1 discriminator 3 view .LVU148
  82:coapLIB/endpoints.c ****             strncat(rsp, "/", len);
 547              		.loc 1 82 21 discriminator 3 view .LVU149
  82:coapLIB/endpoints.c ****             strncat(rsp, "/", len);
 548              		.loc 1 82 9 is_stmt 0 discriminator 3 view .LVU150
 549 0108 09F10109 		add	r9, r9, #1
 550              	.LVL56:
  82:coapLIB/endpoints.c ****             strncat(rsp, "/", len);
 551              		.loc 1 82 9 discriminator 3 view .LVU151
 552 010c E5DC     		bgt	.L25
 553              	.LVL57:
 554              	.L23:
  88:coapLIB/endpoints.c ****         }
  89:coapLIB/endpoints.c **** 
  90:coapLIB/endpoints.c ****         strncat(rsp, ">;", len);
 555              		.loc 1 90 9 is_stmt 1 view .LVU152
 556 010e 3246     		mov	r2, r6
  91:coapLIB/endpoints.c ****         len -= 2;
 557              		.loc 1 91 13 is_stmt 0 view .LVU153
 558 0110 023E     		subs	r6, r6, #2
 559              	.LVL58:
  90:coapLIB/endpoints.c ****         len -= 2;
ARM GAS  C:\Users\clay0\AppData\Local\Temp\ccwyaGl2.s 			page 14


 560              		.loc 1 90 9 view .LVU154
 561 0112 1349     		ldr	r1, .L37+12
 562              		.loc 1 91 13 view .LVU155
 563 0114 B6B2     		uxth	r6, r6
  90:coapLIB/endpoints.c ****         len -= 2;
 564              		.loc 1 90 9 view .LVU156
 565 0116 2046     		mov	r0, r4
 566 0118 FFF7FEFF 		bl	strncat
 567              	.LVL59:
 568              		.loc 1 91 9 is_stmt 1 view .LVU157
  92:coapLIB/endpoints.c **** 
  93:coapLIB/endpoints.c ****         strncat(rsp, ep->core_attr, len);
 569              		.loc 1 93 9 view .LVU158
 570 011c 3246     		mov	r2, r6
 571 011e 4146     		mov	r1, r8
 572 0120 2046     		mov	r0, r4
 573 0122 FFF7FEFF 		bl	strncat
 574              	.LVL60:
  94:coapLIB/endpoints.c ****         len -= strlen(ep->core_attr);
 575              		.loc 1 94 9 view .LVU159
 576              		.loc 1 94 16 is_stmt 0 view .LVU160
 577 0126 4046     		mov	r0, r8
 578 0128 FFF7FEFF 		bl	strlen
 579              	.LVL61:
 580              		.loc 1 94 13 view .LVU161
 581 012c 301A     		subs	r0, r6, r0
 582 012e 1FFA80F9 		uxth	r9, r0
 583              	.LVL62:
  95:coapLIB/endpoints.c **** 
  96:coapLIB/endpoints.c ****         ep++;
 584              		.loc 1 96 9 is_stmt 1 view .LVU162
 585              	.L21:
  67:coapLIB/endpoints.c ****     {
 586              		.loc 1 67 10 view .LVU163
 587 0132 7B68     		ldr	r3, [r7, #4]
 588 0134 1035     		adds	r5, r5, #16
 589              	.LVL63:
  67:coapLIB/endpoints.c ****     {
 590              		.loc 1 67 10 is_stmt 0 view .LVU164
 591 0136 002B     		cmp	r3, #0
 592 0138 7FF46BAF 		bne	.L26
  97:coapLIB/endpoints.c ****     }
  98:coapLIB/endpoints.c **** }
 593              		.loc 1 98 1 view .LVU165
 594 013c BDE8F88F 		pop	{r3, r4, r5, r6, r7, r8, r9, r10, fp, pc}
 595              	.LVL64:
 596              	.L36:
  75:coapLIB/endpoints.c ****             len--;
 597              		.loc 1 75 13 is_stmt 1 view .LVU166
 598 0140 4A46     		mov	r2, r9
 599 0142 0849     		ldr	r1, .L37+16
 600 0144 2046     		mov	r0, r4
  76:coapLIB/endpoints.c ****         }
 601              		.loc 1 76 16 is_stmt 0 view .LVU167
 602 0146 09F1FF39 		add	r9, r9, #-1
 603              	.LVL65:
  75:coapLIB/endpoints.c ****             len--;
ARM GAS  C:\Users\clay0\AppData\Local\Temp\ccwyaGl2.s 			page 15


 604              		.loc 1 75 13 view .LVU168
 605 014a FFF7FEFF 		bl	strncat
 606              	.LVL66:
  76:coapLIB/endpoints.c ****         }
 607              		.loc 1 76 13 is_stmt 1 view .LVU169
  76:coapLIB/endpoints.c ****         }
 608              		.loc 1 76 16 is_stmt 0 view .LVU170
 609 014e 1FFA89F9 		uxth	r9, r9
 610              	.LVL67:
  76:coapLIB/endpoints.c ****         }
 611              		.loc 1 76 16 view .LVU171
 612 0152 69E7     		b	.L22
 613              	.L38:
 614              		.align	2
 615              	.L37:
 616 0154 10000000 		.word	.LANCHOR2+16
 617 0158 00000000 		.word	.LANCHOR1
 618 015c 08000000 		.word	.LC2
 619 0160 0C000000 		.word	.LC3
 620 0164 00000000 		.word	.LC0
 621 0168 04000000 		.word	.LC1
 622              		.cfi_endproc
 623              	.LFE139:
 625              		.section	.text.endpoint_setup,"ax",%progbits
 626              		.align	1
 627              		.p2align 2,,3
 628              		.global	endpoint_setup
 629              		.syntax unified
 630              		.thumb
 631              		.thumb_func
 633              	endpoint_setup:
 634              	.LFB135:
  15:coapLIB/endpoints.c ****     blink_run(50);
 635              		.loc 1 15 1 is_stmt 1 view -0
 636              		.cfi_startproc
 637              		@ args = 0, pretend = 0, frame = 0
 638              		@ frame_needed = 0, uses_anonymous_args = 0
  16:coapLIB/endpoints.c ****     build_rsp();
 639              		.loc 1 16 5 view .LVU173
  15:coapLIB/endpoints.c ****     blink_run(50);
 640              		.loc 1 15 1 is_stmt 0 view .LVU174
 641 0000 08B5     		push	{r3, lr}
 642              	.LCFI12:
 643              		.cfi_def_cfa_offset 8
 644              		.cfi_offset 3, -8
 645              		.cfi_offset 14, -4
  16:coapLIB/endpoints.c ****     build_rsp();
 646              		.loc 1 16 5 view .LVU175
 647 0002 3220     		movs	r0, #50
 648 0004 FFF7FEFF 		bl	blink_run
 649              	.LVL68:
  17:coapLIB/endpoints.c **** }
 650              		.loc 1 17 5 is_stmt 1 view .LVU176
  18:coapLIB/endpoints.c **** 
 651              		.loc 1 18 1 is_stmt 0 view .LVU177
 652 0008 BDE80840 		pop	{r3, lr}
 653              	.LCFI13:
ARM GAS  C:\Users\clay0\AppData\Local\Temp\ccwyaGl2.s 			page 16


 654              		.cfi_restore 14
 655              		.cfi_restore 3
 656              		.cfi_def_cfa_offset 0
  17:coapLIB/endpoints.c **** }
 657              		.loc 1 17 5 view .LVU178
 658 000c FFF7FEBF 		b	build_rsp
 659              	.LVL69:
 660              		.cfi_endproc
 661              	.LFE135:
 663              		.global	endpoints
 664              		.section	.rodata.str1.4,"aMS",%progbits,1
 665              		.align	2
 666              	.LC4:
 667 0000 63743D34 		.ascii	"ct=40\000"
 667      3000
 668 0006 0000     		.align	2
 669              	.LC5:
 670 0008 63743D30 		.ascii	"ct=0\000"
 670      00
 671 000d 000000   		.align	2
 672              	.LC6:
 673 0010 6C696768 		.ascii	"light\000"
 673      7400
 674 0016 0000     		.align	2
 675              	.LC7:
 676 0018 2E77656C 		.ascii	".well-known\000"
 676      6C2D6B6E 
 676      6F776E00 
 677              		.align	2
 678              	.LC8:
 679 0024 636F7265 		.ascii	"core\000"
 679      00
 680              		.global	rsplen
 681              		.section	.bss.rsp,"aw",%nobits
 682              		.align	2
 683              		.set	.LANCHOR1,. + 0
 686              	rsp:
 687 0000 00000000 		.space	1500
 687      00000000 
 687      00000000 
 687      00000000 
 687      00000000 
 688              		.section	.data.light,"aw"
 689              		.set	.LANCHOR0,. + 0
 692              	light:
 693 0000 30       		.byte	48
 694              		.section	.rodata.endpoints,"a"
 695              		.align	2
 696              		.set	.LANCHOR2,. + 0
 699              	endpoints:
 700 0000 01       		.byte	1
 701 0001 000000   		.space	3
 702 0004 00000000 		.word	handle_get_well_known_core
 703 0008 00000000 		.word	path_well_known_core
 704 000c 00000000 		.word	.LC4
 705 0010 01       		.byte	1
 706 0011 000000   		.space	3
ARM GAS  C:\Users\clay0\AppData\Local\Temp\ccwyaGl2.s 			page 17


 707 0014 00000000 		.word	handle_get_light
 708 0018 00000000 		.word	path_light
 709 001c 08000000 		.word	.LC5
 710 0020 03       		.byte	3
 711 0021 000000   		.space	3
 712 0024 00000000 		.word	handle_put_light
 713 0028 00000000 		.word	path_light
 714 002c 00000000 		.word	0
 715 0030 00       		.byte	0
 716 0031 000000   		.space	3
 717 0034 00000000 		.word	0
 718 0038 00000000 		.word	0
 719 003c 00000000 		.word	0
 720              		.section	.rodata.path_light,"a"
 721              		.align	2
 724              	path_light:
 725 0000 01000000 		.word	1
 726 0004 10000000 		.word	.LC6
 727 0008 00000000 		.space	4
 728              		.section	.rodata.path_well_known_core,"a"
 729              		.align	2
 732              	path_well_known_core:
 733 0000 02000000 		.word	2
 734 0004 18000000 		.word	.LC7
 735 0008 24000000 		.word	.LC8
 736              		.section	.rodata.rsplen,"a"
 737              		.align	1
 740              	rsplen:
 741 0000 DC05     		.short	1500
 742              		.text
 743              	.Letext0:
 744              		.file 2 "d:\\gcc arm\\10 2021.10\\arm-none-eabi\\include\\machine\\_default_types.h"
 745              		.file 3 "d:\\gcc arm\\10 2021.10\\lib\\gcc\\arm-none-eabi\\10.3.1\\include\\stddef.h"
 746              		.file 4 "d:\\gcc arm\\10 2021.10\\arm-none-eabi\\include\\sys\\_stdint.h"
 747              		.file 5 "coapLIB/coap.h"
 748              		.file 6 "d:\\gcc arm\\10 2021.10\\arm-none-eabi\\include\\string.h"
 749              		.file 7 "Core/main.h"
ARM GAS  C:\Users\clay0\AppData\Local\Temp\ccwyaGl2.s 			page 18


DEFINED SYMBOLS
                            *ABS*:00000000 endpoints.c
C:\Users\clay0\AppData\Local\Temp\ccwyaGl2.s:20     .text.handle_put_light:00000000 $t
C:\Users\clay0\AppData\Local\Temp\ccwyaGl2.s:26     .text.handle_put_light:00000000 handle_put_light
C:\Users\clay0\AppData\Local\Temp\ccwyaGl2.s:150    .text.handle_put_light:00000078 $d
C:\Users\clay0\AppData\Local\Temp\ccwyaGl2.s:155    .text.handle_get_light:00000000 $t
C:\Users\clay0\AppData\Local\Temp\ccwyaGl2.s:161    .text.handle_get_light:00000000 handle_get_light
C:\Users\clay0\AppData\Local\Temp\ccwyaGl2.s:213    .text.handle_get_light:00000028 $d
C:\Users\clay0\AppData\Local\Temp\ccwyaGl2.s:218    .text.handle_get_well_known_core:00000000 $t
C:\Users\clay0\AppData\Local\Temp\ccwyaGl2.s:224    .text.handle_get_well_known_core:00000000 handle_get_well_known_core
C:\Users\clay0\AppData\Local\Temp\ccwyaGl2.s:291    .text.handle_get_well_known_core:00000038 $d
C:\Users\clay0\AppData\Local\Temp\ccwyaGl2.s:296    .rodata.build_rsp.str1.4:00000000 $d
C:\Users\clay0\AppData\Local\Temp\ccwyaGl2.s:309    .text.build_rsp:00000000 $t
C:\Users\clay0\AppData\Local\Temp\ccwyaGl2.s:316    .text.build_rsp:00000000 build_rsp
C:\Users\clay0\AppData\Local\Temp\ccwyaGl2.s:616    .text.build_rsp:00000154 $d
C:\Users\clay0\AppData\Local\Temp\ccwyaGl2.s:626    .text.endpoint_setup:00000000 $t
C:\Users\clay0\AppData\Local\Temp\ccwyaGl2.s:633    .text.endpoint_setup:00000000 endpoint_setup
C:\Users\clay0\AppData\Local\Temp\ccwyaGl2.s:699    .rodata.endpoints:00000000 endpoints
C:\Users\clay0\AppData\Local\Temp\ccwyaGl2.s:665    .rodata.str1.4:00000000 $d
C:\Users\clay0\AppData\Local\Temp\ccwyaGl2.s:740    .rodata.rsplen:00000000 rsplen
C:\Users\clay0\AppData\Local\Temp\ccwyaGl2.s:682    .bss.rsp:00000000 $d
C:\Users\clay0\AppData\Local\Temp\ccwyaGl2.s:686    .bss.rsp:00000000 rsp
C:\Users\clay0\AppData\Local\Temp\ccwyaGl2.s:692    .data.light:00000000 light
C:\Users\clay0\AppData\Local\Temp\ccwyaGl2.s:695    .rodata.endpoints:00000000 $d
C:\Users\clay0\AppData\Local\Temp\ccwyaGl2.s:732    .rodata.path_well_known_core:00000000 path_well_known_core
C:\Users\clay0\AppData\Local\Temp\ccwyaGl2.s:724    .rodata.path_light:00000000 path_light
C:\Users\clay0\AppData\Local\Temp\ccwyaGl2.s:721    .rodata.path_light:00000000 $d
C:\Users\clay0\AppData\Local\Temp\ccwyaGl2.s:729    .rodata.path_well_known_core:00000000 $d
C:\Users\clay0\AppData\Local\Temp\ccwyaGl2.s:737    .rodata.rsplen:00000000 $d

UNDEFINED SYMBOLS
blink_run
coap_make_response
strlen
strncat
