ARM GAS  C:\Users\clay0\AppData\Local\Temp\ccPZ6gMP.s 			page 1


   1              		.cpu cortex-m4
   2              		.arch armv7e-m
   3              		.fpu fpv4-sp-d16
   4              		.eabi_attribute 27, 1
   5              		.eabi_attribute 28, 1
   6              		.eabi_attribute 20, 1
   7              		.eabi_attribute 21, 1
   8              		.eabi_attribute 23, 3
   9              		.eabi_attribute 24, 1
  10              		.eabi_attribute 25, 1
  11              		.eabi_attribute 26, 1
  12              		.eabi_attribute 30, 1
  13              		.eabi_attribute 34, 1
  14              		.eabi_attribute 18, 4
  15              		.file	"kem_classic_mceliece_348864.c"
  16              		.text
  17              		.align	1
  18              		.global	OQS_KEM_classic_mceliece_348864_keypair
  19              		.syntax unified
  20              		.thumb
  21              		.thumb_func
  23              	OQS_KEM_classic_mceliece_348864_keypair:
  24              		@ args = 0, pretend = 0, frame = 0
  25              		@ frame_needed = 0, uses_anonymous_args = 0
  26 0000 08B5     		push	{r3, lr}
  27 0002 FFF7FEFF 		bl	PQCLEAN_MCELIECE348864_CLEAN_crypto_kem_keypair
  28 0006 40B2     		sxtb	r0, r0
  29 0008 08BD     		pop	{r3, pc}
  31              		.align	1
  32              		.global	OQS_KEM_classic_mceliece_348864_encaps
  33              		.syntax unified
  34              		.thumb
  35              		.thumb_func
  37              	OQS_KEM_classic_mceliece_348864_encaps:
  38              		@ args = 0, pretend = 0, frame = 0
  39              		@ frame_needed = 0, uses_anonymous_args = 0
  40 000a 08B5     		push	{r3, lr}
  41 000c FFF7FEFF 		bl	PQCLEAN_MCELIECE348864_CLEAN_crypto_kem_enc
  42 0010 40B2     		sxtb	r0, r0
  43 0012 08BD     		pop	{r3, pc}
  45              		.align	1
  46              		.global	OQS_KEM_classic_mceliece_348864_decaps
  47              		.syntax unified
  48              		.thumb
  49              		.thumb_func
  51              	OQS_KEM_classic_mceliece_348864_decaps:
  52              		@ args = 0, pretend = 0, frame = 0
  53              		@ frame_needed = 0, uses_anonymous_args = 0
  54 0014 08B5     		push	{r3, lr}
  55 0016 FFF7FEFF 		bl	PQCLEAN_MCELIECE348864_CLEAN_crypto_kem_dec
  56 001a 40B2     		sxtb	r0, r0
  57 001c 08BD     		pop	{r3, pc}
  59              		.section	.rodata.str1.4,"aMS",%progbits,1
  60              		.align	2
  61              	.LC0:
  62 0000 436C6173 		.ascii	"Classic-McEliece-348864\000"
  62      7369632D 
ARM GAS  C:\Users\clay0\AppData\Local\Temp\ccPZ6gMP.s 			page 2


  62      4D63456C 
  62      69656365 
  62      2D333438 
  63              		.align	2
  64              	.LC1:
  65 0018 53555045 		.ascii	"SUPERCOP-20221025\000"
  65      52434F50 
  65      2D323032 
  65      32313032 
  65      3500
  66              		.text
  67              		.align	1
  68              		.global	OQS_KEM_classic_mceliece_348864_new
  69              		.syntax unified
  70              		.thumb
  71              		.thumb_func
  73              	OQS_KEM_classic_mceliece_348864_new:
  74              		@ args = 0, pretend = 0, frame = 0
  75              		@ frame_needed = 0, uses_anonymous_args = 0
  76 001e 08B5     		push	{r3, lr}
  77 0020 2820     		movs	r0, #40
  78 0022 FFF7FEFF 		bl	malloc
  79 0026 0346     		mov	r3, r0
  80 0028 B0B1     		cbz	r0, .L7
  81 002a 0C4A     		ldr	r2, .L10
  82 002c 0260     		str	r2, [r0]
  83 002e 0C4A     		ldr	r2, .L10+4
  84 0030 4260     		str	r2, [r0, #4]
  85 0032 0122     		movs	r2, #1
  86 0034 0272     		strb	r2, [r0, #8]
  87 0036 4272     		strb	r2, [r0, #9]
  88 0038 4FF47F32 		mov	r2, #261120
  89 003c C260     		str	r2, [r0, #12]
  90 003e 41F65C12 		movw	r2, #6492
  91 0042 0261     		str	r2, [r0, #16]
  92 0044 6022     		movs	r2, #96
  93 0046 4261     		str	r2, [r0, #20]
  94 0048 2022     		movs	r2, #32
  95 004a 8261     		str	r2, [r0, #24]
  96 004c 054A     		ldr	r2, .L10+8
  97 004e C261     		str	r2, [r0, #28]
  98 0050 054A     		ldr	r2, .L10+12
  99 0052 0262     		str	r2, [r0, #32]
 100 0054 054A     		ldr	r2, .L10+16
 101 0056 4262     		str	r2, [r0, #36]
 102              	.L7:
 103 0058 1846     		mov	r0, r3
 104 005a 08BD     		pop	{r3, pc}
 105              	.L11:
 106              		.align	2
 107              	.L10:
 108 005c 00000000 		.word	.LC0
 109 0060 18000000 		.word	.LC1
 110 0064 00000000 		.word	OQS_KEM_classic_mceliece_348864_keypair
 111 0068 00000000 		.word	OQS_KEM_classic_mceliece_348864_encaps
 112 006c 00000000 		.word	OQS_KEM_classic_mceliece_348864_decaps
 114              		.ident	"GCC: (GNU Arm Embedded Toolchain 10.3-2021.10) 10.3.1 20210824 (release)"
ARM GAS  C:\Users\clay0\AppData\Local\Temp\ccPZ6gMP.s 			page 3


ARM GAS  C:\Users\clay0\AppData\Local\Temp\ccPZ6gMP.s 			page 4

