ARM GAS  C:\Users\clay0\AppData\Local\Temp\ccHXg1S7.s 			page 1


   1              		.cpu cortex-m4
   2              		.arch armv7e-m
   3              		.fpu fpv4-sp-d16
   4              		.eabi_attribute 27, 1
   5              		.eabi_attribute 28, 1
   6              		.eabi_attribute 20, 1
   7              		.eabi_attribute 21, 1
   8              		.eabi_attribute 23, 3
   9              		.eabi_attribute 24, 1
  10              		.eabi_attribute 25, 1
  11              		.eabi_attribute 26, 1
  12              		.eabi_attribute 30, 1
  13              		.eabi_attribute 34, 1
  14              		.eabi_attribute 18, 4
  15              		.file	"mce_348864.c"
  16              		.text
  17              		.section	.rodata.str1.4,"aMS",%progbits,1
  18              		.align	2
  19              	.LC0:
  20 0000 25303278 		.ascii	"%02x\000"
  20      00
  21              		.text
  22              		.align	1
  23              		.syntax unified
  24              		.thumb
  25              		.thumb_func
  27              	convert_hex_inv:
  28              		@ args = 0, pretend = 0, frame = 0
  29              		@ frame_needed = 0, uses_anonymous_args = 0
  30 0000 F8B5     		push	{r3, r4, r5, r6, r7, lr}
  31 0002 0746     		mov	r7, r0
  32 0004 0D46     		mov	r5, r1
  33 0006 1646     		mov	r6, r2
  34 0008 0024     		movs	r4, #0
  35 000a 06E0     		b	.L3
  36              	.L5:
  37 000c 325D     		ldrb	r2, [r6, r4]	@ zero_extendqisi2
  38 000e 0549     		ldr	r1, .L6
  39 0010 07EB4400 		add	r0, r7, r4, lsl #1
  40 0014 FFF7FEFF 		bl	sprintf
  41 0018 0134     		adds	r4, r4, #1
  42              	.L3:
  43 001a AC42     		cmp	r4, r5
  44 001c F6D3     		bcc	.L5
  45 001e 2046     		mov	r0, r4
  46 0020 F8BD     		pop	{r3, r4, r5, r6, r7, pc}
  47              	.L7:
  48 0022 00BF     		.align	2
  49              	.L6:
  50 0024 00000000 		.word	.LC0
  52              		.align	1
  53              		.global	get_text
  54              		.syntax unified
  55              		.thumb
  56              		.thumb_func
  58              	get_text:
  59              		@ args = 0, pretend = 0, frame = 1024
ARM GAS  C:\Users\clay0\AppData\Local\Temp\ccHXg1S7.s 			page 2


  60              		@ frame_needed = 0, uses_anonymous_args = 0
  61 0028 30B5     		push	{r4, r5, lr}
  62 002a ADF2044D 		subw	sp, sp, #1028
  63 002e 0546     		mov	r5, r0
  64 0030 0C46     		mov	r4, r1
  65 0032 0021     		movs	r1, #0
  66 0034 0091     		str	r1, [sp]
  67 0036 4FF47F72 		mov	r2, #1020
  68 003a 01A8     		add	r0, sp, #4
  69 003c FFF7FEFF 		bl	memset
  70 0040 012C     		cmp	r4, #1
  71 0042 04D0     		beq	.L9
  72 0044 022C     		cmp	r4, #2
  73 0046 0ED0     		beq	.L10
  74              	.L8:
  75 0048 0DF2044D 		addw	sp, sp, #1028
  76              		@ sp needed
  77 004c 30BD     		pop	{r4, r5, pc}
  78              	.L9:
  79 004e 0C4B     		ldr	r3, .L13
  80 0050 1968     		ldr	r1, [r3]
  81 0052 5A68     		ldr	r2, [r3, #4]
  82 0054 8969     		ldr	r1, [r1, #24]
  83 0056 6846     		mov	r0, sp
  84 0058 FFF7D2FF 		bl	convert_hex_inv
  85 005c 6946     		mov	r1, sp
  86 005e 2846     		mov	r0, r5
  87 0060 FFF7FEFF 		bl	strcat
  88 0064 F0E7     		b	.L8
  89              	.L10:
  90 0066 064B     		ldr	r3, .L13
  91 0068 1968     		ldr	r1, [r3]
  92 006a 9A68     		ldr	r2, [r3, #8]
  93 006c 8969     		ldr	r1, [r1, #24]
  94 006e 6846     		mov	r0, sp
  95 0070 FFF7C6FF 		bl	convert_hex_inv
  96 0074 6946     		mov	r1, sp
  97 0076 2846     		mov	r0, r5
  98 0078 FFF7FEFF 		bl	strcat
  99 007c E4E7     		b	.L8
 100              	.L14:
 101 007e 00BF     		.align	2
 102              	.L13:
 103 0080 00000000 		.word	.LANCHOR0
 105              		.align	1
 106              		.global	cleanup_heap
 107              		.syntax unified
 108              		.thumb
 109              		.thumb_func
 111              	cleanup_heap:
 112              		@ args = 0, pretend = 0, frame = 0
 113              		@ frame_needed = 0, uses_anonymous_args = 0
 114 0084 10B5     		push	{r4, lr}
 115 0086 0E4B     		ldr	r3, .L18
 116 0088 1B68     		ldr	r3, [r3]
 117 008a 73B1     		cbz	r3, .L16
 118 008c 0C4C     		ldr	r4, .L18
ARM GAS  C:\Users\clay0\AppData\Local\Temp\ccHXg1S7.s 			page 3


 119 008e 1969     		ldr	r1, [r3, #16]
 120 0090 E068     		ldr	r0, [r4, #12]
 121 0092 FFF7FEFF 		bl	OQS_MEM_secure_free
 122 0096 2368     		ldr	r3, [r4]
 123 0098 9969     		ldr	r1, [r3, #24]
 124 009a 6068     		ldr	r0, [r4, #4]
 125 009c FFF7FEFF 		bl	OQS_MEM_secure_free
 126 00a0 2368     		ldr	r3, [r4]
 127 00a2 9969     		ldr	r1, [r3, #24]
 128 00a4 A068     		ldr	r0, [r4, #8]
 129 00a6 FFF7FEFF 		bl	OQS_MEM_secure_free
 130              	.L16:
 131 00aa 054C     		ldr	r4, .L18
 132 00ac 2069     		ldr	r0, [r4, #16]
 133 00ae FFF7FEFF 		bl	OQS_MEM_insecure_free
 134 00b2 6069     		ldr	r0, [r4, #20]
 135 00b4 FFF7FEFF 		bl	OQS_MEM_insecure_free
 136 00b8 2068     		ldr	r0, [r4]
 137 00ba FFF7FEFF 		bl	OQS_KEM_free
 138 00be 10BD     		pop	{r4, pc}
 139              	.L19:
 140              		.align	2
 141              	.L18:
 142 00c0 00000000 		.word	.LANCHOR0
 144              		.section	.rodata.str1.4
 145 0005 000000   		.align	2
 146              	.LC1:
 147 0008 436C6173 		.ascii	"Classic-McEliece-348864\000"
 147      7369632D 
 147      4D63456C 
 147      69656365 
 147      2D333438 
 148              		.align	2
 149              	.LC2:
 150 0020 4F51535F 		.ascii	"OQS_KEM_classic_mceliece was not enabled at compile"
 150      4B454D5F 
 150      636C6173 
 150      7369635F 
 150      6D63656C 
 151 0053 2D74696D 		.ascii	"-time.\000"
 151      652E00
 152 005a 0000     		.align	2
 153              	.LC3:
 154 005c 4552524F 		.ascii	"ERROR: malloc failed!\012\000"
 154      523A206D 
 154      616C6C6F 
 154      63206661 
 154      696C6564 
 155 0073 00       		.align	2
 156              	.LC4:
 157 0074 4F51535F 		.ascii	"OQS_KEM space created completed.\000"
 157      4B454D20 
 157      73706163 
 157      65206372 
 157      65617465 
 158              		.text
 159              		.align	1
ARM GAS  C:\Users\clay0\AppData\Local\Temp\ccHXg1S7.s 			page 4


 160              		.global	create_space
 161              		.syntax unified
 162              		.thumb
 163              		.thumb_func
 165              	create_space:
 166              		@ args = 0, pretend = 0, frame = 0
 167              		@ frame_needed = 0, uses_anonymous_args = 0
 168 00c4 2DE9F843 		push	{r3, r4, r5, r6, r7, r8, r9, lr}
 169 00c8 204B     		ldr	r3, .L28
 170 00ca 1B68     		ldr	r3, [r3]
 171 00cc 0BB1     		cbz	r3, .L26
 172              	.L20:
 173 00ce BDE8F883 		pop	{r3, r4, r5, r6, r7, r8, r9, pc}
 174              	.L26:
 175 00d2 1F48     		ldr	r0, .L28+4
 176 00d4 FFF7FEFF 		bl	OQS_KEM_new
 177 00d8 0446     		mov	r4, r0
 178 00da 1C4B     		ldr	r3, .L28
 179 00dc 1860     		str	r0, [r3]
 180 00de 28B3     		cbz	r0, .L27
 181 00e0 C068     		ldr	r0, [r0, #12]
 182 00e2 FFF7FEFF 		bl	malloc
 183 00e6 8046     		mov	r8, r0
 184 00e8 184D     		ldr	r5, .L28
 185 00ea 2861     		str	r0, [r5, #16]
 186 00ec 2069     		ldr	r0, [r4, #16]
 187 00ee FFF7FEFF 		bl	malloc
 188 00f2 0746     		mov	r7, r0
 189 00f4 E860     		str	r0, [r5, #12]
 190 00f6 6069     		ldr	r0, [r4, #20]
 191 00f8 FFF7FEFF 		bl	malloc
 192 00fc 0646     		mov	r6, r0
 193 00fe 6861     		str	r0, [r5, #20]
 194 0100 D4F81890 		ldr	r9, [r4, #24]
 195 0104 4846     		mov	r0, r9
 196 0106 FFF7FEFF 		bl	malloc
 197 010a 0446     		mov	r4, r0
 198 010c 6860     		str	r0, [r5, #4]
 199 010e 4846     		mov	r0, r9
 200 0110 FFF7FEFF 		bl	malloc
 201 0114 A860     		str	r0, [r5, #8]
 202 0116 B8F1000F 		cmp	r8, #0
 203 011a 0BD0     		beq	.L23
 204 011c 57B1     		cbz	r7, .L23
 205 011e 4EB1     		cbz	r6, .L23
 206 0120 44B1     		cbz	r4, .L23
 207 0122 38B1     		cbz	r0, .L23
 208 0124 0B48     		ldr	r0, .L28+8
 209 0126 FFF7FEFF 		bl	puts
 210 012a D0E7     		b	.L20
 211              	.L27:
 212 012c 0A48     		ldr	r0, .L28+12
 213 012e FFF7FEFF 		bl	puts
 214 0132 CCE7     		b	.L20
 215              	.L23:
 216 0134 094B     		ldr	r3, .L28+16
 217 0136 1B68     		ldr	r3, [r3]
ARM GAS  C:\Users\clay0\AppData\Local\Temp\ccHXg1S7.s 			page 5


 218 0138 DB68     		ldr	r3, [r3, #12]
 219 013a 1622     		movs	r2, #22
 220 013c 0121     		movs	r1, #1
 221 013e 0848     		ldr	r0, .L28+20
 222 0140 FFF7FEFF 		bl	fwrite
 223 0144 FFF7FEFF 		bl	cleanup_heap
 224 0148 C1E7     		b	.L20
 225              	.L29:
 226 014a 00BF     		.align	2
 227              	.L28:
 228 014c 00000000 		.word	.LANCHOR0
 229 0150 08000000 		.word	.LC1
 230 0154 74000000 		.word	.LC4
 231 0158 20000000 		.word	.LC2
 232 015c 00000000 		.word	_impure_ptr
 233 0160 5C000000 		.word	.LC3
 235              		.section	.rodata.str1.4
 236 0095 000000   		.align	2
 237              	.LC5:
 238 0098 4552524F 		.ascii	"ERROR: OQS_KEM_keypair failed!\012\000"
 238      523A204F 
 238      51535F4B 
 238      454D5F6B 
 238      65797061 
 239              		.align	2
 240              	.LC6:
 241 00b8 4F51535F 		.ascii	"OQS_KEM_classic_mceliece_348864 keypair completed.\000"
 241      4B454D5F 
 241      636C6173 
 241      7369635F 
 241      6D63656C 
 242              		.text
 243              		.align	1
 244              		.syntax unified
 245              		.thumb
 246              		.thumb_func
 248              	mce_348864_keypair:
 249              		@ args = 0, pretend = 0, frame = 0
 250              		@ frame_needed = 0, uses_anonymous_args = 0
 251 0164 10B5     		push	{r4, lr}
 252 0166 0D4B     		ldr	r3, .L35
 253 0168 DA68     		ldr	r2, [r3, #12]
 254 016a 1969     		ldr	r1, [r3, #16]
 255 016c 1868     		ldr	r0, [r3]
 256 016e FFF7FEFF 		bl	OQS_KEM_keypair
 257 0172 28B9     		cbnz	r0, .L34
 258 0174 0446     		mov	r4, r0
 259 0176 0A48     		ldr	r0, .L35+4
 260 0178 FFF7FEFF 		bl	puts
 261              	.L32:
 262 017c 2046     		mov	r0, r4
 263 017e 10BD     		pop	{r4, pc}
 264              	.L34:
 265 0180 084B     		ldr	r3, .L35+8
 266 0182 1B68     		ldr	r3, [r3]
 267 0184 DB68     		ldr	r3, [r3, #12]
 268 0186 1F22     		movs	r2, #31
ARM GAS  C:\Users\clay0\AppData\Local\Temp\ccHXg1S7.s 			page 6


 269 0188 0121     		movs	r1, #1
 270 018a 0748     		ldr	r0, .L35+12
 271 018c FFF7FEFF 		bl	fwrite
 272 0190 FFF7FEFF 		bl	cleanup_heap
 273 0194 4FF0FF34 		mov	r4, #-1
 274 0198 F0E7     		b	.L32
 275              	.L36:
 276 019a 00BF     		.align	2
 277              	.L35:
 278 019c 00000000 		.word	.LANCHOR0
 279 01a0 B8000000 		.word	.LC6
 280 01a4 00000000 		.word	_impure_ptr
 281 01a8 98000000 		.word	.LC5
 283              		.section	.rodata.str1.4
 284 00eb 00       		.align	2
 285              	.LC7:
 286 00ec 25303278 		.ascii	"%02x \000"
 286      2000
 287 00f2 0000     		.align	2
 288              	.LC8:
 289 00f4 4552524F 		.ascii	"ERROR: OQS_KEM_encaps failed!\012\000"
 289      523A204F 
 289      51535F4B 
 289      454D5F65 
 289      6E636170 
 290 0113 00       		.align	2
 291              	.LC9:
 292 0114 4F51535F 		.ascii	"OQS_KEM_classic_mceliece_348864 encaps completed.\000"
 292      4B454D5F 
 292      636C6173 
 292      7369635F 
 292      6D63656C 
 293              		.text
 294              		.align	1
 295              		.syntax unified
 296              		.thumb
 297              		.thumb_func
 299              	mce_348864_encaps:
 300              		@ args = 0, pretend = 0, frame = 0
 301              		@ frame_needed = 0, uses_anonymous_args = 0
 302 01ac 38B5     		push	{r3, r4, r5, lr}
 303 01ae 1648     		ldr	r0, .L44
 304 01b0 0369     		ldr	r3, [r0, #16]
 305 01b2 4268     		ldr	r2, [r0, #4]
 306 01b4 4169     		ldr	r1, [r0, #20]
 307 01b6 0068     		ldr	r0, [r0]
 308 01b8 FFF7FEFF 		bl	OQS_KEM_encaps
 309 01bc 0546     		mov	r5, r0
 310 01be 0024     		movs	r4, #0
 311 01c0 06E0     		b	.L38
 312              	.L39:
 313 01c2 114B     		ldr	r3, .L44
 314 01c4 5B68     		ldr	r3, [r3, #4]
 315 01c6 195D     		ldrb	r1, [r3, r4]	@ zero_extendqisi2
 316 01c8 1048     		ldr	r0, .L44+4
 317 01ca FFF7FEFF 		bl	printf
 318 01ce 0134     		adds	r4, r4, #1
ARM GAS  C:\Users\clay0\AppData\Local\Temp\ccHXg1S7.s 			page 7


 319              	.L38:
 320 01d0 0D4B     		ldr	r3, .L44
 321 01d2 1B68     		ldr	r3, [r3]
 322 01d4 9B69     		ldr	r3, [r3, #24]
 323 01d6 A342     		cmp	r3, r4
 324 01d8 F3D8     		bhi	.L39
 325 01da 0A20     		movs	r0, #10
 326 01dc FFF7FEFF 		bl	putchar
 327 01e0 25B9     		cbnz	r5, .L43
 328 01e2 0B48     		ldr	r0, .L44+8
 329 01e4 FFF7FEFF 		bl	puts
 330              	.L41:
 331 01e8 2846     		mov	r0, r5
 332 01ea 38BD     		pop	{r3, r4, r5, pc}
 333              	.L43:
 334 01ec 094B     		ldr	r3, .L44+12
 335 01ee 1B68     		ldr	r3, [r3]
 336 01f0 DB68     		ldr	r3, [r3, #12]
 337 01f2 1E22     		movs	r2, #30
 338 01f4 0121     		movs	r1, #1
 339 01f6 0848     		ldr	r0, .L44+16
 340 01f8 FFF7FEFF 		bl	fwrite
 341 01fc FFF7FEFF 		bl	cleanup_heap
 342 0200 4FF0FF35 		mov	r5, #-1
 343 0204 F0E7     		b	.L41
 344              	.L45:
 345 0206 00BF     		.align	2
 346              	.L44:
 347 0208 00000000 		.word	.LANCHOR0
 348 020c EC000000 		.word	.LC7
 349 0210 14010000 		.word	.LC9
 350 0214 00000000 		.word	_impure_ptr
 351 0218 F4000000 		.word	.LC8
 353              		.section	.rodata.str1.4
 354 0146 0000     		.align	2
 355              	.LC10:
 356 0148 4552524F 		.ascii	"ERROR: OQS_KEM_decaps failed!\012\000"
 356      523A204F 
 356      51535F4B 
 356      454D5F64 
 356      65636170 
 357 0167 00       		.align	2
 358              	.LC11:
 359 0168 4F51535F 		.ascii	"OQS_KEM_classic_mceliece_348864 decaps completed.\000"
 359      4B454D5F 
 359      636C6173 
 359      7369635F 
 359      6D63656C 
 360              		.text
 361              		.align	1
 362              		.syntax unified
 363              		.thumb
 364              		.thumb_func
 366              	mce_348864_decaps:
 367              		@ args = 0, pretend = 0, frame = 0
 368              		@ frame_needed = 0, uses_anonymous_args = 0
 369 021c 38B5     		push	{r3, r4, r5, lr}
ARM GAS  C:\Users\clay0\AppData\Local\Temp\ccHXg1S7.s 			page 8


 370 021e 1648     		ldr	r0, .L53
 371 0220 C368     		ldr	r3, [r0, #12]
 372 0222 4269     		ldr	r2, [r0, #20]
 373 0224 8168     		ldr	r1, [r0, #8]
 374 0226 0068     		ldr	r0, [r0]
 375 0228 FFF7FEFF 		bl	OQS_KEM_decaps
 376 022c 0546     		mov	r5, r0
 377 022e 0024     		movs	r4, #0
 378 0230 06E0     		b	.L47
 379              	.L48:
 380 0232 114B     		ldr	r3, .L53
 381 0234 9B68     		ldr	r3, [r3, #8]
 382 0236 195D     		ldrb	r1, [r3, r4]	@ zero_extendqisi2
 383 0238 1048     		ldr	r0, .L53+4
 384 023a FFF7FEFF 		bl	printf
 385 023e 0134     		adds	r4, r4, #1
 386              	.L47:
 387 0240 0D4B     		ldr	r3, .L53
 388 0242 1B68     		ldr	r3, [r3]
 389 0244 9B69     		ldr	r3, [r3, #24]
 390 0246 A342     		cmp	r3, r4
 391 0248 F3D8     		bhi	.L48
 392 024a 0A20     		movs	r0, #10
 393 024c FFF7FEFF 		bl	putchar
 394 0250 25B9     		cbnz	r5, .L52
 395 0252 0B48     		ldr	r0, .L53+8
 396 0254 FFF7FEFF 		bl	puts
 397              	.L50:
 398 0258 2846     		mov	r0, r5
 399 025a 38BD     		pop	{r3, r4, r5, pc}
 400              	.L52:
 401 025c 094B     		ldr	r3, .L53+12
 402 025e 1B68     		ldr	r3, [r3]
 403 0260 DB68     		ldr	r3, [r3, #12]
 404 0262 1E22     		movs	r2, #30
 405 0264 0121     		movs	r1, #1
 406 0266 0848     		ldr	r0, .L53+16
 407 0268 FFF7FEFF 		bl	fwrite
 408 026c FFF7FEFF 		bl	cleanup_heap
 409 0270 4FF0FF35 		mov	r5, #-1
 410 0274 F0E7     		b	.L50
 411              	.L54:
 412 0276 00BF     		.align	2
 413              	.L53:
 414 0278 00000000 		.word	.LANCHOR0
 415 027c EC000000 		.word	.LC7
 416 0280 68010000 		.word	.LC11
 417 0284 00000000 		.word	_impure_ptr
 418 0288 48010000 		.word	.LC10
 420              		.align	1
 421              		.global	run_mce_348864
 422              		.syntax unified
 423              		.thumb
 424              		.thumb_func
 426              	run_mce_348864:
 427              		@ args = 0, pretend = 0, frame = 0
 428              		@ frame_needed = 0, uses_anonymous_args = 0
ARM GAS  C:\Users\clay0\AppData\Local\Temp\ccHXg1S7.s 			page 9


 429 028c 08B5     		push	{r3, lr}
 430 028e 0228     		cmp	r0, #2
 431 0290 09D0     		beq	.L56
 432 0292 0328     		cmp	r0, #3
 433 0294 0DD0     		beq	.L57
 434 0296 0128     		cmp	r0, #1
 435 0298 00D0     		beq	.L64
 436              	.L55:
 437 029a 08BD     		pop	{r3, pc}
 438              	.L64:
 439 029c FFF762FF 		bl	mce_348864_keypair
 440 02a0 68B1     		cbz	r0, .L59
 441 02a2 0120     		movs	r0, #1
 442 02a4 F9E7     		b	.L55
 443              	.L56:
 444 02a6 FFF781FF 		bl	mce_348864_encaps
 445 02aa 0028     		cmp	r0, #0
 446 02ac F5D0     		beq	.L55
 447 02ae 0120     		movs	r0, #1
 448 02b0 F3E7     		b	.L55
 449              	.L57:
 450 02b2 FFF7B3FF 		bl	mce_348864_decaps
 451 02b6 0028     		cmp	r0, #0
 452 02b8 EFD0     		beq	.L55
 453 02ba 0120     		movs	r0, #1
 454 02bc EDE7     		b	.L55
 455              	.L59:
 456 02be 0020     		movs	r0, #0
 457 02c0 EBE7     		b	.L55
 459              		.global	shared_secret_d
 460              		.global	shared_secret_e
 461              		.global	ciphertext
 462              		.global	secret_key
 463              		.global	public_key
 464              		.global	kem
 465 02c2 00BF     		.bss
 466              		.align	2
 467              		.set	.LANCHOR0,. + 0
 470              	kem:
 471 0000 00000000 		.space	4
 474              	shared_secret_e:
 475 0004 00000000 		.space	4
 478              	shared_secret_d:
 479 0008 00000000 		.space	4
 482              	secret_key:
 483 000c 00000000 		.space	4
 486              	public_key:
 487 0010 00000000 		.space	4
 490              	ciphertext:
 491 0014 00000000 		.space	4
 492              		.ident	"GCC: (GNU Arm Embedded Toolchain 10.3-2021.10) 10.3.1 20210824 (release)"
ARM GAS  C:\Users\clay0\AppData\Local\Temp\ccHXg1S7.s 			page 10

