ARM GAS  C:\Users\clay0\AppData\Local\Temp\ccksdYIU.s 			page 1


   1              		.cpu cortex-m4
   2              		.arch armv7e-m
   3              		.fpu fpv4-sp-d16
   4              		.eabi_attribute 27, 1
   5              		.eabi_attribute 28, 1
   6              		.eabi_attribute 20, 1
   7              		.eabi_attribute 21, 1
   8              		.eabi_attribute 23, 3
   9              		.eabi_attribute 24, 1
  10              		.eabi_attribute 25, 1
  11              		.eabi_attribute 26, 1
  12              		.eabi_attribute 30, 6
  13              		.eabi_attribute 34, 1
  14              		.eabi_attribute 18, 4
  15              		.file	"sha256.c"
  16              		.text
  17              	.Ltext0:
  18              		.cfi_sections	.debug_frame
  19              		.section	.text.mbedtls_sha256_init,"ax",%progbits
  20              		.align	1
  21              		.global	mbedtls_sha256_init
  22              		.syntax unified
  23              		.thumb
  24              		.thumb_func
  26              	mbedtls_sha256_init:
  27              	.LFB14:
  28              		.file 1 "mbedTLS/library/sha256.c"
   1:mbedTLS/library/sha256.c **** /*
   2:mbedTLS/library/sha256.c ****  *  FIPS-180-2 compliant SHA-256 implementation
   3:mbedTLS/library/sha256.c ****  *
   4:mbedTLS/library/sha256.c ****  *  Copyright The Mbed TLS Contributors
   5:mbedTLS/library/sha256.c ****  *  SPDX-License-Identifier: Apache-2.0 OR GPL-2.0-or-later
   6:mbedTLS/library/sha256.c ****  */
   7:mbedTLS/library/sha256.c **** /*
   8:mbedTLS/library/sha256.c ****  *  The SHA-256 Secure Hash Standard was published by NIST in 2002.
   9:mbedTLS/library/sha256.c ****  *
  10:mbedTLS/library/sha256.c ****  *  http://csrc.nist.gov/publications/fips/fips180-2/fips180-2.pdf
  11:mbedTLS/library/sha256.c ****  */
  12:mbedTLS/library/sha256.c **** 
  13:mbedTLS/library/sha256.c **** #if defined(__clang__) &&  (__clang_major__ >= 4)
  14:mbedTLS/library/sha256.c **** 
  15:mbedTLS/library/sha256.c **** /* Ideally, we would simply use MBEDTLS_ARCH_IS_ARMV8_A in the following #if,
  16:mbedTLS/library/sha256.c ****  * but that is defined by build_info.h, and we need this block to happen first. */
  17:mbedTLS/library/sha256.c **** #if defined(__ARM_ARCH) && (__ARM_ARCH_PROFILE == 'A')
  18:mbedTLS/library/sha256.c **** #if __ARM_ARCH >= 8
  19:mbedTLS/library/sha256.c **** #define MBEDTLS_SHA256_ARCH_IS_ARMV8_A
  20:mbedTLS/library/sha256.c **** #endif
  21:mbedTLS/library/sha256.c **** #endif
  22:mbedTLS/library/sha256.c **** 
  23:mbedTLS/library/sha256.c **** #if defined(MBEDTLS_SHA256_ARCH_IS_ARMV8_A) && !defined(__ARM_FEATURE_CRYPTO)
  24:mbedTLS/library/sha256.c **** /* TODO: Re-consider above after https://reviews.llvm.org/D131064 merged.
  25:mbedTLS/library/sha256.c ****  *
  26:mbedTLS/library/sha256.c ****  * The intrinsic declaration are guarded by predefined ACLE macros in clang:
  27:mbedTLS/library/sha256.c ****  * these are normally only enabled by the -march option on the command line.
  28:mbedTLS/library/sha256.c ****  * By defining the macros ourselves we gain access to those declarations without
  29:mbedTLS/library/sha256.c ****  * requiring -march on the command line.
  30:mbedTLS/library/sha256.c ****  *
ARM GAS  C:\Users\clay0\AppData\Local\Temp\ccksdYIU.s 			page 2


  31:mbedTLS/library/sha256.c ****  * `arm_neon.h` is included by common.h, so we put these defines
  32:mbedTLS/library/sha256.c ****  * at the top of this file, before any includes.
  33:mbedTLS/library/sha256.c ****  */
  34:mbedTLS/library/sha256.c **** #define __ARM_FEATURE_CRYPTO 1
  35:mbedTLS/library/sha256.c **** /* See: https://arm-software.github.io/acle/main/acle.html#cryptographic-extensions
  36:mbedTLS/library/sha256.c ****  *
  37:mbedTLS/library/sha256.c ****  * `__ARM_FEATURE_CRYPTO` is deprecated, but we need to continue to specify it
  38:mbedTLS/library/sha256.c ****  * for older compilers.
  39:mbedTLS/library/sha256.c ****  */
  40:mbedTLS/library/sha256.c **** #define __ARM_FEATURE_SHA2   1
  41:mbedTLS/library/sha256.c **** #define MBEDTLS_ENABLE_ARM_CRYPTO_EXTENSIONS_COMPILER_FLAG
  42:mbedTLS/library/sha256.c **** #endif
  43:mbedTLS/library/sha256.c **** 
  44:mbedTLS/library/sha256.c **** #endif /* defined(__clang__) &&  (__clang_major__ >= 4) */
  45:mbedTLS/library/sha256.c **** 
  46:mbedTLS/library/sha256.c **** /* Ensure that SIG_SETMASK is defined when -std=c99 is used. */
  47:mbedTLS/library/sha256.c **** #if !defined(_GNU_SOURCE)
  48:mbedTLS/library/sha256.c **** #define _GNU_SOURCE
  49:mbedTLS/library/sha256.c **** #endif
  50:mbedTLS/library/sha256.c **** 
  51:mbedTLS/library/sha256.c **** #include "common.h"
  52:mbedTLS/library/sha256.c **** 
  53:mbedTLS/library/sha256.c **** #if defined(MBEDTLS_SHA256_C) || defined(MBEDTLS_SHA224_C)
  54:mbedTLS/library/sha256.c **** 
  55:mbedTLS/library/sha256.c **** #include "mbedtls/sha256.h"
  56:mbedTLS/library/sha256.c **** #include "mbedtls/platform_util.h"
  57:mbedTLS/library/sha256.c **** #include "mbedtls/error.h"
  58:mbedTLS/library/sha256.c **** 
  59:mbedTLS/library/sha256.c **** #include <string.h>
  60:mbedTLS/library/sha256.c **** 
  61:mbedTLS/library/sha256.c **** #include "mbedtls/platform.h"
  62:mbedTLS/library/sha256.c **** 
  63:mbedTLS/library/sha256.c **** #if defined(MBEDTLS_ARCH_IS_ARMV8_A)
  64:mbedTLS/library/sha256.c **** 
  65:mbedTLS/library/sha256.c **** #  if defined(MBEDTLS_SHA256_USE_ARMV8_A_CRYPTO_IF_PRESENT) || \
  66:mbedTLS/library/sha256.c ****     defined(MBEDTLS_SHA256_USE_ARMV8_A_CRYPTO_ONLY)
  67:mbedTLS/library/sha256.c **** #       if !defined(MBEDTLS_HAVE_NEON_INTRINSICS)
  68:mbedTLS/library/sha256.c **** #           if defined(MBEDTLS_SHA256_USE_ARMV8_A_CRYPTO_IF_PRESENT)
  69:mbedTLS/library/sha256.c **** #               warning "Target does not support NEON instructions"
  70:mbedTLS/library/sha256.c **** #               undef MBEDTLS_SHA256_USE_ARMV8_A_CRYPTO_IF_PRESENT
  71:mbedTLS/library/sha256.c **** #           else
  72:mbedTLS/library/sha256.c **** #               error "Target does not support NEON instructions"
  73:mbedTLS/library/sha256.c **** #           endif
  74:mbedTLS/library/sha256.c **** #       endif
  75:mbedTLS/library/sha256.c **** #   endif
  76:mbedTLS/library/sha256.c **** 
  77:mbedTLS/library/sha256.c **** #  if defined(MBEDTLS_SHA256_USE_ARMV8_A_CRYPTO_IF_PRESENT) || \
  78:mbedTLS/library/sha256.c ****     defined(MBEDTLS_SHA256_USE_ARMV8_A_CRYPTO_ONLY)
  79:mbedTLS/library/sha256.c **** /* *INDENT-OFF* */
  80:mbedTLS/library/sha256.c **** 
  81:mbedTLS/library/sha256.c **** #   if !defined(__ARM_FEATURE_CRYPTO) || defined(MBEDTLS_ENABLE_ARM_CRYPTO_EXTENSIONS_COMPILER_FLAG
  82:mbedTLS/library/sha256.c **** #      if defined(__ARMCOMPILER_VERSION)
  83:mbedTLS/library/sha256.c **** #        if __ARMCOMPILER_VERSION <= 6090000
  84:mbedTLS/library/sha256.c **** #          error "Must use minimum -march=armv8-a+crypto for MBEDTLS_SHA256_USE_ARMV8_A_CRYPTO_*"
  85:mbedTLS/library/sha256.c **** #        endif
  86:mbedTLS/library/sha256.c **** #          pragma clang attribute push (__attribute__((target("sha2"))), apply_to=function)
  87:mbedTLS/library/sha256.c **** #          define MBEDTLS_POP_TARGET_PRAGMA
ARM GAS  C:\Users\clay0\AppData\Local\Temp\ccksdYIU.s 			page 3


  88:mbedTLS/library/sha256.c **** #      elif defined(__clang__)
  89:mbedTLS/library/sha256.c **** #        if __clang_major__ < 4
  90:mbedTLS/library/sha256.c **** #          error "A more recent Clang is required for MBEDTLS_SHA256_USE_ARMV8_A_CRYPTO_*"
  91:mbedTLS/library/sha256.c **** #        endif
  92:mbedTLS/library/sha256.c **** #        pragma clang attribute push (__attribute__((target("crypto"))), apply_to=function)
  93:mbedTLS/library/sha256.c **** #        define MBEDTLS_POP_TARGET_PRAGMA
  94:mbedTLS/library/sha256.c **** #      elif defined(__GNUC__)
  95:mbedTLS/library/sha256.c ****          /* FIXME: GCC 5 claims to support Armv8 Crypto Extensions, but some
  96:mbedTLS/library/sha256.c ****           *        intrinsics are missing. Missing intrinsics could be worked around.
  97:mbedTLS/library/sha256.c ****           */
  98:mbedTLS/library/sha256.c **** #        if __GNUC__ < 6
  99:mbedTLS/library/sha256.c **** #          error "A more recent GCC is required for MBEDTLS_SHA256_USE_ARMV8_A_CRYPTO_*"
 100:mbedTLS/library/sha256.c **** #        else
 101:mbedTLS/library/sha256.c **** #          pragma GCC push_options
 102:mbedTLS/library/sha256.c **** #          pragma GCC target ("arch=armv8-a+crypto")
 103:mbedTLS/library/sha256.c **** #          define MBEDTLS_POP_TARGET_PRAGMA
 104:mbedTLS/library/sha256.c **** #        endif
 105:mbedTLS/library/sha256.c **** #      else
 106:mbedTLS/library/sha256.c **** #        error "Only GCC and Clang supported for MBEDTLS_SHA256_USE_ARMV8_A_CRYPTO_*"
 107:mbedTLS/library/sha256.c **** #      endif
 108:mbedTLS/library/sha256.c **** #    endif
 109:mbedTLS/library/sha256.c **** /* *INDENT-ON* */
 110:mbedTLS/library/sha256.c **** 
 111:mbedTLS/library/sha256.c **** #  endif
 112:mbedTLS/library/sha256.c **** #  if defined(MBEDTLS_SHA256_USE_ARMV8_A_CRYPTO_IF_PRESENT)
 113:mbedTLS/library/sha256.c **** #    if defined(__unix__)
 114:mbedTLS/library/sha256.c **** #      if defined(__linux__)
 115:mbedTLS/library/sha256.c **** /* Our preferred method of detection is getauxval() */
 116:mbedTLS/library/sha256.c **** #        include <sys/auxv.h>
 117:mbedTLS/library/sha256.c **** /* These are not always defined via sys/auxv.h */
 118:mbedTLS/library/sha256.c **** #        if !defined(HWCAP_SHA2)
 119:mbedTLS/library/sha256.c **** #          define HWCAP_SHA2  (1 << 6)
 120:mbedTLS/library/sha256.c **** #        endif
 121:mbedTLS/library/sha256.c **** #        if !defined(HWCAP2_SHA2)
 122:mbedTLS/library/sha256.c **** #          define HWCAP2_SHA2 (1 << 3)
 123:mbedTLS/library/sha256.c **** #        endif
 124:mbedTLS/library/sha256.c **** #      endif
 125:mbedTLS/library/sha256.c **** /* Use SIGILL on Unix, and fall back to it on Linux */
 126:mbedTLS/library/sha256.c **** #      include <signal.h>
 127:mbedTLS/library/sha256.c **** #    endif
 128:mbedTLS/library/sha256.c **** #  endif
 129:mbedTLS/library/sha256.c **** #elif !defined(MBEDTLS_PLATFORM_IS_WINDOWS_ON_ARM64)
 130:mbedTLS/library/sha256.c **** #  undef MBEDTLS_SHA256_USE_ARMV8_A_CRYPTO_ONLY
 131:mbedTLS/library/sha256.c **** #  undef MBEDTLS_SHA256_USE_ARMV8_A_CRYPTO_IF_PRESENT
 132:mbedTLS/library/sha256.c **** #endif
 133:mbedTLS/library/sha256.c **** 
 134:mbedTLS/library/sha256.c **** #if defined(MBEDTLS_SHA256_USE_ARMV8_A_CRYPTO_IF_PRESENT)
 135:mbedTLS/library/sha256.c **** /*
 136:mbedTLS/library/sha256.c ****  * Capability detection code comes early, so we can disable
 137:mbedTLS/library/sha256.c ****  * MBEDTLS_SHA256_USE_ARMV8_A_CRYPTO_IF_PRESENT if no detection mechanism found
 138:mbedTLS/library/sha256.c ****  */
 139:mbedTLS/library/sha256.c **** #if defined(MBEDTLS_ARCH_IS_ARM64) && defined(HWCAP_SHA2)
 140:mbedTLS/library/sha256.c **** static int mbedtls_a64_crypto_sha256_determine_support(void)
 141:mbedTLS/library/sha256.c **** {
 142:mbedTLS/library/sha256.c ****     return (getauxval(AT_HWCAP) & HWCAP_SHA2) ? 1 : 0;
 143:mbedTLS/library/sha256.c **** }
 144:mbedTLS/library/sha256.c **** #elif defined(MBEDTLS_ARCH_IS_ARM32) && defined(HWCAP2_SHA2)
ARM GAS  C:\Users\clay0\AppData\Local\Temp\ccksdYIU.s 			page 4


 145:mbedTLS/library/sha256.c **** static int mbedtls_a64_crypto_sha256_determine_support(void)
 146:mbedTLS/library/sha256.c **** {
 147:mbedTLS/library/sha256.c ****     return (getauxval(AT_HWCAP2) & HWCAP2_SHA2) ? 1 : 0;
 148:mbedTLS/library/sha256.c **** }
 149:mbedTLS/library/sha256.c **** #elif defined(__APPLE__)
 150:mbedTLS/library/sha256.c **** static int mbedtls_a64_crypto_sha256_determine_support(void)
 151:mbedTLS/library/sha256.c **** {
 152:mbedTLS/library/sha256.c ****     return 1;
 153:mbedTLS/library/sha256.c **** }
 154:mbedTLS/library/sha256.c **** #elif defined(MBEDTLS_PLATFORM_IS_WINDOWS_ON_ARM64)
 155:mbedTLS/library/sha256.c **** #ifndef WIN32_LEAN_AND_MEAN
 156:mbedTLS/library/sha256.c **** #define WIN32_LEAN_AND_MEAN
 157:mbedTLS/library/sha256.c **** #endif
 158:mbedTLS/library/sha256.c **** #include <Windows.h>
 159:mbedTLS/library/sha256.c **** #include <processthreadsapi.h>
 160:mbedTLS/library/sha256.c **** 
 161:mbedTLS/library/sha256.c **** static int mbedtls_a64_crypto_sha256_determine_support(void)
 162:mbedTLS/library/sha256.c **** {
 163:mbedTLS/library/sha256.c ****     return IsProcessorFeaturePresent(PF_ARM_V8_CRYPTO_INSTRUCTIONS_AVAILABLE) ?
 164:mbedTLS/library/sha256.c ****            1 : 0;
 165:mbedTLS/library/sha256.c **** }
 166:mbedTLS/library/sha256.c **** #elif defined(__unix__) && defined(SIG_SETMASK)
 167:mbedTLS/library/sha256.c **** /* Detection with SIGILL, setjmp() and longjmp() */
 168:mbedTLS/library/sha256.c **** #include <signal.h>
 169:mbedTLS/library/sha256.c **** #include <setjmp.h>
 170:mbedTLS/library/sha256.c **** 
 171:mbedTLS/library/sha256.c **** static jmp_buf return_from_sigill;
 172:mbedTLS/library/sha256.c **** 
 173:mbedTLS/library/sha256.c **** /*
 174:mbedTLS/library/sha256.c ****  * Armv8-A SHA256 support detection via SIGILL
 175:mbedTLS/library/sha256.c ****  */
 176:mbedTLS/library/sha256.c **** static void sigill_handler(int signal)
 177:mbedTLS/library/sha256.c **** {
 178:mbedTLS/library/sha256.c ****     (void) signal;
 179:mbedTLS/library/sha256.c ****     longjmp(return_from_sigill, 1);
 180:mbedTLS/library/sha256.c **** }
 181:mbedTLS/library/sha256.c **** 
 182:mbedTLS/library/sha256.c **** static int mbedtls_a64_crypto_sha256_determine_support(void)
 183:mbedTLS/library/sha256.c **** {
 184:mbedTLS/library/sha256.c ****     struct sigaction old_action, new_action;
 185:mbedTLS/library/sha256.c **** 
 186:mbedTLS/library/sha256.c ****     sigset_t old_mask;
 187:mbedTLS/library/sha256.c ****     if (sigprocmask(0, NULL, &old_mask)) {
 188:mbedTLS/library/sha256.c ****         return 0;
 189:mbedTLS/library/sha256.c ****     }
 190:mbedTLS/library/sha256.c **** 
 191:mbedTLS/library/sha256.c ****     sigemptyset(&new_action.sa_mask);
 192:mbedTLS/library/sha256.c ****     new_action.sa_flags = 0;
 193:mbedTLS/library/sha256.c ****     new_action.sa_handler = sigill_handler;
 194:mbedTLS/library/sha256.c **** 
 195:mbedTLS/library/sha256.c ****     sigaction(SIGILL, &new_action, &old_action);
 196:mbedTLS/library/sha256.c **** 
 197:mbedTLS/library/sha256.c ****     static int ret = 0;
 198:mbedTLS/library/sha256.c **** 
 199:mbedTLS/library/sha256.c ****     if (setjmp(return_from_sigill) == 0) {         /* First return only */
 200:mbedTLS/library/sha256.c ****         /* If this traps, we will return a second time from setjmp() with 1 */
 201:mbedTLS/library/sha256.c **** #if defined(MBEDTLS_ARCH_IS_ARM64)
ARM GAS  C:\Users\clay0\AppData\Local\Temp\ccksdYIU.s 			page 5


 202:mbedTLS/library/sha256.c ****         asm volatile ("sha256h q0, q0, v0.4s" : : : "v0");
 203:mbedTLS/library/sha256.c **** #else
 204:mbedTLS/library/sha256.c ****         asm volatile ("sha256h.32 q0, q0, q0" : : : "q0");
 205:mbedTLS/library/sha256.c **** #endif
 206:mbedTLS/library/sha256.c ****         ret = 1;
 207:mbedTLS/library/sha256.c ****     }
 208:mbedTLS/library/sha256.c **** 
 209:mbedTLS/library/sha256.c ****     sigaction(SIGILL, &old_action, NULL);
 210:mbedTLS/library/sha256.c ****     sigprocmask(SIG_SETMASK, &old_mask, NULL);
 211:mbedTLS/library/sha256.c **** 
 212:mbedTLS/library/sha256.c ****     return ret;
 213:mbedTLS/library/sha256.c **** }
 214:mbedTLS/library/sha256.c **** #else
 215:mbedTLS/library/sha256.c **** #warning "No mechanism to detect ARMV8_CRYPTO found, using C code only"
 216:mbedTLS/library/sha256.c **** #undef MBEDTLS_SHA256_USE_ARMV8_A_CRYPTO_IF_PRESENT
 217:mbedTLS/library/sha256.c **** #endif  /* HWCAP_SHA2, __APPLE__, __unix__ && SIG_SETMASK */
 218:mbedTLS/library/sha256.c **** 
 219:mbedTLS/library/sha256.c **** #endif  /* MBEDTLS_SHA256_USE_ARMV8_A_CRYPTO_IF_PRESENT */
 220:mbedTLS/library/sha256.c **** 
 221:mbedTLS/library/sha256.c **** #if !defined(MBEDTLS_SHA256_ALT)
 222:mbedTLS/library/sha256.c **** 
 223:mbedTLS/library/sha256.c **** #define SHA256_BLOCK_SIZE 64
 224:mbedTLS/library/sha256.c **** 
 225:mbedTLS/library/sha256.c **** void mbedtls_sha256_init(mbedtls_sha256_context *ctx)
 226:mbedTLS/library/sha256.c **** {
  29              		.loc 1 226 1
  30              		.cfi_startproc
  31              		@ args = 0, pretend = 0, frame = 8
  32              		@ frame_needed = 1, uses_anonymous_args = 0
  33 0000 80B5     		push	{r7, lr}
  34              	.LCFI0:
  35              		.cfi_def_cfa_offset 8
  36              		.cfi_offset 7, -8
  37              		.cfi_offset 14, -4
  38 0002 82B0     		sub	sp, sp, #8
  39              	.LCFI1:
  40              		.cfi_def_cfa_offset 16
  41 0004 00AF     		add	r7, sp, #0
  42              	.LCFI2:
  43              		.cfi_def_cfa_register 7
  44 0006 7860     		str	r0, [r7, #4]
 227:mbedTLS/library/sha256.c ****     memset(ctx, 0, sizeof(mbedtls_sha256_context));
  45              		.loc 1 227 5
  46 0008 6C22     		movs	r2, #108
  47 000a 0021     		movs	r1, #0
  48 000c 7868     		ldr	r0, [r7, #4]
  49 000e FFF7FEFF 		bl	memset
 228:mbedTLS/library/sha256.c **** }
  50              		.loc 1 228 1
  51 0012 00BF     		nop
  52 0014 0837     		adds	r7, r7, #8
  53              	.LCFI3:
  54              		.cfi_def_cfa_offset 8
  55 0016 BD46     		mov	sp, r7
  56              	.LCFI4:
  57              		.cfi_def_cfa_register 13
  58              		@ sp needed
ARM GAS  C:\Users\clay0\AppData\Local\Temp\ccksdYIU.s 			page 6


  59 0018 80BD     		pop	{r7, pc}
  60              		.cfi_endproc
  61              	.LFE14:
  63              		.section	.text.mbedtls_sha256_free,"ax",%progbits
  64              		.align	1
  65              		.global	mbedtls_sha256_free
  66              		.syntax unified
  67              		.thumb
  68              		.thumb_func
  70              	mbedtls_sha256_free:
  71              	.LFB15:
 229:mbedTLS/library/sha256.c **** 
 230:mbedTLS/library/sha256.c **** void mbedtls_sha256_free(mbedtls_sha256_context *ctx)
 231:mbedTLS/library/sha256.c **** {
  72              		.loc 1 231 1
  73              		.cfi_startproc
  74              		@ args = 0, pretend = 0, frame = 8
  75              		@ frame_needed = 1, uses_anonymous_args = 0
  76 0000 80B5     		push	{r7, lr}
  77              	.LCFI5:
  78              		.cfi_def_cfa_offset 8
  79              		.cfi_offset 7, -8
  80              		.cfi_offset 14, -4
  81 0002 82B0     		sub	sp, sp, #8
  82              	.LCFI6:
  83              		.cfi_def_cfa_offset 16
  84 0004 00AF     		add	r7, sp, #0
  85              	.LCFI7:
  86              		.cfi_def_cfa_register 7
  87 0006 7860     		str	r0, [r7, #4]
 232:mbedTLS/library/sha256.c ****     if (ctx == NULL) {
  88              		.loc 1 232 8
  89 0008 7B68     		ldr	r3, [r7, #4]
  90 000a 002B     		cmp	r3, #0
  91 000c 04D0     		beq	.L5
 233:mbedTLS/library/sha256.c ****         return;
 234:mbedTLS/library/sha256.c ****     }
 235:mbedTLS/library/sha256.c **** 
 236:mbedTLS/library/sha256.c ****     mbedtls_platform_zeroize(ctx, sizeof(mbedtls_sha256_context));
  92              		.loc 1 236 5
  93 000e 6C21     		movs	r1, #108
  94 0010 7868     		ldr	r0, [r7, #4]
  95 0012 FFF7FEFF 		bl	mbedtls_platform_zeroize
  96 0016 00E0     		b	.L2
  97              	.L5:
 233:mbedTLS/library/sha256.c ****         return;
  98              		.loc 1 233 9
  99 0018 00BF     		nop
 100              	.L2:
 237:mbedTLS/library/sha256.c **** }
 101              		.loc 1 237 1
 102 001a 0837     		adds	r7, r7, #8
 103              	.LCFI8:
 104              		.cfi_def_cfa_offset 8
 105 001c BD46     		mov	sp, r7
 106              	.LCFI9:
 107              		.cfi_def_cfa_register 13
ARM GAS  C:\Users\clay0\AppData\Local\Temp\ccksdYIU.s 			page 7


 108              		@ sp needed
 109 001e 80BD     		pop	{r7, pc}
 110              		.cfi_endproc
 111              	.LFE15:
 113              		.section	.text.mbedtls_sha256_clone,"ax",%progbits
 114              		.align	1
 115              		.global	mbedtls_sha256_clone
 116              		.syntax unified
 117              		.thumb
 118              		.thumb_func
 120              	mbedtls_sha256_clone:
 121              	.LFB16:
 238:mbedTLS/library/sha256.c **** 
 239:mbedTLS/library/sha256.c **** void mbedtls_sha256_clone(mbedtls_sha256_context *dst,
 240:mbedTLS/library/sha256.c ****                           const mbedtls_sha256_context *src)
 241:mbedTLS/library/sha256.c **** {
 122              		.loc 1 241 1
 123              		.cfi_startproc
 124              		@ args = 0, pretend = 0, frame = 8
 125              		@ frame_needed = 1, uses_anonymous_args = 0
 126 0000 80B5     		push	{r7, lr}
 127              	.LCFI10:
 128              		.cfi_def_cfa_offset 8
 129              		.cfi_offset 7, -8
 130              		.cfi_offset 14, -4
 131 0002 82B0     		sub	sp, sp, #8
 132              	.LCFI11:
 133              		.cfi_def_cfa_offset 16
 134 0004 00AF     		add	r7, sp, #0
 135              	.LCFI12:
 136              		.cfi_def_cfa_register 7
 137 0006 7860     		str	r0, [r7, #4]
 138 0008 3960     		str	r1, [r7]
 242:mbedTLS/library/sha256.c ****     *dst = *src;
 139              		.loc 1 242 10
 140 000a 7A68     		ldr	r2, [r7, #4]
 141 000c 3B68     		ldr	r3, [r7]
 142 000e 1046     		mov	r0, r2
 143 0010 1946     		mov	r1, r3
 144 0012 6C23     		movs	r3, #108
 145 0014 1A46     		mov	r2, r3
 146 0016 FFF7FEFF 		bl	memcpy
 243:mbedTLS/library/sha256.c **** }
 147              		.loc 1 243 1
 148 001a 00BF     		nop
 149 001c 0837     		adds	r7, r7, #8
 150              	.LCFI13:
 151              		.cfi_def_cfa_offset 8
 152 001e BD46     		mov	sp, r7
 153              	.LCFI14:
 154              		.cfi_def_cfa_register 13
 155              		@ sp needed
 156 0020 80BD     		pop	{r7, pc}
 157              		.cfi_endproc
 158              	.LFE16:
 160              		.section	.text.mbedtls_sha256_starts,"ax",%progbits
 161              		.align	1
ARM GAS  C:\Users\clay0\AppData\Local\Temp\ccksdYIU.s 			page 8


 162              		.global	mbedtls_sha256_starts
 163              		.syntax unified
 164              		.thumb
 165              		.thumb_func
 167              	mbedtls_sha256_starts:
 168              	.LFB17:
 244:mbedTLS/library/sha256.c **** 
 245:mbedTLS/library/sha256.c **** /*
 246:mbedTLS/library/sha256.c ****  * SHA-256 context setup
 247:mbedTLS/library/sha256.c ****  */
 248:mbedTLS/library/sha256.c **** int mbedtls_sha256_starts(mbedtls_sha256_context *ctx, int is224)
 249:mbedTLS/library/sha256.c **** {
 169              		.loc 1 249 1
 170              		.cfi_startproc
 171              		@ args = 0, pretend = 0, frame = 8
 172              		@ frame_needed = 1, uses_anonymous_args = 0
 173              		@ link register save eliminated.
 174 0000 80B4     		push	{r7}
 175              	.LCFI15:
 176              		.cfi_def_cfa_offset 4
 177              		.cfi_offset 7, -4
 178 0002 83B0     		sub	sp, sp, #12
 179              	.LCFI16:
 180              		.cfi_def_cfa_offset 16
 181 0004 00AF     		add	r7, sp, #0
 182              	.LCFI17:
 183              		.cfi_def_cfa_register 7
 184 0006 7860     		str	r0, [r7, #4]
 185 0008 3960     		str	r1, [r7]
 250:mbedTLS/library/sha256.c **** #if defined(MBEDTLS_SHA224_C) && defined(MBEDTLS_SHA256_C)
 251:mbedTLS/library/sha256.c ****     if (is224 != 0 && is224 != 1) {
 186              		.loc 1 251 8
 187 000a 3B68     		ldr	r3, [r7]
 188 000c 002B     		cmp	r3, #0
 189 000e 05D0     		beq	.L8
 190              		.loc 1 251 20 discriminator 1
 191 0010 3B68     		ldr	r3, [r7]
 192 0012 012B     		cmp	r3, #1
 193 0014 02D0     		beq	.L8
 252:mbedTLS/library/sha256.c ****         return MBEDTLS_ERR_SHA256_BAD_INPUT_DATA;
 194              		.loc 1 252 16
 195 0016 6FF07303 		mvn	r3, #115
 196 001a 3DE0     		b	.L9
 197              	.L8:
 253:mbedTLS/library/sha256.c ****     }
 254:mbedTLS/library/sha256.c **** #elif defined(MBEDTLS_SHA256_C)
 255:mbedTLS/library/sha256.c ****     if (is224 != 0) {
 256:mbedTLS/library/sha256.c ****         return MBEDTLS_ERR_SHA256_BAD_INPUT_DATA;
 257:mbedTLS/library/sha256.c ****     }
 258:mbedTLS/library/sha256.c **** #else /* defined MBEDTLS_SHA224_C only */
 259:mbedTLS/library/sha256.c ****     if (is224 == 0) {
 260:mbedTLS/library/sha256.c ****         return MBEDTLS_ERR_SHA256_BAD_INPUT_DATA;
 261:mbedTLS/library/sha256.c ****     }
 262:mbedTLS/library/sha256.c **** #endif
 263:mbedTLS/library/sha256.c **** 
 264:mbedTLS/library/sha256.c ****     ctx->total[0] = 0;
 198              		.loc 1 264 19
ARM GAS  C:\Users\clay0\AppData\Local\Temp\ccksdYIU.s 			page 9


 199 001c 7B68     		ldr	r3, [r7, #4]
 200 001e 0022     		movs	r2, #0
 201 0020 1A64     		str	r2, [r3, #64]
 265:mbedTLS/library/sha256.c ****     ctx->total[1] = 0;
 202              		.loc 1 265 19
 203 0022 7B68     		ldr	r3, [r7, #4]
 204 0024 0022     		movs	r2, #0
 205 0026 5A64     		str	r2, [r3, #68]
 266:mbedTLS/library/sha256.c **** 
 267:mbedTLS/library/sha256.c ****     if (is224 == 0) {
 206              		.loc 1 267 8
 207 0028 3B68     		ldr	r3, [r7]
 208 002a 002B     		cmp	r3, #0
 209 002c 18D1     		bne	.L10
 268:mbedTLS/library/sha256.c **** #if defined(MBEDTLS_SHA256_C)
 269:mbedTLS/library/sha256.c ****         ctx->state[0] = 0x6A09E667;
 210              		.loc 1 269 23
 211 002e 7B68     		ldr	r3, [r7, #4]
 212 0030 1C4A     		ldr	r2, .L12
 213 0032 9A64     		str	r2, [r3, #72]
 270:mbedTLS/library/sha256.c ****         ctx->state[1] = 0xBB67AE85;
 214              		.loc 1 270 23
 215 0034 7B68     		ldr	r3, [r7, #4]
 216 0036 1C4A     		ldr	r2, .L12+4
 217 0038 DA64     		str	r2, [r3, #76]
 271:mbedTLS/library/sha256.c ****         ctx->state[2] = 0x3C6EF372;
 218              		.loc 1 271 23
 219 003a 7B68     		ldr	r3, [r7, #4]
 220 003c 1B4A     		ldr	r2, .L12+8
 221 003e 1A65     		str	r2, [r3, #80]
 272:mbedTLS/library/sha256.c ****         ctx->state[3] = 0xA54FF53A;
 222              		.loc 1 272 23
 223 0040 7B68     		ldr	r3, [r7, #4]
 224 0042 1B4A     		ldr	r2, .L12+12
 225 0044 5A65     		str	r2, [r3, #84]
 273:mbedTLS/library/sha256.c ****         ctx->state[4] = 0x510E527F;
 226              		.loc 1 273 23
 227 0046 7B68     		ldr	r3, [r7, #4]
 228 0048 1A4A     		ldr	r2, .L12+16
 229 004a 9A65     		str	r2, [r3, #88]
 274:mbedTLS/library/sha256.c ****         ctx->state[5] = 0x9B05688C;
 230              		.loc 1 274 23
 231 004c 7B68     		ldr	r3, [r7, #4]
 232 004e 1A4A     		ldr	r2, .L12+20
 233 0050 DA65     		str	r2, [r3, #92]
 275:mbedTLS/library/sha256.c ****         ctx->state[6] = 0x1F83D9AB;
 234              		.loc 1 275 23
 235 0052 7B68     		ldr	r3, [r7, #4]
 236 0054 194A     		ldr	r2, .L12+24
 237 0056 1A66     		str	r2, [r3, #96]
 276:mbedTLS/library/sha256.c ****         ctx->state[7] = 0x5BE0CD19;
 238              		.loc 1 276 23
 239 0058 7B68     		ldr	r3, [r7, #4]
 240 005a 194A     		ldr	r2, .L12+28
 241 005c 5A66     		str	r2, [r3, #100]
 242 005e 17E0     		b	.L11
 243              	.L10:
ARM GAS  C:\Users\clay0\AppData\Local\Temp\ccksdYIU.s 			page 10


 277:mbedTLS/library/sha256.c **** #endif
 278:mbedTLS/library/sha256.c ****     } else {
 279:mbedTLS/library/sha256.c **** #if defined(MBEDTLS_SHA224_C)
 280:mbedTLS/library/sha256.c ****         ctx->state[0] = 0xC1059ED8;
 244              		.loc 1 280 23
 245 0060 7B68     		ldr	r3, [r7, #4]
 246 0062 184A     		ldr	r2, .L12+32
 247 0064 9A64     		str	r2, [r3, #72]
 281:mbedTLS/library/sha256.c ****         ctx->state[1] = 0x367CD507;
 248              		.loc 1 281 23
 249 0066 7B68     		ldr	r3, [r7, #4]
 250 0068 174A     		ldr	r2, .L12+36
 251 006a DA64     		str	r2, [r3, #76]
 282:mbedTLS/library/sha256.c ****         ctx->state[2] = 0x3070DD17;
 252              		.loc 1 282 23
 253 006c 7B68     		ldr	r3, [r7, #4]
 254 006e 174A     		ldr	r2, .L12+40
 255 0070 1A65     		str	r2, [r3, #80]
 283:mbedTLS/library/sha256.c ****         ctx->state[3] = 0xF70E5939;
 256              		.loc 1 283 23
 257 0072 7B68     		ldr	r3, [r7, #4]
 258 0074 164A     		ldr	r2, .L12+44
 259 0076 5A65     		str	r2, [r3, #84]
 284:mbedTLS/library/sha256.c ****         ctx->state[4] = 0xFFC00B31;
 260              		.loc 1 284 23
 261 0078 7B68     		ldr	r3, [r7, #4]
 262 007a 164A     		ldr	r2, .L12+48
 263 007c 9A65     		str	r2, [r3, #88]
 285:mbedTLS/library/sha256.c ****         ctx->state[5] = 0x68581511;
 264              		.loc 1 285 23
 265 007e 7B68     		ldr	r3, [r7, #4]
 266 0080 154A     		ldr	r2, .L12+52
 267 0082 DA65     		str	r2, [r3, #92]
 286:mbedTLS/library/sha256.c ****         ctx->state[6] = 0x64F98FA7;
 268              		.loc 1 286 23
 269 0084 7B68     		ldr	r3, [r7, #4]
 270 0086 154A     		ldr	r2, .L12+56
 271 0088 1A66     		str	r2, [r3, #96]
 287:mbedTLS/library/sha256.c ****         ctx->state[7] = 0xBEFA4FA4;
 272              		.loc 1 287 23
 273 008a 7B68     		ldr	r3, [r7, #4]
 274 008c 144A     		ldr	r2, .L12+60
 275 008e 5A66     		str	r2, [r3, #100]
 276              	.L11:
 288:mbedTLS/library/sha256.c **** #endif
 289:mbedTLS/library/sha256.c ****     }
 290:mbedTLS/library/sha256.c **** 
 291:mbedTLS/library/sha256.c **** #if defined(MBEDTLS_SHA224_C)
 292:mbedTLS/library/sha256.c ****     ctx->is224 = is224;
 277              		.loc 1 292 16
 278 0090 7B68     		ldr	r3, [r7, #4]
 279 0092 3A68     		ldr	r2, [r7]
 280 0094 9A66     		str	r2, [r3, #104]
 293:mbedTLS/library/sha256.c **** #endif
 294:mbedTLS/library/sha256.c **** 
 295:mbedTLS/library/sha256.c ****     return 0;
 281              		.loc 1 295 12
ARM GAS  C:\Users\clay0\AppData\Local\Temp\ccksdYIU.s 			page 11


 282 0096 0023     		movs	r3, #0
 283              	.L9:
 296:mbedTLS/library/sha256.c **** }
 284              		.loc 1 296 1
 285 0098 1846     		mov	r0, r3
 286 009a 0C37     		adds	r7, r7, #12
 287              	.LCFI18:
 288              		.cfi_def_cfa_offset 4
 289 009c BD46     		mov	sp, r7
 290              	.LCFI19:
 291              		.cfi_def_cfa_register 13
 292              		@ sp needed
 293 009e 5DF8047B 		ldr	r7, [sp], #4
 294              	.LCFI20:
 295              		.cfi_restore 7
 296              		.cfi_def_cfa_offset 0
 297 00a2 7047     		bx	lr
 298              	.L13:
 299              		.align	2
 300              	.L12:
 301 00a4 67E6096A 		.word	1779033703
 302 00a8 85AE67BB 		.word	-1150833019
 303 00ac 72F36E3C 		.word	1013904242
 304 00b0 3AF54FA5 		.word	-1521486534
 305 00b4 7F520E51 		.word	1359893119
 306 00b8 8C68059B 		.word	-1694144372
 307 00bc ABD9831F 		.word	528734635
 308 00c0 19CDE05B 		.word	1541459225
 309 00c4 D89E05C1 		.word	-1056596264
 310 00c8 07D57C36 		.word	914150663
 311 00cc 17DD7030 		.word	812702999
 312 00d0 39590EF7 		.word	-150054599
 313 00d4 310BC0FF 		.word	-4191439
 314 00d8 11155868 		.word	1750603025
 315 00dc A78FF964 		.word	1694076839
 316 00e0 A44FFABE 		.word	-1090891868
 317              		.cfi_endproc
 318              	.LFE17:
 320              		.section	.rodata.K,"a"
 321              		.align	2
 324              	K:
 325 0000 982F8A42 		.word	1116352408
 326 0004 91443771 		.word	1899447441
 327 0008 CFFBC0B5 		.word	-1245643825
 328 000c A5DBB5E9 		.word	-373957723
 329 0010 5BC25639 		.word	961987163
 330 0014 F111F159 		.word	1508970993
 331 0018 A4823F92 		.word	-1841331548
 332 001c D55E1CAB 		.word	-1424204075
 333 0020 98AA07D8 		.word	-670586216
 334 0024 015B8312 		.word	310598401
 335 0028 BE853124 		.word	607225278
 336 002c C37D0C55 		.word	1426881987
 337 0030 745DBE72 		.word	1925078388
 338 0034 FEB1DE80 		.word	-2132889090
 339 0038 A706DC9B 		.word	-1680079193
 340 003c 74F19BC1 		.word	-1046744716
ARM GAS  C:\Users\clay0\AppData\Local\Temp\ccksdYIU.s 			page 12


 341 0040 C1699BE4 		.word	-459576895
 342 0044 8647BEEF 		.word	-272742522
 343 0048 C69DC10F 		.word	264347078
 344 004c CCA10C24 		.word	604807628
 345 0050 6F2CE92D 		.word	770255983
 346 0054 AA84744A 		.word	1249150122
 347 0058 DCA9B05C 		.word	1555081692
 348 005c DA88F976 		.word	1996064986
 349 0060 52513E98 		.word	-1740746414
 350 0064 6DC631A8 		.word	-1473132947
 351 0068 C82703B0 		.word	-1341970488
 352 006c C77F59BF 		.word	-1084653625
 353 0070 F30BE0C6 		.word	-958395405
 354 0074 4791A7D5 		.word	-710438585
 355 0078 5163CA06 		.word	113926993
 356 007c 67292914 		.word	338241895
 357 0080 850AB727 		.word	666307205
 358 0084 38211B2E 		.word	773529912
 359 0088 FC6D2C4D 		.word	1294757372
 360 008c 130D3853 		.word	1396182291
 361 0090 54730A65 		.word	1695183700
 362 0094 BB0A6A76 		.word	1986661051
 363 0098 2EC9C281 		.word	-2117940946
 364 009c 852C7292 		.word	-1838011259
 365 00a0 A1E8BFA2 		.word	-1564481375
 366 00a4 4B661AA8 		.word	-1474664885
 367 00a8 708B4BC2 		.word	-1035236496
 368 00ac A3516CC7 		.word	-949202525
 369 00b0 19E892D1 		.word	-778901479
 370 00b4 240699D6 		.word	-694614492
 371 00b8 85350EF4 		.word	-200395387
 372 00bc 70A06A10 		.word	275423344
 373 00c0 16C1A419 		.word	430227734
 374 00c4 086C371E 		.word	506948616
 375 00c8 4C774827 		.word	659060556
 376 00cc B5BCB034 		.word	883997877
 377 00d0 B30C1C39 		.word	958139571
 378 00d4 4AAAD84E 		.word	1322822218
 379 00d8 4FCA9C5B 		.word	1537002063
 380 00dc F36F2E68 		.word	1747873779
 381 00e0 EE828F74 		.word	1955562222
 382 00e4 6F63A578 		.word	2024104815
 383 00e8 1478C884 		.word	-2067236844
 384 00ec 0802C78C 		.word	-1933114872
 385 00f0 FAFFBE90 		.word	-1866530822
 386 00f4 EB6C50A4 		.word	-1538233109
 387 00f8 F7A3F9BE 		.word	-1090935817
 388 00fc F27871C6 		.word	-965641998
 389              		.section	.text.mbedtls_internal_sha256_process,"ax",%progbits
 390              		.align	1
 391              		.global	mbedtls_internal_sha256_process
 392              		.syntax unified
 393              		.thumb
 394              		.thumb_func
 396              	mbedtls_internal_sha256_process:
 397              	.LFB18:
 297:mbedTLS/library/sha256.c **** 
ARM GAS  C:\Users\clay0\AppData\Local\Temp\ccksdYIU.s 			page 13


 298:mbedTLS/library/sha256.c **** #if !defined(MBEDTLS_SHA256_PROCESS_ALT)
 299:mbedTLS/library/sha256.c **** static const uint32_t K[] =
 300:mbedTLS/library/sha256.c **** {
 301:mbedTLS/library/sha256.c ****     0x428A2F98, 0x71374491, 0xB5C0FBCF, 0xE9B5DBA5,
 302:mbedTLS/library/sha256.c ****     0x3956C25B, 0x59F111F1, 0x923F82A4, 0xAB1C5ED5,
 303:mbedTLS/library/sha256.c ****     0xD807AA98, 0x12835B01, 0x243185BE, 0x550C7DC3,
 304:mbedTLS/library/sha256.c ****     0x72BE5D74, 0x80DEB1FE, 0x9BDC06A7, 0xC19BF174,
 305:mbedTLS/library/sha256.c ****     0xE49B69C1, 0xEFBE4786, 0x0FC19DC6, 0x240CA1CC,
 306:mbedTLS/library/sha256.c ****     0x2DE92C6F, 0x4A7484AA, 0x5CB0A9DC, 0x76F988DA,
 307:mbedTLS/library/sha256.c ****     0x983E5152, 0xA831C66D, 0xB00327C8, 0xBF597FC7,
 308:mbedTLS/library/sha256.c ****     0xC6E00BF3, 0xD5A79147, 0x06CA6351, 0x14292967,
 309:mbedTLS/library/sha256.c ****     0x27B70A85, 0x2E1B2138, 0x4D2C6DFC, 0x53380D13,
 310:mbedTLS/library/sha256.c ****     0x650A7354, 0x766A0ABB, 0x81C2C92E, 0x92722C85,
 311:mbedTLS/library/sha256.c ****     0xA2BFE8A1, 0xA81A664B, 0xC24B8B70, 0xC76C51A3,
 312:mbedTLS/library/sha256.c ****     0xD192E819, 0xD6990624, 0xF40E3585, 0x106AA070,
 313:mbedTLS/library/sha256.c ****     0x19A4C116, 0x1E376C08, 0x2748774C, 0x34B0BCB5,
 314:mbedTLS/library/sha256.c ****     0x391C0CB3, 0x4ED8AA4A, 0x5B9CCA4F, 0x682E6FF3,
 315:mbedTLS/library/sha256.c ****     0x748F82EE, 0x78A5636F, 0x84C87814, 0x8CC70208,
 316:mbedTLS/library/sha256.c ****     0x90BEFFFA, 0xA4506CEB, 0xBEF9A3F7, 0xC67178F2,
 317:mbedTLS/library/sha256.c **** };
 318:mbedTLS/library/sha256.c **** 
 319:mbedTLS/library/sha256.c **** #endif
 320:mbedTLS/library/sha256.c **** 
 321:mbedTLS/library/sha256.c **** #if defined(MBEDTLS_SHA256_USE_ARMV8_A_CRYPTO_IF_PRESENT) || \
 322:mbedTLS/library/sha256.c ****     defined(MBEDTLS_SHA256_USE_ARMV8_A_CRYPTO_ONLY)
 323:mbedTLS/library/sha256.c **** 
 324:mbedTLS/library/sha256.c **** #if defined(MBEDTLS_SHA256_USE_ARMV8_A_CRYPTO_ONLY)
 325:mbedTLS/library/sha256.c **** #  define mbedtls_internal_sha256_process_many_a64_crypto mbedtls_internal_sha256_process_many
 326:mbedTLS/library/sha256.c **** #  define mbedtls_internal_sha256_process_a64_crypto      mbedtls_internal_sha256_process
 327:mbedTLS/library/sha256.c **** #endif
 328:mbedTLS/library/sha256.c **** 
 329:mbedTLS/library/sha256.c **** static size_t mbedtls_internal_sha256_process_many_a64_crypto(
 330:mbedTLS/library/sha256.c ****     mbedtls_sha256_context *ctx, const uint8_t *msg, size_t len)
 331:mbedTLS/library/sha256.c **** {
 332:mbedTLS/library/sha256.c ****     uint32x4_t abcd = vld1q_u32(&ctx->state[0]);
 333:mbedTLS/library/sha256.c ****     uint32x4_t efgh = vld1q_u32(&ctx->state[4]);
 334:mbedTLS/library/sha256.c **** 
 335:mbedTLS/library/sha256.c ****     size_t processed = 0;
 336:mbedTLS/library/sha256.c **** 
 337:mbedTLS/library/sha256.c ****     for (;
 338:mbedTLS/library/sha256.c ****          len >= SHA256_BLOCK_SIZE;
 339:mbedTLS/library/sha256.c ****          processed += SHA256_BLOCK_SIZE,
 340:mbedTLS/library/sha256.c ****          msg += SHA256_BLOCK_SIZE,
 341:mbedTLS/library/sha256.c ****          len -= SHA256_BLOCK_SIZE) {
 342:mbedTLS/library/sha256.c ****         uint32x4_t tmp, abcd_prev;
 343:mbedTLS/library/sha256.c **** 
 344:mbedTLS/library/sha256.c ****         uint32x4_t abcd_orig = abcd;
 345:mbedTLS/library/sha256.c ****         uint32x4_t efgh_orig = efgh;
 346:mbedTLS/library/sha256.c **** 
 347:mbedTLS/library/sha256.c ****         uint32x4_t sched0 = vreinterpretq_u32_u8(vld1q_u8(msg + 16 * 0));
 348:mbedTLS/library/sha256.c ****         uint32x4_t sched1 = vreinterpretq_u32_u8(vld1q_u8(msg + 16 * 1));
 349:mbedTLS/library/sha256.c ****         uint32x4_t sched2 = vreinterpretq_u32_u8(vld1q_u8(msg + 16 * 2));
 350:mbedTLS/library/sha256.c ****         uint32x4_t sched3 = vreinterpretq_u32_u8(vld1q_u8(msg + 16 * 3));
 351:mbedTLS/library/sha256.c **** 
 352:mbedTLS/library/sha256.c **** #if __BYTE_ORDER__ == __ORDER_LITTLE_ENDIAN__  /* Will be true if not defined */
 353:mbedTLS/library/sha256.c ****                                                /* Untested on BE */
 354:mbedTLS/library/sha256.c ****         sched0 = vreinterpretq_u32_u8(vrev32q_u8(vreinterpretq_u8_u32(sched0)));
ARM GAS  C:\Users\clay0\AppData\Local\Temp\ccksdYIU.s 			page 14


 355:mbedTLS/library/sha256.c ****         sched1 = vreinterpretq_u32_u8(vrev32q_u8(vreinterpretq_u8_u32(sched1)));
 356:mbedTLS/library/sha256.c ****         sched2 = vreinterpretq_u32_u8(vrev32q_u8(vreinterpretq_u8_u32(sched2)));
 357:mbedTLS/library/sha256.c ****         sched3 = vreinterpretq_u32_u8(vrev32q_u8(vreinterpretq_u8_u32(sched3)));
 358:mbedTLS/library/sha256.c **** #endif
 359:mbedTLS/library/sha256.c **** 
 360:mbedTLS/library/sha256.c ****         /* Rounds 0 to 3 */
 361:mbedTLS/library/sha256.c ****         tmp = vaddq_u32(sched0, vld1q_u32(&K[0]));
 362:mbedTLS/library/sha256.c ****         abcd_prev = abcd;
 363:mbedTLS/library/sha256.c ****         abcd = vsha256hq_u32(abcd_prev, efgh, tmp);
 364:mbedTLS/library/sha256.c ****         efgh = vsha256h2q_u32(efgh, abcd_prev, tmp);
 365:mbedTLS/library/sha256.c **** 
 366:mbedTLS/library/sha256.c ****         /* Rounds 4 to 7 */
 367:mbedTLS/library/sha256.c ****         tmp = vaddq_u32(sched1, vld1q_u32(&K[4]));
 368:mbedTLS/library/sha256.c ****         abcd_prev = abcd;
 369:mbedTLS/library/sha256.c ****         abcd = vsha256hq_u32(abcd_prev, efgh, tmp);
 370:mbedTLS/library/sha256.c ****         efgh = vsha256h2q_u32(efgh, abcd_prev, tmp);
 371:mbedTLS/library/sha256.c **** 
 372:mbedTLS/library/sha256.c ****         /* Rounds 8 to 11 */
 373:mbedTLS/library/sha256.c ****         tmp = vaddq_u32(sched2, vld1q_u32(&K[8]));
 374:mbedTLS/library/sha256.c ****         abcd_prev = abcd;
 375:mbedTLS/library/sha256.c ****         abcd = vsha256hq_u32(abcd_prev, efgh, tmp);
 376:mbedTLS/library/sha256.c ****         efgh = vsha256h2q_u32(efgh, abcd_prev, tmp);
 377:mbedTLS/library/sha256.c **** 
 378:mbedTLS/library/sha256.c ****         /* Rounds 12 to 15 */
 379:mbedTLS/library/sha256.c ****         tmp = vaddq_u32(sched3, vld1q_u32(&K[12]));
 380:mbedTLS/library/sha256.c ****         abcd_prev = abcd;
 381:mbedTLS/library/sha256.c ****         abcd = vsha256hq_u32(abcd_prev, efgh, tmp);
 382:mbedTLS/library/sha256.c ****         efgh = vsha256h2q_u32(efgh, abcd_prev, tmp);
 383:mbedTLS/library/sha256.c **** 
 384:mbedTLS/library/sha256.c ****         for (int t = 16; t < 64; t += 16) {
 385:mbedTLS/library/sha256.c ****             /* Rounds t to t + 3 */
 386:mbedTLS/library/sha256.c ****             sched0 = vsha256su1q_u32(vsha256su0q_u32(sched0, sched1), sched2, sched3);
 387:mbedTLS/library/sha256.c ****             tmp = vaddq_u32(sched0, vld1q_u32(&K[t]));
 388:mbedTLS/library/sha256.c ****             abcd_prev = abcd;
 389:mbedTLS/library/sha256.c ****             abcd = vsha256hq_u32(abcd_prev, efgh, tmp);
 390:mbedTLS/library/sha256.c ****             efgh = vsha256h2q_u32(efgh, abcd_prev, tmp);
 391:mbedTLS/library/sha256.c **** 
 392:mbedTLS/library/sha256.c ****             /* Rounds t + 4 to t + 7 */
 393:mbedTLS/library/sha256.c ****             sched1 = vsha256su1q_u32(vsha256su0q_u32(sched1, sched2), sched3, sched0);
 394:mbedTLS/library/sha256.c ****             tmp = vaddq_u32(sched1, vld1q_u32(&K[t + 4]));
 395:mbedTLS/library/sha256.c ****             abcd_prev = abcd;
 396:mbedTLS/library/sha256.c ****             abcd = vsha256hq_u32(abcd_prev, efgh, tmp);
 397:mbedTLS/library/sha256.c ****             efgh = vsha256h2q_u32(efgh, abcd_prev, tmp);
 398:mbedTLS/library/sha256.c **** 
 399:mbedTLS/library/sha256.c ****             /* Rounds t + 8 to t + 11 */
 400:mbedTLS/library/sha256.c ****             sched2 = vsha256su1q_u32(vsha256su0q_u32(sched2, sched3), sched0, sched1);
 401:mbedTLS/library/sha256.c ****             tmp = vaddq_u32(sched2, vld1q_u32(&K[t + 8]));
 402:mbedTLS/library/sha256.c ****             abcd_prev = abcd;
 403:mbedTLS/library/sha256.c ****             abcd = vsha256hq_u32(abcd_prev, efgh, tmp);
 404:mbedTLS/library/sha256.c ****             efgh = vsha256h2q_u32(efgh, abcd_prev, tmp);
 405:mbedTLS/library/sha256.c **** 
 406:mbedTLS/library/sha256.c ****             /* Rounds t + 12 to t + 15 */
 407:mbedTLS/library/sha256.c ****             sched3 = vsha256su1q_u32(vsha256su0q_u32(sched3, sched0), sched1, sched2);
 408:mbedTLS/library/sha256.c ****             tmp = vaddq_u32(sched3, vld1q_u32(&K[t + 12]));
 409:mbedTLS/library/sha256.c ****             abcd_prev = abcd;
 410:mbedTLS/library/sha256.c ****             abcd = vsha256hq_u32(abcd_prev, efgh, tmp);
 411:mbedTLS/library/sha256.c ****             efgh = vsha256h2q_u32(efgh, abcd_prev, tmp);
ARM GAS  C:\Users\clay0\AppData\Local\Temp\ccksdYIU.s 			page 15


 412:mbedTLS/library/sha256.c ****         }
 413:mbedTLS/library/sha256.c **** 
 414:mbedTLS/library/sha256.c ****         abcd = vaddq_u32(abcd, abcd_orig);
 415:mbedTLS/library/sha256.c ****         efgh = vaddq_u32(efgh, efgh_orig);
 416:mbedTLS/library/sha256.c ****     }
 417:mbedTLS/library/sha256.c **** 
 418:mbedTLS/library/sha256.c ****     vst1q_u32(&ctx->state[0], abcd);
 419:mbedTLS/library/sha256.c ****     vst1q_u32(&ctx->state[4], efgh);
 420:mbedTLS/library/sha256.c **** 
 421:mbedTLS/library/sha256.c ****     return processed;
 422:mbedTLS/library/sha256.c **** }
 423:mbedTLS/library/sha256.c **** 
 424:mbedTLS/library/sha256.c **** #if defined(MBEDTLS_SHA256_USE_ARMV8_A_CRYPTO_IF_PRESENT)
 425:mbedTLS/library/sha256.c **** /*
 426:mbedTLS/library/sha256.c ****  * This function is for internal use only if we are building both C and Armv8-A
 427:mbedTLS/library/sha256.c ****  * versions, otherwise it is renamed to be the public mbedtls_internal_sha256_process()
 428:mbedTLS/library/sha256.c ****  */
 429:mbedTLS/library/sha256.c **** static
 430:mbedTLS/library/sha256.c **** #endif
 431:mbedTLS/library/sha256.c **** int mbedtls_internal_sha256_process_a64_crypto(mbedtls_sha256_context *ctx,
 432:mbedTLS/library/sha256.c ****                                                const unsigned char data[SHA256_BLOCK_SIZE])
 433:mbedTLS/library/sha256.c **** {
 434:mbedTLS/library/sha256.c ****     return (mbedtls_internal_sha256_process_many_a64_crypto(ctx, data,
 435:mbedTLS/library/sha256.c ****                                                             SHA256_BLOCK_SIZE) ==
 436:mbedTLS/library/sha256.c ****             SHA256_BLOCK_SIZE) ? 0 : -1;
 437:mbedTLS/library/sha256.c **** }
 438:mbedTLS/library/sha256.c **** 
 439:mbedTLS/library/sha256.c **** #endif /* MBEDTLS_SHA256_USE_ARMV8_A_CRYPTO_IF_PRESENT || MBEDTLS_SHA256_USE_ARMV8_A_CRYPTO_ONLY */
 440:mbedTLS/library/sha256.c **** 
 441:mbedTLS/library/sha256.c **** #if defined(MBEDTLS_POP_TARGET_PRAGMA)
 442:mbedTLS/library/sha256.c **** #if defined(__clang__)
 443:mbedTLS/library/sha256.c **** #pragma clang attribute pop
 444:mbedTLS/library/sha256.c **** #elif defined(__GNUC__)
 445:mbedTLS/library/sha256.c **** #pragma GCC pop_options
 446:mbedTLS/library/sha256.c **** #endif
 447:mbedTLS/library/sha256.c **** #undef MBEDTLS_POP_TARGET_PRAGMA
 448:mbedTLS/library/sha256.c **** #endif
 449:mbedTLS/library/sha256.c **** 
 450:mbedTLS/library/sha256.c **** #if !defined(MBEDTLS_SHA256_USE_ARMV8_A_CRYPTO_IF_PRESENT)
 451:mbedTLS/library/sha256.c **** #define mbedtls_internal_sha256_process_many_c mbedtls_internal_sha256_process_many
 452:mbedTLS/library/sha256.c **** #define mbedtls_internal_sha256_process_c      mbedtls_internal_sha256_process
 453:mbedTLS/library/sha256.c **** #endif
 454:mbedTLS/library/sha256.c **** 
 455:mbedTLS/library/sha256.c **** 
 456:mbedTLS/library/sha256.c **** #if !defined(MBEDTLS_SHA256_PROCESS_ALT) && \
 457:mbedTLS/library/sha256.c ****     !defined(MBEDTLS_SHA256_USE_ARMV8_A_CRYPTO_ONLY)
 458:mbedTLS/library/sha256.c **** 
 459:mbedTLS/library/sha256.c **** #define  SHR(x, n) (((x) & 0xFFFFFFFF) >> (n))
 460:mbedTLS/library/sha256.c **** #define ROTR(x, n) (SHR(x, n) | ((x) << (32 - (n))))
 461:mbedTLS/library/sha256.c **** 
 462:mbedTLS/library/sha256.c **** #define S0(x) (ROTR(x, 7) ^ ROTR(x, 18) ^  SHR(x, 3))
 463:mbedTLS/library/sha256.c **** #define S1(x) (ROTR(x, 17) ^ ROTR(x, 19) ^  SHR(x, 10))
 464:mbedTLS/library/sha256.c **** 
 465:mbedTLS/library/sha256.c **** #define S2(x) (ROTR(x, 2) ^ ROTR(x, 13) ^ ROTR(x, 22))
 466:mbedTLS/library/sha256.c **** #define S3(x) (ROTR(x, 6) ^ ROTR(x, 11) ^ ROTR(x, 25))
 467:mbedTLS/library/sha256.c **** 
 468:mbedTLS/library/sha256.c **** #define F0(x, y, z) (((x) & (y)) | ((z) & ((x) | (y))))
ARM GAS  C:\Users\clay0\AppData\Local\Temp\ccksdYIU.s 			page 16


 469:mbedTLS/library/sha256.c **** #define F1(x, y, z) ((z) ^ ((x) & ((y) ^ (z))))
 470:mbedTLS/library/sha256.c **** 
 471:mbedTLS/library/sha256.c **** #define R(t)                                                        \
 472:mbedTLS/library/sha256.c ****     (                                                               \
 473:mbedTLS/library/sha256.c ****         local.W[t] = S1(local.W[(t) -  2]) + local.W[(t) -  7] +    \
 474:mbedTLS/library/sha256.c ****                      S0(local.W[(t) - 15]) + local.W[(t) - 16]      \
 475:mbedTLS/library/sha256.c ****     )
 476:mbedTLS/library/sha256.c **** 
 477:mbedTLS/library/sha256.c **** #define P(a, b, c, d, e, f, g, h, x, K)                                      \
 478:mbedTLS/library/sha256.c ****     do                                                              \
 479:mbedTLS/library/sha256.c ****     {                                                               \
 480:mbedTLS/library/sha256.c ****         local.temp1 = (h) + S3(e) + F1((e), (f), (g)) + (K) + (x);    \
 481:mbedTLS/library/sha256.c ****         local.temp2 = S2(a) + F0((a), (b), (c));                      \
 482:mbedTLS/library/sha256.c ****         (d) += local.temp1; (h) = local.temp1 + local.temp2;        \
 483:mbedTLS/library/sha256.c ****     } while (0)
 484:mbedTLS/library/sha256.c **** 
 485:mbedTLS/library/sha256.c **** #if defined(MBEDTLS_SHA256_USE_ARMV8_A_CRYPTO_IF_PRESENT)
 486:mbedTLS/library/sha256.c **** /*
 487:mbedTLS/library/sha256.c ****  * This function is for internal use only if we are building both C and Armv8
 488:mbedTLS/library/sha256.c ****  * versions, otherwise it is renamed to be the public mbedtls_internal_sha256_process()
 489:mbedTLS/library/sha256.c ****  */
 490:mbedTLS/library/sha256.c **** static
 491:mbedTLS/library/sha256.c **** #endif
 492:mbedTLS/library/sha256.c **** int mbedtls_internal_sha256_process_c(mbedtls_sha256_context *ctx,
 493:mbedTLS/library/sha256.c ****                                       const unsigned char data[SHA256_BLOCK_SIZE])
 494:mbedTLS/library/sha256.c **** {
 398              		.loc 1 494 1
 399              		.cfi_startproc
 400              		@ args = 0, pretend = 0, frame = 320
 401              		@ frame_needed = 1, uses_anonymous_args = 0
 402 0000 90B5     		push	{r4, r7, lr}
 403              	.LCFI21:
 404              		.cfi_def_cfa_offset 12
 405              		.cfi_offset 4, -12
 406              		.cfi_offset 7, -8
 407              		.cfi_offset 14, -4
 408 0002 D1B0     		sub	sp, sp, #324
 409              	.LCFI22:
 410              		.cfi_def_cfa_offset 336
 411 0004 00AF     		add	r7, sp, #0
 412              	.LCFI23:
 413              		.cfi_def_cfa_register 7
 414 0006 07F5A073 		add	r3, r7, #320
 415 000a A3F59E73 		sub	r3, r3, #316
 416 000e 1860     		str	r0, [r3]
 417 0010 07F5A073 		add	r3, r7, #320
 418 0014 A3F5A073 		sub	r3, r3, #320
 419 0018 1960     		str	r1, [r3]
 495:mbedTLS/library/sha256.c ****     struct {
 496:mbedTLS/library/sha256.c ****         uint32_t temp1, temp2, W[64];
 497:mbedTLS/library/sha256.c ****         uint32_t A[8];
 498:mbedTLS/library/sha256.c ****     } local;
 499:mbedTLS/library/sha256.c **** 
 500:mbedTLS/library/sha256.c ****     unsigned int i;
 501:mbedTLS/library/sha256.c **** 
 502:mbedTLS/library/sha256.c ****     for (i = 0; i < 8; i++) {
 420              		.loc 1 502 12
ARM GAS  C:\Users\clay0\AppData\Local\Temp\ccksdYIU.s 			page 17


 421 001a 0023     		movs	r3, #0
 422 001c C7F83C31 		str	r3, [r7, #316]
 423              		.loc 1 502 5
 424 0020 17E0     		b	.L15
 425              	.L16:
 503:mbedTLS/library/sha256.c ****         local.A[i] = ctx->state[i];
 426              		.loc 1 503 32 discriminator 3
 427 0022 07F5A073 		add	r3, r7, #320
 428 0026 A3F59E73 		sub	r3, r3, #316
 429 002a 1B68     		ldr	r3, [r3]
 430 002c D7F83C21 		ldr	r2, [r7, #316]
 431 0030 1232     		adds	r2, r2, #18
 432 0032 53F82210 		ldr	r1, [r3, r2, lsl #2]
 433              		.loc 1 503 20 discriminator 3
 434 0036 07F5A073 		add	r3, r7, #320
 435 003a A3F59873 		sub	r3, r3, #304
 436 003e D7F83C21 		ldr	r2, [r7, #316]
 437 0042 4232     		adds	r2, r2, #66
 438 0044 43F82210 		str	r1, [r3, r2, lsl #2]
 502:mbedTLS/library/sha256.c ****         local.A[i] = ctx->state[i];
 439              		.loc 1 502 25 discriminator 3
 440 0048 D7F83C31 		ldr	r3, [r7, #316]
 441 004c 0133     		adds	r3, r3, #1
 442 004e C7F83C31 		str	r3, [r7, #316]
 443              	.L15:
 502:mbedTLS/library/sha256.c ****         local.A[i] = ctx->state[i];
 444              		.loc 1 502 5 discriminator 1
 445 0052 D7F83C31 		ldr	r3, [r7, #316]
 446 0056 072B     		cmp	r3, #7
 447 0058 E3D9     		bls	.L16
 504:mbedTLS/library/sha256.c ****     }
 505:mbedTLS/library/sha256.c **** 
 506:mbedTLS/library/sha256.c **** #if defined(MBEDTLS_SHA256_SMALLER)
 507:mbedTLS/library/sha256.c ****     for (i = 0; i < 64; i++) {
 508:mbedTLS/library/sha256.c ****         if (i < 16) {
 509:mbedTLS/library/sha256.c ****             local.W[i] = MBEDTLS_GET_UINT32_BE(data, 4 * i);
 510:mbedTLS/library/sha256.c ****         } else {
 511:mbedTLS/library/sha256.c ****             R(i);
 512:mbedTLS/library/sha256.c ****         }
 513:mbedTLS/library/sha256.c **** 
 514:mbedTLS/library/sha256.c ****         P(local.A[0], local.A[1], local.A[2], local.A[3], local.A[4],
 515:mbedTLS/library/sha256.c ****           local.A[5], local.A[6], local.A[7], local.W[i], K[i]);
 516:mbedTLS/library/sha256.c **** 
 517:mbedTLS/library/sha256.c ****         local.temp1 = local.A[7]; local.A[7] = local.A[6];
 518:mbedTLS/library/sha256.c ****         local.A[6] = local.A[5]; local.A[5] = local.A[4];
 519:mbedTLS/library/sha256.c ****         local.A[4] = local.A[3]; local.A[3] = local.A[2];
 520:mbedTLS/library/sha256.c ****         local.A[2] = local.A[1]; local.A[1] = local.A[0];
 521:mbedTLS/library/sha256.c ****         local.A[0] = local.temp1;
 522:mbedTLS/library/sha256.c ****     }
 523:mbedTLS/library/sha256.c **** #else /* MBEDTLS_SHA256_SMALLER */
 524:mbedTLS/library/sha256.c ****     for (i = 0; i < 16; i++) {
 448              		.loc 1 524 12
 449 005a 0023     		movs	r3, #0
 450 005c C7F83C31 		str	r3, [r7, #316]
 451              		.loc 1 524 5
 452 0060 27E0     		b	.L17
 453              	.L19:
ARM GAS  C:\Users\clay0\AppData\Local\Temp\ccksdYIU.s 			page 18


 525:mbedTLS/library/sha256.c ****         local.W[i] = MBEDTLS_GET_UINT32_BE(data, 4 * i);
 454              		.loc 1 525 22 discriminator 3
 455 0062 D7F83C31 		ldr	r3, [r7, #316]
 456 0066 9B00     		lsls	r3, r3, #2
 457 0068 07F5A072 		add	r2, r7, #320
 458 006c A2F5A072 		sub	r2, r2, #320
 459 0070 1268     		ldr	r2, [r2]
 460 0072 1344     		add	r3, r3, r2
 461 0074 C7F83831 		str	r3, [r7, #312]
 462 0078 D7F83831 		ldr	r3, [r7, #312]
 463 007c 1B68     		ldr	r3, [r3]	@ unaligned
 464 007e 1A46     		mov	r2, r3
 465              	.LBB24:
 466              	.LBB25:
 467              		.file 2 "mbedTLS/library/alignment.h"
   1:mbedTLS/library/alignment.h **** /**
   2:mbedTLS/library/alignment.h ****  * \file alignment.h
   3:mbedTLS/library/alignment.h ****  *
   4:mbedTLS/library/alignment.h ****  * \brief Utility code for dealing with unaligned memory accesses
   5:mbedTLS/library/alignment.h ****  */
   6:mbedTLS/library/alignment.h **** /*
   7:mbedTLS/library/alignment.h ****  *  Copyright The Mbed TLS Contributors
   8:mbedTLS/library/alignment.h ****  *  SPDX-License-Identifier: Apache-2.0 OR GPL-2.0-or-later
   9:mbedTLS/library/alignment.h ****  */
  10:mbedTLS/library/alignment.h **** 
  11:mbedTLS/library/alignment.h **** #ifndef MBEDTLS_LIBRARY_ALIGNMENT_H
  12:mbedTLS/library/alignment.h **** #define MBEDTLS_LIBRARY_ALIGNMENT_H
  13:mbedTLS/library/alignment.h **** 
  14:mbedTLS/library/alignment.h **** #include <stdint.h>
  15:mbedTLS/library/alignment.h **** #include <string.h>
  16:mbedTLS/library/alignment.h **** #include <stdlib.h>
  17:mbedTLS/library/alignment.h **** 
  18:mbedTLS/library/alignment.h **** /*
  19:mbedTLS/library/alignment.h ****  * Define MBEDTLS_EFFICIENT_UNALIGNED_ACCESS for architectures where unaligned memory
  20:mbedTLS/library/alignment.h ****  * accesses are known to be efficient.
  21:mbedTLS/library/alignment.h ****  *
  22:mbedTLS/library/alignment.h ****  * All functions defined here will behave correctly regardless, but might be less
  23:mbedTLS/library/alignment.h ****  * efficient when this is not defined.
  24:mbedTLS/library/alignment.h ****  */
  25:mbedTLS/library/alignment.h **** #if defined(__ARM_FEATURE_UNALIGNED) \
  26:mbedTLS/library/alignment.h ****     || defined(MBEDTLS_ARCH_IS_X86) || defined(MBEDTLS_ARCH_IS_X64) \
  27:mbedTLS/library/alignment.h ****     || defined(MBEDTLS_PLATFORM_IS_WINDOWS_ON_ARM64)
  28:mbedTLS/library/alignment.h **** /*
  29:mbedTLS/library/alignment.h ****  * __ARM_FEATURE_UNALIGNED is defined where appropriate by armcc, gcc 7, clang 9
  30:mbedTLS/library/alignment.h ****  * (and later versions) for Arm v7 and later; all x86 platforms should have
  31:mbedTLS/library/alignment.h ****  * efficient unaligned access.
  32:mbedTLS/library/alignment.h ****  *
  33:mbedTLS/library/alignment.h ****  * https://learn.microsoft.com/en-us/cpp/build/arm64-windows-abi-conventions?view=msvc-170#alignmen
  34:mbedTLS/library/alignment.h ****  * specifies that on Windows-on-Arm64, unaligned access is safe (except for uncached
  35:mbedTLS/library/alignment.h ****  * device memory).
  36:mbedTLS/library/alignment.h ****  */
  37:mbedTLS/library/alignment.h **** #define MBEDTLS_EFFICIENT_UNALIGNED_ACCESS
  38:mbedTLS/library/alignment.h **** #endif
  39:mbedTLS/library/alignment.h **** 
  40:mbedTLS/library/alignment.h **** #if defined(__IAR_SYSTEMS_ICC__) && \
  41:mbedTLS/library/alignment.h ****     (defined(MBEDTLS_ARCH_IS_ARM64) || defined(MBEDTLS_ARCH_IS_ARM32) \
  42:mbedTLS/library/alignment.h ****     || defined(__ICCRX__) || defined(__ICCRL78__) || defined(__ICCRISCV__))
ARM GAS  C:\Users\clay0\AppData\Local\Temp\ccksdYIU.s 			page 19


  43:mbedTLS/library/alignment.h **** #pragma language=save
  44:mbedTLS/library/alignment.h **** #pragma language=extended
  45:mbedTLS/library/alignment.h **** #define MBEDTLS_POP_IAR_LANGUAGE_PRAGMA
  46:mbedTLS/library/alignment.h **** /* IAR recommend this technique for accessing unaligned data in
  47:mbedTLS/library/alignment.h ****  * https://www.iar.com/knowledge/support/technical-notes/compiler/accessing-unaligned-data
  48:mbedTLS/library/alignment.h ****  * This results in a single load / store instruction (if unaligned access is supported).
  49:mbedTLS/library/alignment.h ****  * According to that document, this is only supported on certain architectures.
  50:mbedTLS/library/alignment.h ****  */
  51:mbedTLS/library/alignment.h ****     #define UINT_UNALIGNED
  52:mbedTLS/library/alignment.h **** typedef uint16_t __packed mbedtls_uint16_unaligned_t;
  53:mbedTLS/library/alignment.h **** typedef uint32_t __packed mbedtls_uint32_unaligned_t;
  54:mbedTLS/library/alignment.h **** typedef uint64_t __packed mbedtls_uint64_unaligned_t;
  55:mbedTLS/library/alignment.h **** #elif defined(MBEDTLS_COMPILER_IS_GCC) && (MBEDTLS_GCC_VERSION >= 40504) && \
  56:mbedTLS/library/alignment.h ****     ((MBEDTLS_GCC_VERSION < 60300) || (!defined(MBEDTLS_EFFICIENT_UNALIGNED_ACCESS)))
  57:mbedTLS/library/alignment.h **** /*
  58:mbedTLS/library/alignment.h ****  * gcc may generate a branch to memcpy for calls like `memcpy(dest, src, 4)` rather than
  59:mbedTLS/library/alignment.h ****  * generating some LDR or LDRB instructions (similar for stores).
  60:mbedTLS/library/alignment.h ****  *
  61:mbedTLS/library/alignment.h ****  * This is architecture dependent: x86-64 seems fine even with old gcc; 32-bit Arm
  62:mbedTLS/library/alignment.h ****  * is affected. To keep it simple, we enable for all architectures.
  63:mbedTLS/library/alignment.h ****  *
  64:mbedTLS/library/alignment.h ****  * For versions of gcc < 5.4.0 this issue always happens.
  65:mbedTLS/library/alignment.h ****  * For gcc < 6.3.0, this issue happens at -O0
  66:mbedTLS/library/alignment.h ****  * For all versions, this issue happens iff unaligned access is not supported.
  67:mbedTLS/library/alignment.h ****  *
  68:mbedTLS/library/alignment.h ****  * For gcc 4.x, this implementation will generate byte-by-byte loads even if unaligned access is
  69:mbedTLS/library/alignment.h ****  * supported, which is correct but not optimal.
  70:mbedTLS/library/alignment.h ****  *
  71:mbedTLS/library/alignment.h ****  * For performance (and code size, in some cases), we want to avoid the branch and just generate
  72:mbedTLS/library/alignment.h ****  * some inline load/store instructions since the access is small and constant-size.
  73:mbedTLS/library/alignment.h ****  *
  74:mbedTLS/library/alignment.h ****  * The manual states:
  75:mbedTLS/library/alignment.h ****  * "The packed attribute specifies that a variable or structure field should have the smallest
  76:mbedTLS/library/alignment.h ****  *  possible alignmentone byte for a variable"
  77:mbedTLS/library/alignment.h ****  * https://gcc.gnu.org/onlinedocs/gcc-4.5.4/gcc/Variable-Attributes.html
  78:mbedTLS/library/alignment.h ****  *
  79:mbedTLS/library/alignment.h ****  * Previous implementations used __attribute__((__aligned__(1)), but had issues with a gcc bug:
  80:mbedTLS/library/alignment.h ****  * https://gcc.gnu.org/bugzilla/show_bug.cgi?id=94662
  81:mbedTLS/library/alignment.h ****  *
  82:mbedTLS/library/alignment.h ****  * Tested with several versions of GCC from 4.5.0 up to 13.2.0
  83:mbedTLS/library/alignment.h ****  * We don't enable for older than 4.5.0 as this has not been tested.
  84:mbedTLS/library/alignment.h ****  */
  85:mbedTLS/library/alignment.h ****  #define UINT_UNALIGNED_STRUCT
  86:mbedTLS/library/alignment.h **** typedef struct {
  87:mbedTLS/library/alignment.h ****     uint16_t x;
  88:mbedTLS/library/alignment.h **** } __attribute__((packed)) mbedtls_uint16_unaligned_t;
  89:mbedTLS/library/alignment.h **** typedef struct {
  90:mbedTLS/library/alignment.h ****     uint32_t x;
  91:mbedTLS/library/alignment.h **** } __attribute__((packed)) mbedtls_uint32_unaligned_t;
  92:mbedTLS/library/alignment.h **** typedef struct {
  93:mbedTLS/library/alignment.h ****     uint64_t x;
  94:mbedTLS/library/alignment.h **** } __attribute__((packed)) mbedtls_uint64_unaligned_t;
  95:mbedTLS/library/alignment.h ****  #endif
  96:mbedTLS/library/alignment.h **** 
  97:mbedTLS/library/alignment.h **** /*
  98:mbedTLS/library/alignment.h ****  * We try to force mbedtls_(get|put)_unaligned_uintXX to be always inline, because this results
  99:mbedTLS/library/alignment.h ****  * in code that is both smaller and faster. IAR and gcc both benefit from this when optimising
ARM GAS  C:\Users\clay0\AppData\Local\Temp\ccksdYIU.s 			page 20


 100:mbedTLS/library/alignment.h ****  * for size.
 101:mbedTLS/library/alignment.h ****  */
 102:mbedTLS/library/alignment.h **** 
 103:mbedTLS/library/alignment.h **** /**
 104:mbedTLS/library/alignment.h ****  * Read the unsigned 16 bits integer from the given address, which need not
 105:mbedTLS/library/alignment.h ****  * be aligned.
 106:mbedTLS/library/alignment.h ****  *
 107:mbedTLS/library/alignment.h ****  * \param   p pointer to 2 bytes of data
 108:mbedTLS/library/alignment.h ****  * \return  Data at the given address
 109:mbedTLS/library/alignment.h ****  */
 110:mbedTLS/library/alignment.h **** #if defined(__IAR_SYSTEMS_ICC__)
 111:mbedTLS/library/alignment.h **** #pragma inline = forced
 112:mbedTLS/library/alignment.h **** #elif defined(__GNUC__)
 113:mbedTLS/library/alignment.h **** __attribute__((always_inline))
 114:mbedTLS/library/alignment.h **** #endif
 115:mbedTLS/library/alignment.h **** static inline uint16_t mbedtls_get_unaligned_uint16(const void *p)
 116:mbedTLS/library/alignment.h **** {
 117:mbedTLS/library/alignment.h ****     uint16_t r;
 118:mbedTLS/library/alignment.h **** #if defined(UINT_UNALIGNED)
 119:mbedTLS/library/alignment.h ****     mbedtls_uint16_unaligned_t *p16 = (mbedtls_uint16_unaligned_t *) p;
 120:mbedTLS/library/alignment.h ****     r = *p16;
 121:mbedTLS/library/alignment.h **** #elif defined(UINT_UNALIGNED_STRUCT)
 122:mbedTLS/library/alignment.h ****     mbedtls_uint16_unaligned_t *p16 = (mbedtls_uint16_unaligned_t *) p;
 123:mbedTLS/library/alignment.h ****     r = p16->x;
 124:mbedTLS/library/alignment.h **** #else
 125:mbedTLS/library/alignment.h ****     memcpy(&r, p, sizeof(r));
 126:mbedTLS/library/alignment.h **** #endif
 127:mbedTLS/library/alignment.h ****     return r;
 128:mbedTLS/library/alignment.h **** }
 129:mbedTLS/library/alignment.h **** 
 130:mbedTLS/library/alignment.h **** /**
 131:mbedTLS/library/alignment.h ****  * Write the unsigned 16 bits integer to the given address, which need not
 132:mbedTLS/library/alignment.h ****  * be aligned.
 133:mbedTLS/library/alignment.h ****  *
 134:mbedTLS/library/alignment.h ****  * \param   p pointer to 2 bytes of data
 135:mbedTLS/library/alignment.h ****  * \param   x data to write
 136:mbedTLS/library/alignment.h ****  */
 137:mbedTLS/library/alignment.h **** #if defined(__IAR_SYSTEMS_ICC__)
 138:mbedTLS/library/alignment.h **** #pragma inline = forced
 139:mbedTLS/library/alignment.h **** #elif defined(__GNUC__)
 140:mbedTLS/library/alignment.h **** __attribute__((always_inline))
 141:mbedTLS/library/alignment.h **** #endif
 142:mbedTLS/library/alignment.h **** static inline void mbedtls_put_unaligned_uint16(void *p, uint16_t x)
 143:mbedTLS/library/alignment.h **** {
 144:mbedTLS/library/alignment.h **** #if defined(UINT_UNALIGNED)
 145:mbedTLS/library/alignment.h ****     mbedtls_uint16_unaligned_t *p16 = (mbedtls_uint16_unaligned_t *) p;
 146:mbedTLS/library/alignment.h ****     *p16 = x;
 147:mbedTLS/library/alignment.h **** #elif defined(UINT_UNALIGNED_STRUCT)
 148:mbedTLS/library/alignment.h ****     mbedtls_uint16_unaligned_t *p16 = (mbedtls_uint16_unaligned_t *) p;
 149:mbedTLS/library/alignment.h ****     p16->x = x;
 150:mbedTLS/library/alignment.h **** #else
 151:mbedTLS/library/alignment.h ****     memcpy(p, &x, sizeof(x));
 152:mbedTLS/library/alignment.h **** #endif
 153:mbedTLS/library/alignment.h **** }
 154:mbedTLS/library/alignment.h **** 
 155:mbedTLS/library/alignment.h **** /**
 156:mbedTLS/library/alignment.h ****  * Read the unsigned 32 bits integer from the given address, which need not
ARM GAS  C:\Users\clay0\AppData\Local\Temp\ccksdYIU.s 			page 21


 157:mbedTLS/library/alignment.h ****  * be aligned.
 158:mbedTLS/library/alignment.h ****  *
 159:mbedTLS/library/alignment.h ****  * \param   p pointer to 4 bytes of data
 160:mbedTLS/library/alignment.h ****  * \return  Data at the given address
 161:mbedTLS/library/alignment.h ****  */
 162:mbedTLS/library/alignment.h **** #if defined(__IAR_SYSTEMS_ICC__)
 163:mbedTLS/library/alignment.h **** #pragma inline = forced
 164:mbedTLS/library/alignment.h **** #elif defined(__GNUC__)
 165:mbedTLS/library/alignment.h **** __attribute__((always_inline))
 166:mbedTLS/library/alignment.h **** #endif
 167:mbedTLS/library/alignment.h **** static inline uint32_t mbedtls_get_unaligned_uint32(const void *p)
 168:mbedTLS/library/alignment.h **** {
 169:mbedTLS/library/alignment.h ****     uint32_t r;
 170:mbedTLS/library/alignment.h **** #if defined(UINT_UNALIGNED)
 171:mbedTLS/library/alignment.h ****     mbedtls_uint32_unaligned_t *p32 = (mbedtls_uint32_unaligned_t *) p;
 172:mbedTLS/library/alignment.h ****     r = *p32;
 173:mbedTLS/library/alignment.h **** #elif defined(UINT_UNALIGNED_STRUCT)
 174:mbedTLS/library/alignment.h ****     mbedtls_uint32_unaligned_t *p32 = (mbedtls_uint32_unaligned_t *) p;
 175:mbedTLS/library/alignment.h ****     r = p32->x;
 176:mbedTLS/library/alignment.h **** #else
 177:mbedTLS/library/alignment.h ****     memcpy(&r, p, sizeof(r));
 468              		.loc 2 177 5 discriminator 3
 469 0080 07F5A073 		add	r3, r7, #320
 470 0084 A3F59A73 		sub	r3, r3, #308
 471 0088 1A60     		str	r2, [r3]
 178:mbedTLS/library/alignment.h **** #endif
 179:mbedTLS/library/alignment.h ****     return r;
 472              		.loc 2 179 12 discriminator 3
 473 008a 07F5A073 		add	r3, r7, #320
 474 008e A3F59A73 		sub	r3, r3, #308
 475 0092 1B68     		ldr	r3, [r3]
 476              	.LBE25:
 477              	.LBE24:
 478              		.loc 1 525 22 discriminator 3
 479 0094 19BA     		rev	r1, r3
 480              		.loc 1 525 20 discriminator 3
 481 0096 07F5A073 		add	r3, r7, #320
 482 009a A3F59873 		sub	r3, r3, #304
 483 009e D7F83C21 		ldr	r2, [r7, #316]
 484 00a2 0232     		adds	r2, r2, #2
 485 00a4 43F82210 		str	r1, [r3, r2, lsl #2]
 524:mbedTLS/library/sha256.c ****         local.W[i] = MBEDTLS_GET_UINT32_BE(data, 4 * i);
 486              		.loc 1 524 26 discriminator 3
 487 00a8 D7F83C31 		ldr	r3, [r7, #316]
 488 00ac 0133     		adds	r3, r3, #1
 489 00ae C7F83C31 		str	r3, [r7, #316]
 490              	.L17:
 524:mbedTLS/library/sha256.c ****         local.W[i] = MBEDTLS_GET_UINT32_BE(data, 4 * i);
 491              		.loc 1 524 5 discriminator 1
 492 00b2 D7F83C31 		ldr	r3, [r7, #316]
 493 00b6 0F2B     		cmp	r3, #15
 494 00b8 D3D9     		bls	.L19
 526:mbedTLS/library/sha256.c ****     }
 527:mbedTLS/library/sha256.c **** 
 528:mbedTLS/library/sha256.c ****     for (i = 0; i < 16; i += 8) {
 495              		.loc 1 528 12
 496 00ba 0023     		movs	r3, #0
ARM GAS  C:\Users\clay0\AppData\Local\Temp\ccksdYIU.s 			page 22


 497 00bc C7F83C31 		str	r3, [r7, #316]
 498              		.loc 1 528 5
 499 00c0 00F0D1BD 		b	.L20
 500              	.L21:
 529:mbedTLS/library/sha256.c ****         P(local.A[0], local.A[1], local.A[2], local.A[3], local.A[4],
 501              		.loc 1 529 9 discriminator 3
 502 00c4 07F5A073 		add	r3, r7, #320
 503 00c8 A3F59873 		sub	r3, r3, #304
 504 00cc D3F82421 		ldr	r2, [r3, #292]
 505 00d0 07F5A073 		add	r3, r7, #320
 506 00d4 A3F59873 		sub	r3, r3, #304
 507 00d8 D3F81831 		ldr	r3, [r3, #280]
 508 00dc 4FEAB311 		ror	r1, r3, #6
 509 00e0 07F5A073 		add	r3, r7, #320
 510 00e4 A3F59873 		sub	r3, r3, #304
 511 00e8 D3F81831 		ldr	r3, [r3, #280]
 512 00ec 4FEAF323 		ror	r3, r3, #11
 513 00f0 5940     		eors	r1, r1, r3
 514 00f2 07F5A073 		add	r3, r7, #320
 515 00f6 A3F59873 		sub	r3, r3, #304
 516 00fa D3F81831 		ldr	r3, [r3, #280]
 517 00fe 4FEA7363 		ror	r3, r3, #25
 518 0102 4B40     		eors	r3, r3, r1
 519 0104 1A44     		add	r2, r2, r3
 520 0106 07F5A073 		add	r3, r7, #320
 521 010a A3F59873 		sub	r3, r3, #304
 522 010e D3F82011 		ldr	r1, [r3, #288]
 523 0112 07F5A073 		add	r3, r7, #320
 524 0116 A3F59873 		sub	r3, r3, #304
 525 011a D3F81801 		ldr	r0, [r3, #280]
 526 011e 07F5A073 		add	r3, r7, #320
 527 0122 A3F59873 		sub	r3, r3, #304
 528 0126 D3F81C41 		ldr	r4, [r3, #284]
 529 012a 07F5A073 		add	r3, r7, #320
 530 012e A3F59873 		sub	r3, r3, #304
 531 0132 D3F82031 		ldr	r3, [r3, #288]
 532 0136 6340     		eors	r3, r3, r4
 533 0138 0340     		ands	r3, r3, r0
 534 013a 4B40     		eors	r3, r3, r1
 535 013c 1A44     		add	r2, r2, r3
 536 013e F549     		ldr	r1, .L27
 537 0140 D7F83C31 		ldr	r3, [r7, #316]
 538 0144 51F82330 		ldr	r3, [r1, r3, lsl #2]
 539 0148 1A44     		add	r2, r2, r3
 540 014a 07F5A073 		add	r3, r7, #320
 541 014e A3F59873 		sub	r3, r3, #304
 542 0152 D7F83C11 		ldr	r1, [r7, #316]
 543 0156 0231     		adds	r1, r1, #2
 544 0158 53F82130 		ldr	r3, [r3, r1, lsl #2]
 545 015c 1A44     		add	r2, r2, r3
 546 015e 07F5A073 		add	r3, r7, #320
 547 0162 A3F59873 		sub	r3, r3, #304
 548 0166 1A60     		str	r2, [r3]
 549 0168 07F5A073 		add	r3, r7, #320
 550 016c A3F59873 		sub	r3, r3, #304
 551 0170 D3F80831 		ldr	r3, [r3, #264]
 552 0174 4FEAB302 		ror	r2, r3, #2
ARM GAS  C:\Users\clay0\AppData\Local\Temp\ccksdYIU.s 			page 23


 553 0178 07F5A073 		add	r3, r7, #320
 554 017c A3F59873 		sub	r3, r3, #304
 555 0180 D3F80831 		ldr	r3, [r3, #264]
 556 0184 4FEA7333 		ror	r3, r3, #13
 557 0188 5A40     		eors	r2, r2, r3
 558 018a 07F5A073 		add	r3, r7, #320
 559 018e A3F59873 		sub	r3, r3, #304
 560 0192 D3F80831 		ldr	r3, [r3, #264]
 561 0196 4FEAB353 		ror	r3, r3, #22
 562 019a 5A40     		eors	r2, r2, r3
 563 019c 07F5A073 		add	r3, r7, #320
 564 01a0 A3F59873 		sub	r3, r3, #304
 565 01a4 D3F80811 		ldr	r1, [r3, #264]
 566 01a8 07F5A073 		add	r3, r7, #320
 567 01ac A3F59873 		sub	r3, r3, #304
 568 01b0 D3F80C31 		ldr	r3, [r3, #268]
 569 01b4 1940     		ands	r1, r1, r3
 570 01b6 07F5A073 		add	r3, r7, #320
 571 01ba A3F59873 		sub	r3, r3, #304
 572 01be D3F81001 		ldr	r0, [r3, #272]
 573 01c2 07F5A073 		add	r3, r7, #320
 574 01c6 A3F59873 		sub	r3, r3, #304
 575 01ca D3F80841 		ldr	r4, [r3, #264]
 576 01ce 07F5A073 		add	r3, r7, #320
 577 01d2 A3F59873 		sub	r3, r3, #304
 578 01d6 D3F80C31 		ldr	r3, [r3, #268]
 579 01da 2343     		orrs	r3, r3, r4
 580 01dc 0340     		ands	r3, r3, r0
 581 01de 0B43     		orrs	r3, r3, r1
 582 01e0 1A44     		add	r2, r2, r3
 583 01e2 07F5A073 		add	r3, r7, #320
 584 01e6 A3F59873 		sub	r3, r3, #304
 585 01ea 5A60     		str	r2, [r3, #4]
 586 01ec 07F5A073 		add	r3, r7, #320
 587 01f0 A3F59873 		sub	r3, r3, #304
 588 01f4 D3F81421 		ldr	r2, [r3, #276]
 589 01f8 07F5A073 		add	r3, r7, #320
 590 01fc A3F59873 		sub	r3, r3, #304
 591 0200 1B68     		ldr	r3, [r3]
 592 0202 1A44     		add	r2, r2, r3
 593 0204 07F5A073 		add	r3, r7, #320
 594 0208 A3F59873 		sub	r3, r3, #304
 595 020c C3F81421 		str	r2, [r3, #276]
 596 0210 07F5A073 		add	r3, r7, #320
 597 0214 A3F59873 		sub	r3, r3, #304
 598 0218 1A68     		ldr	r2, [r3]
 599 021a 07F5A073 		add	r3, r7, #320
 600 021e A3F59873 		sub	r3, r3, #304
 601 0222 5B68     		ldr	r3, [r3, #4]
 602 0224 1A44     		add	r2, r2, r3
 603 0226 07F5A073 		add	r3, r7, #320
 604 022a A3F59873 		sub	r3, r3, #304
 605 022e C3F82421 		str	r2, [r3, #292]
 530:mbedTLS/library/sha256.c ****           local.A[5], local.A[6], local.A[7], local.W[i+0], K[i+0]);
 531:mbedTLS/library/sha256.c ****         P(local.A[7], local.A[0], local.A[1], local.A[2], local.A[3],
 606              		.loc 1 531 9 discriminator 3
 607 0232 07F5A073 		add	r3, r7, #320
ARM GAS  C:\Users\clay0\AppData\Local\Temp\ccksdYIU.s 			page 24


 608 0236 A3F59873 		sub	r3, r3, #304
 609 023a D3F82021 		ldr	r2, [r3, #288]
 610 023e 07F5A073 		add	r3, r7, #320
 611 0242 A3F59873 		sub	r3, r3, #304
 612 0246 D3F81431 		ldr	r3, [r3, #276]
 613 024a 4FEAB311 		ror	r1, r3, #6
 614 024e 07F5A073 		add	r3, r7, #320
 615 0252 A3F59873 		sub	r3, r3, #304
 616 0256 D3F81431 		ldr	r3, [r3, #276]
 617 025a 4FEAF323 		ror	r3, r3, #11
 618 025e 5940     		eors	r1, r1, r3
 619 0260 07F5A073 		add	r3, r7, #320
 620 0264 A3F59873 		sub	r3, r3, #304
 621 0268 D3F81431 		ldr	r3, [r3, #276]
 622 026c 4FEA7363 		ror	r3, r3, #25
 623 0270 4B40     		eors	r3, r3, r1
 624 0272 1A44     		add	r2, r2, r3
 625 0274 07F5A073 		add	r3, r7, #320
 626 0278 A3F59873 		sub	r3, r3, #304
 627 027c D3F81C11 		ldr	r1, [r3, #284]
 628 0280 07F5A073 		add	r3, r7, #320
 629 0284 A3F59873 		sub	r3, r3, #304
 630 0288 D3F81401 		ldr	r0, [r3, #276]
 631 028c 07F5A073 		add	r3, r7, #320
 632 0290 A3F59873 		sub	r3, r3, #304
 633 0294 D3F81841 		ldr	r4, [r3, #280]
 634 0298 07F5A073 		add	r3, r7, #320
 635 029c A3F59873 		sub	r3, r3, #304
 636 02a0 D3F81C31 		ldr	r3, [r3, #284]
 637 02a4 6340     		eors	r3, r3, r4
 638 02a6 0340     		ands	r3, r3, r0
 639 02a8 4B40     		eors	r3, r3, r1
 640 02aa 1A44     		add	r2, r2, r3
 641 02ac D7F83C31 		ldr	r3, [r7, #316]
 642 02b0 0133     		adds	r3, r3, #1
 643 02b2 9849     		ldr	r1, .L27
 644 02b4 51F82330 		ldr	r3, [r1, r3, lsl #2]
 645 02b8 1A44     		add	r2, r2, r3
 646 02ba D7F83C31 		ldr	r3, [r7, #316]
 647 02be 591C     		adds	r1, r3, #1
 648 02c0 07F5A073 		add	r3, r7, #320
 649 02c4 A3F59873 		sub	r3, r3, #304
 650 02c8 0231     		adds	r1, r1, #2
 651 02ca 53F82130 		ldr	r3, [r3, r1, lsl #2]
 652 02ce 1A44     		add	r2, r2, r3
 653 02d0 07F5A073 		add	r3, r7, #320
 654 02d4 A3F59873 		sub	r3, r3, #304
 655 02d8 1A60     		str	r2, [r3]
 656 02da 07F5A073 		add	r3, r7, #320
 657 02de A3F59873 		sub	r3, r3, #304
 658 02e2 D3F82431 		ldr	r3, [r3, #292]
 659 02e6 4FEAB302 		ror	r2, r3, #2
 660 02ea 07F5A073 		add	r3, r7, #320
 661 02ee A3F59873 		sub	r3, r3, #304
 662 02f2 D3F82431 		ldr	r3, [r3, #292]
 663 02f6 4FEA7333 		ror	r3, r3, #13
 664 02fa 5A40     		eors	r2, r2, r3
ARM GAS  C:\Users\clay0\AppData\Local\Temp\ccksdYIU.s 			page 25


 665 02fc 07F5A073 		add	r3, r7, #320
 666 0300 A3F59873 		sub	r3, r3, #304
 667 0304 D3F82431 		ldr	r3, [r3, #292]
 668 0308 4FEAB353 		ror	r3, r3, #22
 669 030c 5A40     		eors	r2, r2, r3
 670 030e 07F5A073 		add	r3, r7, #320
 671 0312 A3F59873 		sub	r3, r3, #304
 672 0316 D3F82411 		ldr	r1, [r3, #292]
 673 031a 07F5A073 		add	r3, r7, #320
 674 031e A3F59873 		sub	r3, r3, #304
 675 0322 D3F80831 		ldr	r3, [r3, #264]
 676 0326 1940     		ands	r1, r1, r3
 677 0328 07F5A073 		add	r3, r7, #320
 678 032c A3F59873 		sub	r3, r3, #304
 679 0330 D3F80C01 		ldr	r0, [r3, #268]
 680 0334 07F5A073 		add	r3, r7, #320
 681 0338 A3F59873 		sub	r3, r3, #304
 682 033c D3F82441 		ldr	r4, [r3, #292]
 683 0340 07F5A073 		add	r3, r7, #320
 684 0344 A3F59873 		sub	r3, r3, #304
 685 0348 D3F80831 		ldr	r3, [r3, #264]
 686 034c 2343     		orrs	r3, r3, r4
 687 034e 0340     		ands	r3, r3, r0
 688 0350 0B43     		orrs	r3, r3, r1
 689 0352 1A44     		add	r2, r2, r3
 690 0354 07F5A073 		add	r3, r7, #320
 691 0358 A3F59873 		sub	r3, r3, #304
 692 035c 5A60     		str	r2, [r3, #4]
 693 035e 07F5A073 		add	r3, r7, #320
 694 0362 A3F59873 		sub	r3, r3, #304
 695 0366 D3F81021 		ldr	r2, [r3, #272]
 696 036a 07F5A073 		add	r3, r7, #320
 697 036e A3F59873 		sub	r3, r3, #304
 698 0372 1B68     		ldr	r3, [r3]
 699 0374 1A44     		add	r2, r2, r3
 700 0376 07F5A073 		add	r3, r7, #320
 701 037a A3F59873 		sub	r3, r3, #304
 702 037e C3F81021 		str	r2, [r3, #272]
 703 0382 07F5A073 		add	r3, r7, #320
 704 0386 A3F59873 		sub	r3, r3, #304
 705 038a 1A68     		ldr	r2, [r3]
 706 038c 07F5A073 		add	r3, r7, #320
 707 0390 A3F59873 		sub	r3, r3, #304
 708 0394 5B68     		ldr	r3, [r3, #4]
 709 0396 1A44     		add	r2, r2, r3
 710 0398 07F5A073 		add	r3, r7, #320
 711 039c A3F59873 		sub	r3, r3, #304
 712 03a0 C3F82021 		str	r2, [r3, #288]
 532:mbedTLS/library/sha256.c ****           local.A[4], local.A[5], local.A[6], local.W[i+1], K[i+1]);
 533:mbedTLS/library/sha256.c ****         P(local.A[6], local.A[7], local.A[0], local.A[1], local.A[2],
 713              		.loc 1 533 9 discriminator 3
 714 03a4 07F5A073 		add	r3, r7, #320
 715 03a8 A3F59873 		sub	r3, r3, #304
 716 03ac D3F81C21 		ldr	r2, [r3, #284]
 717 03b0 07F5A073 		add	r3, r7, #320
 718 03b4 A3F59873 		sub	r3, r3, #304
 719 03b8 D3F81031 		ldr	r3, [r3, #272]
ARM GAS  C:\Users\clay0\AppData\Local\Temp\ccksdYIU.s 			page 26


 720 03bc 4FEAB311 		ror	r1, r3, #6
 721 03c0 07F5A073 		add	r3, r7, #320
 722 03c4 A3F59873 		sub	r3, r3, #304
 723 03c8 D3F81031 		ldr	r3, [r3, #272]
 724 03cc 4FEAF323 		ror	r3, r3, #11
 725 03d0 5940     		eors	r1, r1, r3
 726 03d2 07F5A073 		add	r3, r7, #320
 727 03d6 A3F59873 		sub	r3, r3, #304
 728 03da D3F81031 		ldr	r3, [r3, #272]
 729 03de 4FEA7363 		ror	r3, r3, #25
 730 03e2 4B40     		eors	r3, r3, r1
 731 03e4 1A44     		add	r2, r2, r3
 732 03e6 07F5A073 		add	r3, r7, #320
 733 03ea A3F59873 		sub	r3, r3, #304
 734 03ee D3F81811 		ldr	r1, [r3, #280]
 735 03f2 07F5A073 		add	r3, r7, #320
 736 03f6 A3F59873 		sub	r3, r3, #304
 737 03fa D3F81001 		ldr	r0, [r3, #272]
 738 03fe 07F5A073 		add	r3, r7, #320
 739 0402 A3F59873 		sub	r3, r3, #304
 740 0406 D3F81441 		ldr	r4, [r3, #276]
 741 040a 07F5A073 		add	r3, r7, #320
 742 040e A3F59873 		sub	r3, r3, #304
 743 0412 D3F81831 		ldr	r3, [r3, #280]
 744 0416 6340     		eors	r3, r3, r4
 745 0418 0340     		ands	r3, r3, r0
 746 041a 4B40     		eors	r3, r3, r1
 747 041c 1A44     		add	r2, r2, r3
 748 041e D7F83C31 		ldr	r3, [r7, #316]
 749 0422 0233     		adds	r3, r3, #2
 750 0424 3B49     		ldr	r1, .L27
 751 0426 51F82330 		ldr	r3, [r1, r3, lsl #2]
 752 042a 1A44     		add	r2, r2, r3
 753 042c D7F83C31 		ldr	r3, [r7, #316]
 754 0430 991C     		adds	r1, r3, #2
 755 0432 07F5A073 		add	r3, r7, #320
 756 0436 A3F59873 		sub	r3, r3, #304
 757 043a 0231     		adds	r1, r1, #2
 758 043c 53F82130 		ldr	r3, [r3, r1, lsl #2]
 759 0440 1A44     		add	r2, r2, r3
 760 0442 07F5A073 		add	r3, r7, #320
 761 0446 A3F59873 		sub	r3, r3, #304
 762 044a 1A60     		str	r2, [r3]
 763 044c 07F5A073 		add	r3, r7, #320
 764 0450 A3F59873 		sub	r3, r3, #304
 765 0454 D3F82031 		ldr	r3, [r3, #288]
 766 0458 4FEAB302 		ror	r2, r3, #2
 767 045c 07F5A073 		add	r3, r7, #320
 768 0460 A3F59873 		sub	r3, r3, #304
 769 0464 D3F82031 		ldr	r3, [r3, #288]
 770 0468 4FEA7333 		ror	r3, r3, #13
 771 046c 5A40     		eors	r2, r2, r3
 772 046e 07F5A073 		add	r3, r7, #320
 773 0472 A3F59873 		sub	r3, r3, #304
 774 0476 D3F82031 		ldr	r3, [r3, #288]
 775 047a 4FEAB353 		ror	r3, r3, #22
 776 047e 5A40     		eors	r2, r2, r3
ARM GAS  C:\Users\clay0\AppData\Local\Temp\ccksdYIU.s 			page 27


 777 0480 07F5A073 		add	r3, r7, #320
 778 0484 A3F59873 		sub	r3, r3, #304
 779 0488 D3F82011 		ldr	r1, [r3, #288]
 780 048c 07F5A073 		add	r3, r7, #320
 781 0490 A3F59873 		sub	r3, r3, #304
 782 0494 D3F82431 		ldr	r3, [r3, #292]
 783 0498 1940     		ands	r1, r1, r3
 784 049a 07F5A073 		add	r3, r7, #320
 785 049e A3F59873 		sub	r3, r3, #304
 786 04a2 D3F80801 		ldr	r0, [r3, #264]
 787 04a6 07F5A073 		add	r3, r7, #320
 788 04aa A3F59873 		sub	r3, r3, #304
 789 04ae D3F82041 		ldr	r4, [r3, #288]
 790 04b2 07F5A073 		add	r3, r7, #320
 791 04b6 A3F59873 		sub	r3, r3, #304
 792 04ba D3F82431 		ldr	r3, [r3, #292]
 793 04be 2343     		orrs	r3, r3, r4
 794 04c0 0340     		ands	r3, r3, r0
 795 04c2 0B43     		orrs	r3, r3, r1
 796 04c4 1A44     		add	r2, r2, r3
 797 04c6 07F5A073 		add	r3, r7, #320
 798 04ca A3F59873 		sub	r3, r3, #304
 799 04ce 5A60     		str	r2, [r3, #4]
 800 04d0 07F5A073 		add	r3, r7, #320
 801 04d4 A3F59873 		sub	r3, r3, #304
 802 04d8 D3F80C21 		ldr	r2, [r3, #268]
 803 04dc 07F5A073 		add	r3, r7, #320
 804 04e0 A3F59873 		sub	r3, r3, #304
 805 04e4 1B68     		ldr	r3, [r3]
 806 04e6 1A44     		add	r2, r2, r3
 807 04e8 07F5A073 		add	r3, r7, #320
 808 04ec A3F59873 		sub	r3, r3, #304
 809 04f0 C3F80C21 		str	r2, [r3, #268]
 810 04f4 07F5A073 		add	r3, r7, #320
 811 04f8 A3F59873 		sub	r3, r3, #304
 812 04fc 1A68     		ldr	r2, [r3]
 813 04fe 07F5A073 		add	r3, r7, #320
 814 0502 A3F59873 		sub	r3, r3, #304
 815 0506 5B68     		ldr	r3, [r3, #4]
 816 0508 1A44     		add	r2, r2, r3
 817 050a 07F5A073 		add	r3, r7, #320
 818 050e A3F59873 		sub	r3, r3, #304
 819 0512 01E0     		b	.L28
 820              	.L29:
 821              		.align	2
 822              	.L27:
 823 0514 00000000 		.word	K
 824              	.L28:
 825 0518 C3F81C21 		str	r2, [r3, #284]
 534:mbedTLS/library/sha256.c ****           local.A[3], local.A[4], local.A[5], local.W[i+2], K[i+2]);
 535:mbedTLS/library/sha256.c ****         P(local.A[5], local.A[6], local.A[7], local.A[0], local.A[1],
 826              		.loc 1 535 9 discriminator 3
 827 051c 07F5A073 		add	r3, r7, #320
 828 0520 A3F59873 		sub	r3, r3, #304
 829 0524 D3F81821 		ldr	r2, [r3, #280]
 830 0528 07F5A073 		add	r3, r7, #320
 831 052c A3F59873 		sub	r3, r3, #304
ARM GAS  C:\Users\clay0\AppData\Local\Temp\ccksdYIU.s 			page 28


 832 0530 D3F80C31 		ldr	r3, [r3, #268]
 833 0534 4FEAB311 		ror	r1, r3, #6
 834 0538 07F5A073 		add	r3, r7, #320
 835 053c A3F59873 		sub	r3, r3, #304
 836 0540 D3F80C31 		ldr	r3, [r3, #268]
 837 0544 4FEAF323 		ror	r3, r3, #11
 838 0548 5940     		eors	r1, r1, r3
 839 054a 07F5A073 		add	r3, r7, #320
 840 054e A3F59873 		sub	r3, r3, #304
 841 0552 D3F80C31 		ldr	r3, [r3, #268]
 842 0556 4FEA7363 		ror	r3, r3, #25
 843 055a 4B40     		eors	r3, r3, r1
 844 055c 1A44     		add	r2, r2, r3
 845 055e 07F5A073 		add	r3, r7, #320
 846 0562 A3F59873 		sub	r3, r3, #304
 847 0566 D3F81411 		ldr	r1, [r3, #276]
 848 056a 07F5A073 		add	r3, r7, #320
 849 056e A3F59873 		sub	r3, r3, #304
 850 0572 D3F80C01 		ldr	r0, [r3, #268]
 851 0576 07F5A073 		add	r3, r7, #320
 852 057a A3F59873 		sub	r3, r3, #304
 853 057e D3F81041 		ldr	r4, [r3, #272]
 854 0582 07F5A073 		add	r3, r7, #320
 855 0586 A3F59873 		sub	r3, r3, #304
 856 058a D3F81431 		ldr	r3, [r3, #276]
 857 058e 6340     		eors	r3, r3, r4
 858 0590 0340     		ands	r3, r3, r0
 859 0592 4B40     		eors	r3, r3, r1
 860 0594 1A44     		add	r2, r2, r3
 861 0596 D7F83C31 		ldr	r3, [r7, #316]
 862 059a 0333     		adds	r3, r3, #3
 863 059c F449     		ldr	r1, .L30
 864 059e 51F82330 		ldr	r3, [r1, r3, lsl #2]
 865 05a2 1A44     		add	r2, r2, r3
 866 05a4 D7F83C31 		ldr	r3, [r7, #316]
 867 05a8 D91C     		adds	r1, r3, #3
 868 05aa 07F5A073 		add	r3, r7, #320
 869 05ae A3F59873 		sub	r3, r3, #304
 870 05b2 0231     		adds	r1, r1, #2
 871 05b4 53F82130 		ldr	r3, [r3, r1, lsl #2]
 872 05b8 1A44     		add	r2, r2, r3
 873 05ba 07F5A073 		add	r3, r7, #320
 874 05be A3F59873 		sub	r3, r3, #304
 875 05c2 1A60     		str	r2, [r3]
 876 05c4 07F5A073 		add	r3, r7, #320
 877 05c8 A3F59873 		sub	r3, r3, #304
 878 05cc D3F81C31 		ldr	r3, [r3, #284]
 879 05d0 4FEAB302 		ror	r2, r3, #2
 880 05d4 07F5A073 		add	r3, r7, #320
 881 05d8 A3F59873 		sub	r3, r3, #304
 882 05dc D3F81C31 		ldr	r3, [r3, #284]
 883 05e0 4FEA7333 		ror	r3, r3, #13
 884 05e4 5A40     		eors	r2, r2, r3
 885 05e6 07F5A073 		add	r3, r7, #320
 886 05ea A3F59873 		sub	r3, r3, #304
 887 05ee D3F81C31 		ldr	r3, [r3, #284]
 888 05f2 4FEAB353 		ror	r3, r3, #22
ARM GAS  C:\Users\clay0\AppData\Local\Temp\ccksdYIU.s 			page 29


 889 05f6 5A40     		eors	r2, r2, r3
 890 05f8 07F5A073 		add	r3, r7, #320
 891 05fc A3F59873 		sub	r3, r3, #304
 892 0600 D3F81C11 		ldr	r1, [r3, #284]
 893 0604 07F5A073 		add	r3, r7, #320
 894 0608 A3F59873 		sub	r3, r3, #304
 895 060c D3F82031 		ldr	r3, [r3, #288]
 896 0610 1940     		ands	r1, r1, r3
 897 0612 07F5A073 		add	r3, r7, #320
 898 0616 A3F59873 		sub	r3, r3, #304
 899 061a D3F82401 		ldr	r0, [r3, #292]
 900 061e 07F5A073 		add	r3, r7, #320
 901 0622 A3F59873 		sub	r3, r3, #304
 902 0626 D3F81C41 		ldr	r4, [r3, #284]
 903 062a 07F5A073 		add	r3, r7, #320
 904 062e A3F59873 		sub	r3, r3, #304
 905 0632 D3F82031 		ldr	r3, [r3, #288]
 906 0636 2343     		orrs	r3, r3, r4
 907 0638 0340     		ands	r3, r3, r0
 908 063a 0B43     		orrs	r3, r3, r1
 909 063c 1A44     		add	r2, r2, r3
 910 063e 07F5A073 		add	r3, r7, #320
 911 0642 A3F59873 		sub	r3, r3, #304
 912 0646 5A60     		str	r2, [r3, #4]
 913 0648 07F5A073 		add	r3, r7, #320
 914 064c A3F59873 		sub	r3, r3, #304
 915 0650 D3F80821 		ldr	r2, [r3, #264]
 916 0654 07F5A073 		add	r3, r7, #320
 917 0658 A3F59873 		sub	r3, r3, #304
 918 065c 1B68     		ldr	r3, [r3]
 919 065e 1A44     		add	r2, r2, r3
 920 0660 07F5A073 		add	r3, r7, #320
 921 0664 A3F59873 		sub	r3, r3, #304
 922 0668 C3F80821 		str	r2, [r3, #264]
 923 066c 07F5A073 		add	r3, r7, #320
 924 0670 A3F59873 		sub	r3, r3, #304
 925 0674 1A68     		ldr	r2, [r3]
 926 0676 07F5A073 		add	r3, r7, #320
 927 067a A3F59873 		sub	r3, r3, #304
 928 067e 5B68     		ldr	r3, [r3, #4]
 929 0680 1A44     		add	r2, r2, r3
 930 0682 07F5A073 		add	r3, r7, #320
 931 0686 A3F59873 		sub	r3, r3, #304
 932 068a C3F81821 		str	r2, [r3, #280]
 536:mbedTLS/library/sha256.c ****           local.A[2], local.A[3], local.A[4], local.W[i+3], K[i+3]);
 537:mbedTLS/library/sha256.c ****         P(local.A[4], local.A[5], local.A[6], local.A[7], local.A[0],
 933              		.loc 1 537 9 discriminator 3
 934 068e 07F5A073 		add	r3, r7, #320
 935 0692 A3F59873 		sub	r3, r3, #304
 936 0696 D3F81421 		ldr	r2, [r3, #276]
 937 069a 07F5A073 		add	r3, r7, #320
 938 069e A3F59873 		sub	r3, r3, #304
 939 06a2 D3F80831 		ldr	r3, [r3, #264]
 940 06a6 4FEAB311 		ror	r1, r3, #6
 941 06aa 07F5A073 		add	r3, r7, #320
 942 06ae A3F59873 		sub	r3, r3, #304
 943 06b2 D3F80831 		ldr	r3, [r3, #264]
ARM GAS  C:\Users\clay0\AppData\Local\Temp\ccksdYIU.s 			page 30


 944 06b6 4FEAF323 		ror	r3, r3, #11
 945 06ba 5940     		eors	r1, r1, r3
 946 06bc 07F5A073 		add	r3, r7, #320
 947 06c0 A3F59873 		sub	r3, r3, #304
 948 06c4 D3F80831 		ldr	r3, [r3, #264]
 949 06c8 4FEA7363 		ror	r3, r3, #25
 950 06cc 4B40     		eors	r3, r3, r1
 951 06ce 1A44     		add	r2, r2, r3
 952 06d0 07F5A073 		add	r3, r7, #320
 953 06d4 A3F59873 		sub	r3, r3, #304
 954 06d8 D3F81011 		ldr	r1, [r3, #272]
 955 06dc 07F5A073 		add	r3, r7, #320
 956 06e0 A3F59873 		sub	r3, r3, #304
 957 06e4 D3F80801 		ldr	r0, [r3, #264]
 958 06e8 07F5A073 		add	r3, r7, #320
 959 06ec A3F59873 		sub	r3, r3, #304
 960 06f0 D3F80C41 		ldr	r4, [r3, #268]
 961 06f4 07F5A073 		add	r3, r7, #320
 962 06f8 A3F59873 		sub	r3, r3, #304
 963 06fc D3F81031 		ldr	r3, [r3, #272]
 964 0700 6340     		eors	r3, r3, r4
 965 0702 0340     		ands	r3, r3, r0
 966 0704 4B40     		eors	r3, r3, r1
 967 0706 1A44     		add	r2, r2, r3
 968 0708 D7F83C31 		ldr	r3, [r7, #316]
 969 070c 0433     		adds	r3, r3, #4
 970 070e 9849     		ldr	r1, .L30
 971 0710 51F82330 		ldr	r3, [r1, r3, lsl #2]
 972 0714 1A44     		add	r2, r2, r3
 973 0716 D7F83C31 		ldr	r3, [r7, #316]
 974 071a 191D     		adds	r1, r3, #4
 975 071c 07F5A073 		add	r3, r7, #320
 976 0720 A3F59873 		sub	r3, r3, #304
 977 0724 0231     		adds	r1, r1, #2
 978 0726 53F82130 		ldr	r3, [r3, r1, lsl #2]
 979 072a 1A44     		add	r2, r2, r3
 980 072c 07F5A073 		add	r3, r7, #320
 981 0730 A3F59873 		sub	r3, r3, #304
 982 0734 1A60     		str	r2, [r3]
 983 0736 07F5A073 		add	r3, r7, #320
 984 073a A3F59873 		sub	r3, r3, #304
 985 073e D3F81831 		ldr	r3, [r3, #280]
 986 0742 4FEAB302 		ror	r2, r3, #2
 987 0746 07F5A073 		add	r3, r7, #320
 988 074a A3F59873 		sub	r3, r3, #304
 989 074e D3F81831 		ldr	r3, [r3, #280]
 990 0752 4FEA7333 		ror	r3, r3, #13
 991 0756 5A40     		eors	r2, r2, r3
 992 0758 07F5A073 		add	r3, r7, #320
 993 075c A3F59873 		sub	r3, r3, #304
 994 0760 D3F81831 		ldr	r3, [r3, #280]
 995 0764 4FEAB353 		ror	r3, r3, #22
 996 0768 5A40     		eors	r2, r2, r3
 997 076a 07F5A073 		add	r3, r7, #320
 998 076e A3F59873 		sub	r3, r3, #304
 999 0772 D3F81811 		ldr	r1, [r3, #280]
 1000 0776 07F5A073 		add	r3, r7, #320
ARM GAS  C:\Users\clay0\AppData\Local\Temp\ccksdYIU.s 			page 31


 1001 077a A3F59873 		sub	r3, r3, #304
 1002 077e D3F81C31 		ldr	r3, [r3, #284]
 1003 0782 1940     		ands	r1, r1, r3
 1004 0784 07F5A073 		add	r3, r7, #320
 1005 0788 A3F59873 		sub	r3, r3, #304
 1006 078c D3F82001 		ldr	r0, [r3, #288]
 1007 0790 07F5A073 		add	r3, r7, #320
 1008 0794 A3F59873 		sub	r3, r3, #304
 1009 0798 D3F81841 		ldr	r4, [r3, #280]
 1010 079c 07F5A073 		add	r3, r7, #320
 1011 07a0 A3F59873 		sub	r3, r3, #304
 1012 07a4 D3F81C31 		ldr	r3, [r3, #284]
 1013 07a8 2343     		orrs	r3, r3, r4
 1014 07aa 0340     		ands	r3, r3, r0
 1015 07ac 0B43     		orrs	r3, r3, r1
 1016 07ae 1A44     		add	r2, r2, r3
 1017 07b0 07F5A073 		add	r3, r7, #320
 1018 07b4 A3F59873 		sub	r3, r3, #304
 1019 07b8 5A60     		str	r2, [r3, #4]
 1020 07ba 07F5A073 		add	r3, r7, #320
 1021 07be A3F59873 		sub	r3, r3, #304
 1022 07c2 D3F82421 		ldr	r2, [r3, #292]
 1023 07c6 07F5A073 		add	r3, r7, #320
 1024 07ca A3F59873 		sub	r3, r3, #304
 1025 07ce 1B68     		ldr	r3, [r3]
 1026 07d0 1A44     		add	r2, r2, r3
 1027 07d2 07F5A073 		add	r3, r7, #320
 1028 07d6 A3F59873 		sub	r3, r3, #304
 1029 07da C3F82421 		str	r2, [r3, #292]
 1030 07de 07F5A073 		add	r3, r7, #320
 1031 07e2 A3F59873 		sub	r3, r3, #304
 1032 07e6 1A68     		ldr	r2, [r3]
 1033 07e8 07F5A073 		add	r3, r7, #320
 1034 07ec A3F59873 		sub	r3, r3, #304
 1035 07f0 5B68     		ldr	r3, [r3, #4]
 1036 07f2 1A44     		add	r2, r2, r3
 1037 07f4 07F5A073 		add	r3, r7, #320
 1038 07f8 A3F59873 		sub	r3, r3, #304
 1039 07fc C3F81421 		str	r2, [r3, #276]
 538:mbedTLS/library/sha256.c ****           local.A[1], local.A[2], local.A[3], local.W[i+4], K[i+4]);
 539:mbedTLS/library/sha256.c ****         P(local.A[3], local.A[4], local.A[5], local.A[6], local.A[7],
 1040              		.loc 1 539 9 discriminator 3
 1041 0800 07F5A073 		add	r3, r7, #320
 1042 0804 A3F59873 		sub	r3, r3, #304
 1043 0808 D3F81021 		ldr	r2, [r3, #272]
 1044 080c 07F5A073 		add	r3, r7, #320
 1045 0810 A3F59873 		sub	r3, r3, #304
 1046 0814 D3F82431 		ldr	r3, [r3, #292]
 1047 0818 4FEAB311 		ror	r1, r3, #6
 1048 081c 07F5A073 		add	r3, r7, #320
 1049 0820 A3F59873 		sub	r3, r3, #304
 1050 0824 D3F82431 		ldr	r3, [r3, #292]
 1051 0828 4FEAF323 		ror	r3, r3, #11
 1052 082c 5940     		eors	r1, r1, r3
 1053 082e 07F5A073 		add	r3, r7, #320
 1054 0832 A3F59873 		sub	r3, r3, #304
 1055 0836 D3F82431 		ldr	r3, [r3, #292]
ARM GAS  C:\Users\clay0\AppData\Local\Temp\ccksdYIU.s 			page 32


 1056 083a 4FEA7363 		ror	r3, r3, #25
 1057 083e 4B40     		eors	r3, r3, r1
 1058 0840 1A44     		add	r2, r2, r3
 1059 0842 07F5A073 		add	r3, r7, #320
 1060 0846 A3F59873 		sub	r3, r3, #304
 1061 084a D3F80C11 		ldr	r1, [r3, #268]
 1062 084e 07F5A073 		add	r3, r7, #320
 1063 0852 A3F59873 		sub	r3, r3, #304
 1064 0856 D3F82401 		ldr	r0, [r3, #292]
 1065 085a 07F5A073 		add	r3, r7, #320
 1066 085e A3F59873 		sub	r3, r3, #304
 1067 0862 D3F80841 		ldr	r4, [r3, #264]
 1068 0866 07F5A073 		add	r3, r7, #320
 1069 086a A3F59873 		sub	r3, r3, #304
 1070 086e D3F80C31 		ldr	r3, [r3, #268]
 1071 0872 6340     		eors	r3, r3, r4
 1072 0874 0340     		ands	r3, r3, r0
 1073 0876 4B40     		eors	r3, r3, r1
 1074 0878 1A44     		add	r2, r2, r3
 1075 087a D7F83C31 		ldr	r3, [r7, #316]
 1076 087e 0533     		adds	r3, r3, #5
 1077 0880 3B49     		ldr	r1, .L30
 1078 0882 51F82330 		ldr	r3, [r1, r3, lsl #2]
 1079 0886 1A44     		add	r2, r2, r3
 1080 0888 D7F83C31 		ldr	r3, [r7, #316]
 1081 088c 591D     		adds	r1, r3, #5
 1082 088e 07F5A073 		add	r3, r7, #320
 1083 0892 A3F59873 		sub	r3, r3, #304
 1084 0896 0231     		adds	r1, r1, #2
 1085 0898 53F82130 		ldr	r3, [r3, r1, lsl #2]
 1086 089c 1A44     		add	r2, r2, r3
 1087 089e 07F5A073 		add	r3, r7, #320
 1088 08a2 A3F59873 		sub	r3, r3, #304
 1089 08a6 1A60     		str	r2, [r3]
 1090 08a8 07F5A073 		add	r3, r7, #320
 1091 08ac A3F59873 		sub	r3, r3, #304
 1092 08b0 D3F81431 		ldr	r3, [r3, #276]
 1093 08b4 4FEAB302 		ror	r2, r3, #2
 1094 08b8 07F5A073 		add	r3, r7, #320
 1095 08bc A3F59873 		sub	r3, r3, #304
 1096 08c0 D3F81431 		ldr	r3, [r3, #276]
 1097 08c4 4FEA7333 		ror	r3, r3, #13
 1098 08c8 5A40     		eors	r2, r2, r3
 1099 08ca 07F5A073 		add	r3, r7, #320
 1100 08ce A3F59873 		sub	r3, r3, #304
 1101 08d2 D3F81431 		ldr	r3, [r3, #276]
 1102 08d6 4FEAB353 		ror	r3, r3, #22
 1103 08da 5A40     		eors	r2, r2, r3
 1104 08dc 07F5A073 		add	r3, r7, #320
 1105 08e0 A3F59873 		sub	r3, r3, #304
 1106 08e4 D3F81411 		ldr	r1, [r3, #276]
 1107 08e8 07F5A073 		add	r3, r7, #320
 1108 08ec A3F59873 		sub	r3, r3, #304
 1109 08f0 D3F81831 		ldr	r3, [r3, #280]
 1110 08f4 1940     		ands	r1, r1, r3
 1111 08f6 07F5A073 		add	r3, r7, #320
 1112 08fa A3F59873 		sub	r3, r3, #304
ARM GAS  C:\Users\clay0\AppData\Local\Temp\ccksdYIU.s 			page 33


 1113 08fe D3F81C01 		ldr	r0, [r3, #284]
 1114 0902 07F5A073 		add	r3, r7, #320
 1115 0906 A3F59873 		sub	r3, r3, #304
 1116 090a D3F81441 		ldr	r4, [r3, #276]
 1117 090e 07F5A073 		add	r3, r7, #320
 1118 0912 A3F59873 		sub	r3, r3, #304
 1119 0916 D3F81831 		ldr	r3, [r3, #280]
 1120 091a 2343     		orrs	r3, r3, r4
 1121 091c 0340     		ands	r3, r3, r0
 1122 091e 0B43     		orrs	r3, r3, r1
 1123 0920 1A44     		add	r2, r2, r3
 1124 0922 07F5A073 		add	r3, r7, #320
 1125 0926 A3F59873 		sub	r3, r3, #304
 1126 092a 5A60     		str	r2, [r3, #4]
 1127 092c 07F5A073 		add	r3, r7, #320
 1128 0930 A3F59873 		sub	r3, r3, #304
 1129 0934 D3F82021 		ldr	r2, [r3, #288]
 1130 0938 07F5A073 		add	r3, r7, #320
 1131 093c A3F59873 		sub	r3, r3, #304
 1132 0940 1B68     		ldr	r3, [r3]
 1133 0942 1A44     		add	r2, r2, r3
 1134 0944 07F5A073 		add	r3, r7, #320
 1135 0948 A3F59873 		sub	r3, r3, #304
 1136 094c C3F82021 		str	r2, [r3, #288]
 1137 0950 07F5A073 		add	r3, r7, #320
 1138 0954 A3F59873 		sub	r3, r3, #304
 1139 0958 1A68     		ldr	r2, [r3]
 1140 095a 07F5A073 		add	r3, r7, #320
 1141 095e A3F59873 		sub	r3, r3, #304
 1142 0962 5B68     		ldr	r3, [r3, #4]
 1143 0964 1A44     		add	r2, r2, r3
 1144 0966 07F5A073 		add	r3, r7, #320
 1145 096a A3F59873 		sub	r3, r3, #304
 1146 096e 01E0     		b	.L31
 1147              	.L32:
 1148              		.align	2
 1149              	.L30:
 1150 0970 00000000 		.word	K
 1151              	.L31:
 1152 0974 C3F81021 		str	r2, [r3, #272]
 540:mbedTLS/library/sha256.c ****           local.A[0], local.A[1], local.A[2], local.W[i+5], K[i+5]);
 541:mbedTLS/library/sha256.c ****         P(local.A[2], local.A[3], local.A[4], local.A[5], local.A[6],
 1153              		.loc 1 541 9 discriminator 3
 1154 0978 07F5A073 		add	r3, r7, #320
 1155 097c A3F59873 		sub	r3, r3, #304
 1156 0980 D3F80C21 		ldr	r2, [r3, #268]
 1157 0984 07F5A073 		add	r3, r7, #320
 1158 0988 A3F59873 		sub	r3, r3, #304
 1159 098c D3F82031 		ldr	r3, [r3, #288]
 1160 0990 4FEAB311 		ror	r1, r3, #6
 1161 0994 07F5A073 		add	r3, r7, #320
 1162 0998 A3F59873 		sub	r3, r3, #304
 1163 099c D3F82031 		ldr	r3, [r3, #288]
 1164 09a0 4FEAF323 		ror	r3, r3, #11
 1165 09a4 5940     		eors	r1, r1, r3
 1166 09a6 07F5A073 		add	r3, r7, #320
 1167 09aa A3F59873 		sub	r3, r3, #304
ARM GAS  C:\Users\clay0\AppData\Local\Temp\ccksdYIU.s 			page 34


 1168 09ae D3F82031 		ldr	r3, [r3, #288]
 1169 09b2 4FEA7363 		ror	r3, r3, #25
 1170 09b6 4B40     		eors	r3, r3, r1
 1171 09b8 1A44     		add	r2, r2, r3
 1172 09ba 07F5A073 		add	r3, r7, #320
 1173 09be A3F59873 		sub	r3, r3, #304
 1174 09c2 D3F80811 		ldr	r1, [r3, #264]
 1175 09c6 07F5A073 		add	r3, r7, #320
 1176 09ca A3F59873 		sub	r3, r3, #304
 1177 09ce D3F82001 		ldr	r0, [r3, #288]
 1178 09d2 07F5A073 		add	r3, r7, #320
 1179 09d6 A3F59873 		sub	r3, r3, #304
 1180 09da D3F82441 		ldr	r4, [r3, #292]
 1181 09de 07F5A073 		add	r3, r7, #320
 1182 09e2 A3F59873 		sub	r3, r3, #304
 1183 09e6 D3F80831 		ldr	r3, [r3, #264]
 1184 09ea 6340     		eors	r3, r3, r4
 1185 09ec 0340     		ands	r3, r3, r0
 1186 09ee 4B40     		eors	r3, r3, r1
 1187 09f0 1A44     		add	r2, r2, r3
 1188 09f2 D7F83C31 		ldr	r3, [r7, #316]
 1189 09f6 0633     		adds	r3, r3, #6
 1190 09f8 A049     		ldr	r1, .L33
 1191 09fa 51F82330 		ldr	r3, [r1, r3, lsl #2]
 1192 09fe 1A44     		add	r2, r2, r3
 1193 0a00 D7F83C31 		ldr	r3, [r7, #316]
 1194 0a04 991D     		adds	r1, r3, #6
 1195 0a06 07F5A073 		add	r3, r7, #320
 1196 0a0a A3F59873 		sub	r3, r3, #304
 1197 0a0e 0231     		adds	r1, r1, #2
 1198 0a10 53F82130 		ldr	r3, [r3, r1, lsl #2]
 1199 0a14 1A44     		add	r2, r2, r3
 1200 0a16 07F5A073 		add	r3, r7, #320
 1201 0a1a A3F59873 		sub	r3, r3, #304
 1202 0a1e 1A60     		str	r2, [r3]
 1203 0a20 07F5A073 		add	r3, r7, #320
 1204 0a24 A3F59873 		sub	r3, r3, #304
 1205 0a28 D3F81031 		ldr	r3, [r3, #272]
 1206 0a2c 4FEAB302 		ror	r2, r3, #2
 1207 0a30 07F5A073 		add	r3, r7, #320
 1208 0a34 A3F59873 		sub	r3, r3, #304
 1209 0a38 D3F81031 		ldr	r3, [r3, #272]
 1210 0a3c 4FEA7333 		ror	r3, r3, #13
 1211 0a40 5A40     		eors	r2, r2, r3
 1212 0a42 07F5A073 		add	r3, r7, #320
 1213 0a46 A3F59873 		sub	r3, r3, #304
 1214 0a4a D3F81031 		ldr	r3, [r3, #272]
 1215 0a4e 4FEAB353 		ror	r3, r3, #22
 1216 0a52 5A40     		eors	r2, r2, r3
 1217 0a54 07F5A073 		add	r3, r7, #320
 1218 0a58 A3F59873 		sub	r3, r3, #304
 1219 0a5c D3F81011 		ldr	r1, [r3, #272]
 1220 0a60 07F5A073 		add	r3, r7, #320
 1221 0a64 A3F59873 		sub	r3, r3, #304
 1222 0a68 D3F81431 		ldr	r3, [r3, #276]
 1223 0a6c 1940     		ands	r1, r1, r3
 1224 0a6e 07F5A073 		add	r3, r7, #320
ARM GAS  C:\Users\clay0\AppData\Local\Temp\ccksdYIU.s 			page 35


 1225 0a72 A3F59873 		sub	r3, r3, #304
 1226 0a76 D3F81801 		ldr	r0, [r3, #280]
 1227 0a7a 07F5A073 		add	r3, r7, #320
 1228 0a7e A3F59873 		sub	r3, r3, #304
 1229 0a82 D3F81041 		ldr	r4, [r3, #272]
 1230 0a86 07F5A073 		add	r3, r7, #320
 1231 0a8a A3F59873 		sub	r3, r3, #304
 1232 0a8e D3F81431 		ldr	r3, [r3, #276]
 1233 0a92 2343     		orrs	r3, r3, r4
 1234 0a94 0340     		ands	r3, r3, r0
 1235 0a96 0B43     		orrs	r3, r3, r1
 1236 0a98 1A44     		add	r2, r2, r3
 1237 0a9a 07F5A073 		add	r3, r7, #320
 1238 0a9e A3F59873 		sub	r3, r3, #304
 1239 0aa2 5A60     		str	r2, [r3, #4]
 1240 0aa4 07F5A073 		add	r3, r7, #320
 1241 0aa8 A3F59873 		sub	r3, r3, #304
 1242 0aac D3F81C21 		ldr	r2, [r3, #284]
 1243 0ab0 07F5A073 		add	r3, r7, #320
 1244 0ab4 A3F59873 		sub	r3, r3, #304
 1245 0ab8 1B68     		ldr	r3, [r3]
 1246 0aba 1A44     		add	r2, r2, r3
 1247 0abc 07F5A073 		add	r3, r7, #320
 1248 0ac0 A3F59873 		sub	r3, r3, #304
 1249 0ac4 C3F81C21 		str	r2, [r3, #284]
 1250 0ac8 07F5A073 		add	r3, r7, #320
 1251 0acc A3F59873 		sub	r3, r3, #304
 1252 0ad0 1A68     		ldr	r2, [r3]
 1253 0ad2 07F5A073 		add	r3, r7, #320
 1254 0ad6 A3F59873 		sub	r3, r3, #304
 1255 0ada 5B68     		ldr	r3, [r3, #4]
 1256 0adc 1A44     		add	r2, r2, r3
 1257 0ade 07F5A073 		add	r3, r7, #320
 1258 0ae2 A3F59873 		sub	r3, r3, #304
 1259 0ae6 C3F80C21 		str	r2, [r3, #268]
 542:mbedTLS/library/sha256.c ****           local.A[7], local.A[0], local.A[1], local.W[i+6], K[i+6]);
 543:mbedTLS/library/sha256.c ****         P(local.A[1], local.A[2], local.A[3], local.A[4], local.A[5],
 1260              		.loc 1 543 9 discriminator 3
 1261 0aea 07F5A073 		add	r3, r7, #320
 1262 0aee A3F59873 		sub	r3, r3, #304
 1263 0af2 D3F80821 		ldr	r2, [r3, #264]
 1264 0af6 07F5A073 		add	r3, r7, #320
 1265 0afa A3F59873 		sub	r3, r3, #304
 1266 0afe D3F81C31 		ldr	r3, [r3, #284]
 1267 0b02 4FEAB311 		ror	r1, r3, #6
 1268 0b06 07F5A073 		add	r3, r7, #320
 1269 0b0a A3F59873 		sub	r3, r3, #304
 1270 0b0e D3F81C31 		ldr	r3, [r3, #284]
 1271 0b12 4FEAF323 		ror	r3, r3, #11
 1272 0b16 5940     		eors	r1, r1, r3
 1273 0b18 07F5A073 		add	r3, r7, #320
 1274 0b1c A3F59873 		sub	r3, r3, #304
 1275 0b20 D3F81C31 		ldr	r3, [r3, #284]
 1276 0b24 4FEA7363 		ror	r3, r3, #25
 1277 0b28 4B40     		eors	r3, r3, r1
 1278 0b2a 1A44     		add	r2, r2, r3
 1279 0b2c 07F5A073 		add	r3, r7, #320
ARM GAS  C:\Users\clay0\AppData\Local\Temp\ccksdYIU.s 			page 36


 1280 0b30 A3F59873 		sub	r3, r3, #304
 1281 0b34 D3F82411 		ldr	r1, [r3, #292]
 1282 0b38 07F5A073 		add	r3, r7, #320
 1283 0b3c A3F59873 		sub	r3, r3, #304
 1284 0b40 D3F81C01 		ldr	r0, [r3, #284]
 1285 0b44 07F5A073 		add	r3, r7, #320
 1286 0b48 A3F59873 		sub	r3, r3, #304
 1287 0b4c D3F82041 		ldr	r4, [r3, #288]
 1288 0b50 07F5A073 		add	r3, r7, #320
 1289 0b54 A3F59873 		sub	r3, r3, #304
 1290 0b58 D3F82431 		ldr	r3, [r3, #292]
 1291 0b5c 6340     		eors	r3, r3, r4
 1292 0b5e 0340     		ands	r3, r3, r0
 1293 0b60 4B40     		eors	r3, r3, r1
 1294 0b62 1A44     		add	r2, r2, r3
 1295 0b64 D7F83C31 		ldr	r3, [r7, #316]
 1296 0b68 0733     		adds	r3, r3, #7
 1297 0b6a 4449     		ldr	r1, .L33
 1298 0b6c 51F82330 		ldr	r3, [r1, r3, lsl #2]
 1299 0b70 1A44     		add	r2, r2, r3
 1300 0b72 D7F83C31 		ldr	r3, [r7, #316]
 1301 0b76 D91D     		adds	r1, r3, #7
 1302 0b78 07F5A073 		add	r3, r7, #320
 1303 0b7c A3F59873 		sub	r3, r3, #304
 1304 0b80 0231     		adds	r1, r1, #2
 1305 0b82 53F82130 		ldr	r3, [r3, r1, lsl #2]
 1306 0b86 1A44     		add	r2, r2, r3
 1307 0b88 07F5A073 		add	r3, r7, #320
 1308 0b8c A3F59873 		sub	r3, r3, #304
 1309 0b90 1A60     		str	r2, [r3]
 1310 0b92 07F5A073 		add	r3, r7, #320
 1311 0b96 A3F59873 		sub	r3, r3, #304
 1312 0b9a D3F80C31 		ldr	r3, [r3, #268]
 1313 0b9e 4FEAB302 		ror	r2, r3, #2
 1314 0ba2 07F5A073 		add	r3, r7, #320
 1315 0ba6 A3F59873 		sub	r3, r3, #304
 1316 0baa D3F80C31 		ldr	r3, [r3, #268]
 1317 0bae 4FEA7333 		ror	r3, r3, #13
 1318 0bb2 5A40     		eors	r2, r2, r3
 1319 0bb4 07F5A073 		add	r3, r7, #320
 1320 0bb8 A3F59873 		sub	r3, r3, #304
 1321 0bbc D3F80C31 		ldr	r3, [r3, #268]
 1322 0bc0 4FEAB353 		ror	r3, r3, #22
 1323 0bc4 5A40     		eors	r2, r2, r3
 1324 0bc6 07F5A073 		add	r3, r7, #320
 1325 0bca A3F59873 		sub	r3, r3, #304
 1326 0bce D3F80C11 		ldr	r1, [r3, #268]
 1327 0bd2 07F5A073 		add	r3, r7, #320
 1328 0bd6 A3F59873 		sub	r3, r3, #304
 1329 0bda D3F81031 		ldr	r3, [r3, #272]
 1330 0bde 1940     		ands	r1, r1, r3
 1331 0be0 07F5A073 		add	r3, r7, #320
 1332 0be4 A3F59873 		sub	r3, r3, #304
 1333 0be8 D3F81401 		ldr	r0, [r3, #276]
 1334 0bec 07F5A073 		add	r3, r7, #320
 1335 0bf0 A3F59873 		sub	r3, r3, #304
 1336 0bf4 D3F80C41 		ldr	r4, [r3, #268]
ARM GAS  C:\Users\clay0\AppData\Local\Temp\ccksdYIU.s 			page 37


 1337 0bf8 07F5A073 		add	r3, r7, #320
 1338 0bfc A3F59873 		sub	r3, r3, #304
 1339 0c00 D3F81031 		ldr	r3, [r3, #272]
 1340 0c04 2343     		orrs	r3, r3, r4
 1341 0c06 0340     		ands	r3, r3, r0
 1342 0c08 0B43     		orrs	r3, r3, r1
 1343 0c0a 1A44     		add	r2, r2, r3
 1344 0c0c 07F5A073 		add	r3, r7, #320
 1345 0c10 A3F59873 		sub	r3, r3, #304
 1346 0c14 5A60     		str	r2, [r3, #4]
 1347 0c16 07F5A073 		add	r3, r7, #320
 1348 0c1a A3F59873 		sub	r3, r3, #304
 1349 0c1e D3F81821 		ldr	r2, [r3, #280]
 1350 0c22 07F5A073 		add	r3, r7, #320
 1351 0c26 A3F59873 		sub	r3, r3, #304
 1352 0c2a 1B68     		ldr	r3, [r3]
 1353 0c2c 1A44     		add	r2, r2, r3
 1354 0c2e 07F5A073 		add	r3, r7, #320
 1355 0c32 A3F59873 		sub	r3, r3, #304
 1356 0c36 C3F81821 		str	r2, [r3, #280]
 1357 0c3a 07F5A073 		add	r3, r7, #320
 1358 0c3e A3F59873 		sub	r3, r3, #304
 1359 0c42 1A68     		ldr	r2, [r3]
 1360 0c44 07F5A073 		add	r3, r7, #320
 1361 0c48 A3F59873 		sub	r3, r3, #304
 1362 0c4c 5B68     		ldr	r3, [r3, #4]
 1363 0c4e 1A44     		add	r2, r2, r3
 1364 0c50 07F5A073 		add	r3, r7, #320
 1365 0c54 A3F59873 		sub	r3, r3, #304
 1366 0c58 C3F80821 		str	r2, [r3, #264]
 528:mbedTLS/library/sha256.c ****         P(local.A[0], local.A[1], local.A[2], local.A[3], local.A[4],
 1367              		.loc 1 528 27 discriminator 3
 1368 0c5c D7F83C31 		ldr	r3, [r7, #316]
 1369 0c60 0833     		adds	r3, r3, #8
 1370 0c62 C7F83C31 		str	r3, [r7, #316]
 1371              	.L20:
 528:mbedTLS/library/sha256.c ****         P(local.A[0], local.A[1], local.A[2], local.A[3], local.A[4],
 1372              		.loc 1 528 5 discriminator 1
 1373 0c66 D7F83C31 		ldr	r3, [r7, #316]
 1374 0c6a 0F2B     		cmp	r3, #15
 1375 0c6c 7FF62AAA 		bls	.L21
 544:mbedTLS/library/sha256.c ****           local.A[6], local.A[7], local.A[0], local.W[i+7], K[i+7]);
 545:mbedTLS/library/sha256.c ****     }
 546:mbedTLS/library/sha256.c **** 
 547:mbedTLS/library/sha256.c ****     for (i = 16; i < 64; i += 8) {
 1376              		.loc 1 547 12
 1377 0c70 1023     		movs	r3, #16
 1378 0c72 C7F83C31 		str	r3, [r7, #316]
 1379              		.loc 1 547 5
 1380 0c76 01F039B9 		b	.L22
 1381              	.L34:
 1382 0c7a 00BF     		.align	2
 1383              	.L33:
 1384 0c7c 00000000 		.word	K
 1385              	.L23:
 548:mbedTLS/library/sha256.c ****         P(local.A[0], local.A[1], local.A[2], local.A[3], local.A[4],
 1386              		.loc 1 548 9 discriminator 3
ARM GAS  C:\Users\clay0\AppData\Local\Temp\ccksdYIU.s 			page 38


 1387 0c80 07F5A073 		add	r3, r7, #320
 1388 0c84 A3F59873 		sub	r3, r3, #304
 1389 0c88 D3F82421 		ldr	r2, [r3, #292]
 1390 0c8c 07F5A073 		add	r3, r7, #320
 1391 0c90 A3F59873 		sub	r3, r3, #304
 1392 0c94 D3F81831 		ldr	r3, [r3, #280]
 1393 0c98 4FEAB311 		ror	r1, r3, #6
 1394 0c9c 07F5A073 		add	r3, r7, #320
 1395 0ca0 A3F59873 		sub	r3, r3, #304
 1396 0ca4 D3F81831 		ldr	r3, [r3, #280]
 1397 0ca8 4FEAF323 		ror	r3, r3, #11
 1398 0cac 5940     		eors	r1, r1, r3
 1399 0cae 07F5A073 		add	r3, r7, #320
 1400 0cb2 A3F59873 		sub	r3, r3, #304
 1401 0cb6 D3F81831 		ldr	r3, [r3, #280]
 1402 0cba 4FEA7363 		ror	r3, r3, #25
 1403 0cbe 4B40     		eors	r3, r3, r1
 1404 0cc0 1A44     		add	r2, r2, r3
 1405 0cc2 07F5A073 		add	r3, r7, #320
 1406 0cc6 A3F59873 		sub	r3, r3, #304
 1407 0cca D3F82011 		ldr	r1, [r3, #288]
 1408 0cce 07F5A073 		add	r3, r7, #320
 1409 0cd2 A3F59873 		sub	r3, r3, #304
 1410 0cd6 D3F81801 		ldr	r0, [r3, #280]
 1411 0cda 07F5A073 		add	r3, r7, #320
 1412 0cde A3F59873 		sub	r3, r3, #304
 1413 0ce2 D3F81C41 		ldr	r4, [r3, #284]
 1414 0ce6 07F5A073 		add	r3, r7, #320
 1415 0cea A3F59873 		sub	r3, r3, #304
 1416 0cee D3F82031 		ldr	r3, [r3, #288]
 1417 0cf2 6340     		eors	r3, r3, r4
 1418 0cf4 0340     		ands	r3, r3, r0
 1419 0cf6 4B40     		eors	r3, r3, r1
 1420 0cf8 1A44     		add	r2, r2, r3
 1421 0cfa F949     		ldr	r1, .L35
 1422 0cfc D7F83C31 		ldr	r3, [r7, #316]
 1423 0d00 51F82330 		ldr	r3, [r1, r3, lsl #2]
 1424 0d04 1A44     		add	r2, r2, r3
 1425 0d06 D7F83C31 		ldr	r3, [r7, #316]
 1426 0d0a 991E     		subs	r1, r3, #2
 1427 0d0c 07F5A073 		add	r3, r7, #320
 1428 0d10 A3F59873 		sub	r3, r3, #304
 1429 0d14 0231     		adds	r1, r1, #2
 1430 0d16 53F82130 		ldr	r3, [r3, r1, lsl #2]
 1431 0d1a 4FEA7341 		ror	r1, r3, #17
 1432 0d1e D7F83C31 		ldr	r3, [r7, #316]
 1433 0d22 981E     		subs	r0, r3, #2
 1434 0d24 07F5A073 		add	r3, r7, #320
 1435 0d28 A3F59873 		sub	r3, r3, #304
 1436 0d2c 0230     		adds	r0, r0, #2
 1437 0d2e 53F82030 		ldr	r3, [r3, r0, lsl #2]
 1438 0d32 4FEAF343 		ror	r3, r3, #19
 1439 0d36 5940     		eors	r1, r1, r3
 1440 0d38 D7F83C31 		ldr	r3, [r7, #316]
 1441 0d3c 981E     		subs	r0, r3, #2
 1442 0d3e 07F5A073 		add	r3, r7, #320
 1443 0d42 A3F59873 		sub	r3, r3, #304
ARM GAS  C:\Users\clay0\AppData\Local\Temp\ccksdYIU.s 			page 39


 1444 0d46 0230     		adds	r0, r0, #2
 1445 0d48 53F82030 		ldr	r3, [r3, r0, lsl #2]
 1446 0d4c 9B0A     		lsrs	r3, r3, #10
 1447 0d4e 5940     		eors	r1, r1, r3
 1448 0d50 D7F83C31 		ldr	r3, [r7, #316]
 1449 0d54 D81F     		subs	r0, r3, #7
 1450 0d56 07F5A073 		add	r3, r7, #320
 1451 0d5a A3F59873 		sub	r3, r3, #304
 1452 0d5e 0230     		adds	r0, r0, #2
 1453 0d60 53F82030 		ldr	r3, [r3, r0, lsl #2]
 1454 0d64 1944     		add	r1, r1, r3
 1455 0d66 D7F83C31 		ldr	r3, [r7, #316]
 1456 0d6a A3F10F00 		sub	r0, r3, #15
 1457 0d6e 07F5A073 		add	r3, r7, #320
 1458 0d72 A3F59873 		sub	r3, r3, #304
 1459 0d76 0230     		adds	r0, r0, #2
 1460 0d78 53F82030 		ldr	r3, [r3, r0, lsl #2]
 1461 0d7c 4FEAF310 		ror	r0, r3, #7
 1462 0d80 D7F83C31 		ldr	r3, [r7, #316]
 1463 0d84 A3F10F04 		sub	r4, r3, #15
 1464 0d88 07F5A073 		add	r3, r7, #320
 1465 0d8c A3F59873 		sub	r3, r3, #304
 1466 0d90 0234     		adds	r4, r4, #2
 1467 0d92 53F82430 		ldr	r3, [r3, r4, lsl #2]
 1468 0d96 4FEAB343 		ror	r3, r3, #18
 1469 0d9a 5840     		eors	r0, r0, r3
 1470 0d9c D7F83C31 		ldr	r3, [r7, #316]
 1471 0da0 A3F10F04 		sub	r4, r3, #15
 1472 0da4 07F5A073 		add	r3, r7, #320
 1473 0da8 A3F59873 		sub	r3, r3, #304
 1474 0dac 0234     		adds	r4, r4, #2
 1475 0dae 53F82430 		ldr	r3, [r3, r4, lsl #2]
 1476 0db2 DB08     		lsrs	r3, r3, #3
 1477 0db4 4340     		eors	r3, r3, r0
 1478 0db6 1944     		add	r1, r1, r3
 1479 0db8 D7F83C31 		ldr	r3, [r7, #316]
 1480 0dbc A3F11000 		sub	r0, r3, #16
 1481 0dc0 07F5A073 		add	r3, r7, #320
 1482 0dc4 A3F59873 		sub	r3, r3, #304
 1483 0dc8 0230     		adds	r0, r0, #2
 1484 0dca 53F82030 		ldr	r3, [r3, r0, lsl #2]
 1485 0dce C818     		adds	r0, r1, r3
 1486 0dd0 07F5A073 		add	r3, r7, #320
 1487 0dd4 A3F59873 		sub	r3, r3, #304
 1488 0dd8 D7F83C11 		ldr	r1, [r7, #316]
 1489 0ddc 0231     		adds	r1, r1, #2
 1490 0dde 43F82100 		str	r0, [r3, r1, lsl #2]
 1491 0de2 07F5A073 		add	r3, r7, #320
 1492 0de6 A3F59873 		sub	r3, r3, #304
 1493 0dea D7F83C11 		ldr	r1, [r7, #316]
 1494 0dee 0231     		adds	r1, r1, #2
 1495 0df0 53F82130 		ldr	r3, [r3, r1, lsl #2]
 1496 0df4 1A44     		add	r2, r2, r3
 1497 0df6 07F5A073 		add	r3, r7, #320
 1498 0dfa A3F59873 		sub	r3, r3, #304
 1499 0dfe 1A60     		str	r2, [r3]
 1500 0e00 07F5A073 		add	r3, r7, #320
ARM GAS  C:\Users\clay0\AppData\Local\Temp\ccksdYIU.s 			page 40


 1501 0e04 A3F59873 		sub	r3, r3, #304
 1502 0e08 D3F80831 		ldr	r3, [r3, #264]
 1503 0e0c 4FEAB302 		ror	r2, r3, #2
 1504 0e10 07F5A073 		add	r3, r7, #320
 1505 0e14 A3F59873 		sub	r3, r3, #304
 1506 0e18 D3F80831 		ldr	r3, [r3, #264]
 1507 0e1c 4FEA7333 		ror	r3, r3, #13
 1508 0e20 5A40     		eors	r2, r2, r3
 1509 0e22 07F5A073 		add	r3, r7, #320
 1510 0e26 A3F59873 		sub	r3, r3, #304
 1511 0e2a D3F80831 		ldr	r3, [r3, #264]
 1512 0e2e 4FEAB353 		ror	r3, r3, #22
 1513 0e32 5A40     		eors	r2, r2, r3
 1514 0e34 07F5A073 		add	r3, r7, #320
 1515 0e38 A3F59873 		sub	r3, r3, #304
 1516 0e3c D3F80811 		ldr	r1, [r3, #264]
 1517 0e40 07F5A073 		add	r3, r7, #320
 1518 0e44 A3F59873 		sub	r3, r3, #304
 1519 0e48 D3F80C31 		ldr	r3, [r3, #268]
 1520 0e4c 1940     		ands	r1, r1, r3
 1521 0e4e 07F5A073 		add	r3, r7, #320
 1522 0e52 A3F59873 		sub	r3, r3, #304
 1523 0e56 D3F81001 		ldr	r0, [r3, #272]
 1524 0e5a 07F5A073 		add	r3, r7, #320
 1525 0e5e A3F59873 		sub	r3, r3, #304
 1526 0e62 D3F80841 		ldr	r4, [r3, #264]
 1527 0e66 07F5A073 		add	r3, r7, #320
 1528 0e6a A3F59873 		sub	r3, r3, #304
 1529 0e6e D3F80C31 		ldr	r3, [r3, #268]
 1530 0e72 2343     		orrs	r3, r3, r4
 1531 0e74 0340     		ands	r3, r3, r0
 1532 0e76 0B43     		orrs	r3, r3, r1
 1533 0e78 1A44     		add	r2, r2, r3
 1534 0e7a 07F5A073 		add	r3, r7, #320
 1535 0e7e A3F59873 		sub	r3, r3, #304
 1536 0e82 5A60     		str	r2, [r3, #4]
 1537 0e84 07F5A073 		add	r3, r7, #320
 1538 0e88 A3F59873 		sub	r3, r3, #304
 1539 0e8c D3F81421 		ldr	r2, [r3, #276]
 1540 0e90 07F5A073 		add	r3, r7, #320
 1541 0e94 A3F59873 		sub	r3, r3, #304
 1542 0e98 1B68     		ldr	r3, [r3]
 1543 0e9a 1A44     		add	r2, r2, r3
 1544 0e9c 07F5A073 		add	r3, r7, #320
 1545 0ea0 A3F59873 		sub	r3, r3, #304
 1546 0ea4 C3F81421 		str	r2, [r3, #276]
 1547 0ea8 07F5A073 		add	r3, r7, #320
 1548 0eac A3F59873 		sub	r3, r3, #304
 1549 0eb0 1A68     		ldr	r2, [r3]
 1550 0eb2 07F5A073 		add	r3, r7, #320
 1551 0eb6 A3F59873 		sub	r3, r3, #304
 1552 0eba 5B68     		ldr	r3, [r3, #4]
 1553 0ebc 1A44     		add	r2, r2, r3
 1554 0ebe 07F5A073 		add	r3, r7, #320
 1555 0ec2 A3F59873 		sub	r3, r3, #304
 1556 0ec6 C3F82421 		str	r2, [r3, #292]
 549:mbedTLS/library/sha256.c ****           local.A[5], local.A[6], local.A[7], R(i+0), K[i+0]);
ARM GAS  C:\Users\clay0\AppData\Local\Temp\ccksdYIU.s 			page 41


 550:mbedTLS/library/sha256.c ****         P(local.A[7], local.A[0], local.A[1], local.A[2], local.A[3],
 1557              		.loc 1 550 9 discriminator 3
 1558 0eca 07F5A073 		add	r3, r7, #320
 1559 0ece A3F59873 		sub	r3, r3, #304
 1560 0ed2 D3F82021 		ldr	r2, [r3, #288]
 1561 0ed6 07F5A073 		add	r3, r7, #320
 1562 0eda A3F59873 		sub	r3, r3, #304
 1563 0ede D3F81431 		ldr	r3, [r3, #276]
 1564 0ee2 4FEAB311 		ror	r1, r3, #6
 1565 0ee6 07F5A073 		add	r3, r7, #320
 1566 0eea A3F59873 		sub	r3, r3, #304
 1567 0eee D3F81431 		ldr	r3, [r3, #276]
 1568 0ef2 4FEAF323 		ror	r3, r3, #11
 1569 0ef6 5940     		eors	r1, r1, r3
 1570 0ef8 07F5A073 		add	r3, r7, #320
 1571 0efc A3F59873 		sub	r3, r3, #304
 1572 0f00 D3F81431 		ldr	r3, [r3, #276]
 1573 0f04 4FEA7363 		ror	r3, r3, #25
 1574 0f08 4B40     		eors	r3, r3, r1
 1575 0f0a 1A44     		add	r2, r2, r3
 1576 0f0c 07F5A073 		add	r3, r7, #320
 1577 0f10 A3F59873 		sub	r3, r3, #304
 1578 0f14 D3F81C11 		ldr	r1, [r3, #284]
 1579 0f18 07F5A073 		add	r3, r7, #320
 1580 0f1c A3F59873 		sub	r3, r3, #304
 1581 0f20 D3F81401 		ldr	r0, [r3, #276]
 1582 0f24 07F5A073 		add	r3, r7, #320
 1583 0f28 A3F59873 		sub	r3, r3, #304
 1584 0f2c D3F81841 		ldr	r4, [r3, #280]
 1585 0f30 07F5A073 		add	r3, r7, #320
 1586 0f34 A3F59873 		sub	r3, r3, #304
 1587 0f38 D3F81C31 		ldr	r3, [r3, #284]
 1588 0f3c 6340     		eors	r3, r3, r4
 1589 0f3e 0340     		ands	r3, r3, r0
 1590 0f40 4B40     		eors	r3, r3, r1
 1591 0f42 1A44     		add	r2, r2, r3
 1592 0f44 D7F83C31 		ldr	r3, [r7, #316]
 1593 0f48 0133     		adds	r3, r3, #1
 1594 0f4a 6549     		ldr	r1, .L35
 1595 0f4c 51F82330 		ldr	r3, [r1, r3, lsl #2]
 1596 0f50 1A44     		add	r2, r2, r3
 1597 0f52 D7F83C31 		ldr	r3, [r7, #316]
 1598 0f56 591E     		subs	r1, r3, #1
 1599 0f58 07F5A073 		add	r3, r7, #320
 1600 0f5c A3F59873 		sub	r3, r3, #304
 1601 0f60 0231     		adds	r1, r1, #2
 1602 0f62 53F82130 		ldr	r3, [r3, r1, lsl #2]
 1603 0f66 4FEA7341 		ror	r1, r3, #17
 1604 0f6a D7F83C31 		ldr	r3, [r7, #316]
 1605 0f6e 581E     		subs	r0, r3, #1
 1606 0f70 07F5A073 		add	r3, r7, #320
 1607 0f74 A3F59873 		sub	r3, r3, #304
 1608 0f78 0230     		adds	r0, r0, #2
 1609 0f7a 53F82030 		ldr	r3, [r3, r0, lsl #2]
 1610 0f7e 4FEAF343 		ror	r3, r3, #19
 1611 0f82 5940     		eors	r1, r1, r3
 1612 0f84 D7F83C31 		ldr	r3, [r7, #316]
ARM GAS  C:\Users\clay0\AppData\Local\Temp\ccksdYIU.s 			page 42


 1613 0f88 581E     		subs	r0, r3, #1
 1614 0f8a 07F5A073 		add	r3, r7, #320
 1615 0f8e A3F59873 		sub	r3, r3, #304
 1616 0f92 0230     		adds	r0, r0, #2
 1617 0f94 53F82030 		ldr	r3, [r3, r0, lsl #2]
 1618 0f98 9B0A     		lsrs	r3, r3, #10
 1619 0f9a 5940     		eors	r1, r1, r3
 1620 0f9c D7F83C31 		ldr	r3, [r7, #316]
 1621 0fa0 981F     		subs	r0, r3, #6
 1622 0fa2 07F5A073 		add	r3, r7, #320
 1623 0fa6 A3F59873 		sub	r3, r3, #304
 1624 0faa 0230     		adds	r0, r0, #2
 1625 0fac 53F82030 		ldr	r3, [r3, r0, lsl #2]
 1626 0fb0 1944     		add	r1, r1, r3
 1627 0fb2 D7F83C31 		ldr	r3, [r7, #316]
 1628 0fb6 A3F10E00 		sub	r0, r3, #14
 1629 0fba 07F5A073 		add	r3, r7, #320
 1630 0fbe A3F59873 		sub	r3, r3, #304
 1631 0fc2 0230     		adds	r0, r0, #2
 1632 0fc4 53F82030 		ldr	r3, [r3, r0, lsl #2]
 1633 0fc8 4FEAF310 		ror	r0, r3, #7
 1634 0fcc D7F83C31 		ldr	r3, [r7, #316]
 1635 0fd0 A3F10E04 		sub	r4, r3, #14
 1636 0fd4 07F5A073 		add	r3, r7, #320
 1637 0fd8 A3F59873 		sub	r3, r3, #304
 1638 0fdc 0234     		adds	r4, r4, #2
 1639 0fde 53F82430 		ldr	r3, [r3, r4, lsl #2]
 1640 0fe2 4FEAB343 		ror	r3, r3, #18
 1641 0fe6 5840     		eors	r0, r0, r3
 1642 0fe8 D7F83C31 		ldr	r3, [r7, #316]
 1643 0fec A3F10E04 		sub	r4, r3, #14
 1644 0ff0 07F5A073 		add	r3, r7, #320
 1645 0ff4 A3F59873 		sub	r3, r3, #304
 1646 0ff8 0234     		adds	r4, r4, #2
 1647 0ffa 53F82430 		ldr	r3, [r3, r4, lsl #2]
 1648 0ffe DB08     		lsrs	r3, r3, #3
 1649 1000 4340     		eors	r3, r3, r0
 1650 1002 C818     		adds	r0, r1, r3
 1651 1004 D7F83C31 		ldr	r3, [r7, #316]
 1652 1008 A3F10F01 		sub	r1, r3, #15
 1653 100c 07F5A073 		add	r3, r7, #320
 1654 1010 A3F59873 		sub	r3, r3, #304
 1655 1014 0231     		adds	r1, r1, #2
 1656 1016 53F82110 		ldr	r1, [r3, r1, lsl #2]
 1657 101a D7F83C31 		ldr	r3, [r7, #316]
 1658 101e 0133     		adds	r3, r3, #1
 1659 1020 4418     		adds	r4, r0, r1
 1660 1022 07F5A071 		add	r1, r7, #320
 1661 1026 A1F59871 		sub	r1, r1, #304
 1662 102a 981C     		adds	r0, r3, #2
 1663 102c 41F82040 		str	r4, [r1, r0, lsl #2]
 1664 1030 07F5A071 		add	r1, r7, #320
 1665 1034 A1F59871 		sub	r1, r1, #304
 1666 1038 0233     		adds	r3, r3, #2
 1667 103a 51F82330 		ldr	r3, [r1, r3, lsl #2]
 1668 103e 1A44     		add	r2, r2, r3
 1669 1040 07F5A073 		add	r3, r7, #320
ARM GAS  C:\Users\clay0\AppData\Local\Temp\ccksdYIU.s 			page 43


 1670 1044 A3F59873 		sub	r3, r3, #304
 1671 1048 1A60     		str	r2, [r3]
 1672 104a 07F5A073 		add	r3, r7, #320
 1673 104e A3F59873 		sub	r3, r3, #304
 1674 1052 D3F82431 		ldr	r3, [r3, #292]
 1675 1056 4FEAB302 		ror	r2, r3, #2
 1676 105a 07F5A073 		add	r3, r7, #320
 1677 105e A3F59873 		sub	r3, r3, #304
 1678 1062 D3F82431 		ldr	r3, [r3, #292]
 1679 1066 4FEA7333 		ror	r3, r3, #13
 1680 106a 5A40     		eors	r2, r2, r3
 1681 106c 07F5A073 		add	r3, r7, #320
 1682 1070 A3F59873 		sub	r3, r3, #304
 1683 1074 D3F82431 		ldr	r3, [r3, #292]
 1684 1078 4FEAB353 		ror	r3, r3, #22
 1685 107c 5A40     		eors	r2, r2, r3
 1686 107e 07F5A073 		add	r3, r7, #320
 1687 1082 A3F59873 		sub	r3, r3, #304
 1688 1086 D3F82411 		ldr	r1, [r3, #292]
 1689 108a 07F5A073 		add	r3, r7, #320
 1690 108e A3F59873 		sub	r3, r3, #304
 1691 1092 D3F80831 		ldr	r3, [r3, #264]
 1692 1096 1940     		ands	r1, r1, r3
 1693 1098 07F5A073 		add	r3, r7, #320
 1694 109c A3F59873 		sub	r3, r3, #304
 1695 10a0 D3F80C01 		ldr	r0, [r3, #268]
 1696 10a4 07F5A073 		add	r3, r7, #320
 1697 10a8 A3F59873 		sub	r3, r3, #304
 1698 10ac D3F82441 		ldr	r4, [r3, #292]
 1699 10b0 07F5A073 		add	r3, r7, #320
 1700 10b4 A3F59873 		sub	r3, r3, #304
 1701 10b8 D3F80831 		ldr	r3, [r3, #264]
 1702 10bc 2343     		orrs	r3, r3, r4
 1703 10be 0340     		ands	r3, r3, r0
 1704 10c0 0B43     		orrs	r3, r3, r1
 1705 10c2 1A44     		add	r2, r2, r3
 1706 10c4 07F5A073 		add	r3, r7, #320
 1707 10c8 A3F59873 		sub	r3, r3, #304
 1708 10cc 5A60     		str	r2, [r3, #4]
 1709 10ce 07F5A073 		add	r3, r7, #320
 1710 10d2 A3F59873 		sub	r3, r3, #304
 1711 10d6 D3F81021 		ldr	r2, [r3, #272]
 1712 10da 07F5A073 		add	r3, r7, #320
 1713 10de 01E0     		b	.L36
 1714              	.L37:
 1715              		.align	2
 1716              	.L35:
 1717 10e0 00000000 		.word	K
 1718              	.L36:
 1719 10e4 A3F59873 		sub	r3, r3, #304
 1720 10e8 1B68     		ldr	r3, [r3]
 1721 10ea 1A44     		add	r2, r2, r3
 1722 10ec 07F5A073 		add	r3, r7, #320
 1723 10f0 A3F59873 		sub	r3, r3, #304
 1724 10f4 C3F81021 		str	r2, [r3, #272]
 1725 10f8 07F5A073 		add	r3, r7, #320
 1726 10fc A3F59873 		sub	r3, r3, #304
ARM GAS  C:\Users\clay0\AppData\Local\Temp\ccksdYIU.s 			page 44


 1727 1100 1A68     		ldr	r2, [r3]
 1728 1102 07F5A073 		add	r3, r7, #320
 1729 1106 A3F59873 		sub	r3, r3, #304
 1730 110a 5B68     		ldr	r3, [r3, #4]
 1731 110c 1A44     		add	r2, r2, r3
 1732 110e 07F5A073 		add	r3, r7, #320
 1733 1112 A3F59873 		sub	r3, r3, #304
 1734 1116 C3F82021 		str	r2, [r3, #288]
 551:mbedTLS/library/sha256.c ****           local.A[4], local.A[5], local.A[6], R(i+1), K[i+1]);
 552:mbedTLS/library/sha256.c ****         P(local.A[6], local.A[7], local.A[0], local.A[1], local.A[2],
 1735              		.loc 1 552 9 discriminator 3
 1736 111a 07F5A073 		add	r3, r7, #320
 1737 111e A3F59873 		sub	r3, r3, #304
 1738 1122 D3F81C21 		ldr	r2, [r3, #284]
 1739 1126 07F5A073 		add	r3, r7, #320
 1740 112a A3F59873 		sub	r3, r3, #304
 1741 112e D3F81031 		ldr	r3, [r3, #272]
 1742 1132 4FEAB311 		ror	r1, r3, #6
 1743 1136 07F5A073 		add	r3, r7, #320
 1744 113a A3F59873 		sub	r3, r3, #304
 1745 113e D3F81031 		ldr	r3, [r3, #272]
 1746 1142 4FEAF323 		ror	r3, r3, #11
 1747 1146 5940     		eors	r1, r1, r3
 1748 1148 07F5A073 		add	r3, r7, #320
 1749 114c A3F59873 		sub	r3, r3, #304
 1750 1150 D3F81031 		ldr	r3, [r3, #272]
 1751 1154 4FEA7363 		ror	r3, r3, #25
 1752 1158 4B40     		eors	r3, r3, r1
 1753 115a 1A44     		add	r2, r2, r3
 1754 115c 07F5A073 		add	r3, r7, #320
 1755 1160 A3F59873 		sub	r3, r3, #304
 1756 1164 D3F81811 		ldr	r1, [r3, #280]
 1757 1168 07F5A073 		add	r3, r7, #320
 1758 116c A3F59873 		sub	r3, r3, #304
 1759 1170 D3F81001 		ldr	r0, [r3, #272]
 1760 1174 07F5A073 		add	r3, r7, #320
 1761 1178 A3F59873 		sub	r3, r3, #304
 1762 117c D3F81441 		ldr	r4, [r3, #276]
 1763 1180 07F5A073 		add	r3, r7, #320
 1764 1184 A3F59873 		sub	r3, r3, #304
 1765 1188 D3F81831 		ldr	r3, [r3, #280]
 1766 118c 6340     		eors	r3, r3, r4
 1767 118e 0340     		ands	r3, r3, r0
 1768 1190 4B40     		eors	r3, r3, r1
 1769 1192 1A44     		add	r2, r2, r3
 1770 1194 D7F83C31 		ldr	r3, [r7, #316]
 1771 1198 0233     		adds	r3, r3, #2
 1772 119a F949     		ldr	r1, .L38
 1773 119c 51F82330 		ldr	r3, [r1, r3, lsl #2]
 1774 11a0 1A44     		add	r2, r2, r3
 1775 11a2 07F5A073 		add	r3, r7, #320
 1776 11a6 A3F59873 		sub	r3, r3, #304
 1777 11aa D7F83C11 		ldr	r1, [r7, #316]
 1778 11ae 0231     		adds	r1, r1, #2
 1779 11b0 53F82130 		ldr	r3, [r3, r1, lsl #2]
 1780 11b4 4FEA7341 		ror	r1, r3, #17
 1781 11b8 07F5A073 		add	r3, r7, #320
ARM GAS  C:\Users\clay0\AppData\Local\Temp\ccksdYIU.s 			page 45


 1782 11bc A3F59873 		sub	r3, r3, #304
 1783 11c0 D7F83C01 		ldr	r0, [r7, #316]
 1784 11c4 0230     		adds	r0, r0, #2
 1785 11c6 53F82030 		ldr	r3, [r3, r0, lsl #2]
 1786 11ca 4FEAF343 		ror	r3, r3, #19
 1787 11ce 5940     		eors	r1, r1, r3
 1788 11d0 07F5A073 		add	r3, r7, #320
 1789 11d4 A3F59873 		sub	r3, r3, #304
 1790 11d8 D7F83C01 		ldr	r0, [r7, #316]
 1791 11dc 0230     		adds	r0, r0, #2
 1792 11de 53F82030 		ldr	r3, [r3, r0, lsl #2]
 1793 11e2 9B0A     		lsrs	r3, r3, #10
 1794 11e4 5940     		eors	r1, r1, r3
 1795 11e6 D7F83C31 		ldr	r3, [r7, #316]
 1796 11ea 581F     		subs	r0, r3, #5
 1797 11ec 07F5A073 		add	r3, r7, #320
 1798 11f0 A3F59873 		sub	r3, r3, #304
 1799 11f4 0230     		adds	r0, r0, #2
 1800 11f6 53F82030 		ldr	r3, [r3, r0, lsl #2]
 1801 11fa 1944     		add	r1, r1, r3
 1802 11fc D7F83C31 		ldr	r3, [r7, #316]
 1803 1200 A3F10D00 		sub	r0, r3, #13
 1804 1204 07F5A073 		add	r3, r7, #320
 1805 1208 A3F59873 		sub	r3, r3, #304
 1806 120c 0230     		adds	r0, r0, #2
 1807 120e 53F82030 		ldr	r3, [r3, r0, lsl #2]
 1808 1212 4FEAF310 		ror	r0, r3, #7
 1809 1216 D7F83C31 		ldr	r3, [r7, #316]
 1810 121a A3F10D04 		sub	r4, r3, #13
 1811 121e 07F5A073 		add	r3, r7, #320
 1812 1222 A3F59873 		sub	r3, r3, #304
 1813 1226 0234     		adds	r4, r4, #2
 1814 1228 53F82430 		ldr	r3, [r3, r4, lsl #2]
 1815 122c 4FEAB343 		ror	r3, r3, #18
 1816 1230 5840     		eors	r0, r0, r3
 1817 1232 D7F83C31 		ldr	r3, [r7, #316]
 1818 1236 A3F10D04 		sub	r4, r3, #13
 1819 123a 07F5A073 		add	r3, r7, #320
 1820 123e A3F59873 		sub	r3, r3, #304
 1821 1242 0234     		adds	r4, r4, #2
 1822 1244 53F82430 		ldr	r3, [r3, r4, lsl #2]
 1823 1248 DB08     		lsrs	r3, r3, #3
 1824 124a 4340     		eors	r3, r3, r0
 1825 124c C818     		adds	r0, r1, r3
 1826 124e D7F83C31 		ldr	r3, [r7, #316]
 1827 1252 A3F10E01 		sub	r1, r3, #14
 1828 1256 07F5A073 		add	r3, r7, #320
 1829 125a A3F59873 		sub	r3, r3, #304
 1830 125e 0231     		adds	r1, r1, #2
 1831 1260 53F82110 		ldr	r1, [r3, r1, lsl #2]
 1832 1264 D7F83C31 		ldr	r3, [r7, #316]
 1833 1268 0233     		adds	r3, r3, #2
 1834 126a 4418     		adds	r4, r0, r1
 1835 126c 07F5A071 		add	r1, r7, #320
 1836 1270 A1F59871 		sub	r1, r1, #304
 1837 1274 981C     		adds	r0, r3, #2
 1838 1276 41F82040 		str	r4, [r1, r0, lsl #2]
ARM GAS  C:\Users\clay0\AppData\Local\Temp\ccksdYIU.s 			page 46


 1839 127a 07F5A071 		add	r1, r7, #320
 1840 127e A1F59871 		sub	r1, r1, #304
 1841 1282 0233     		adds	r3, r3, #2
 1842 1284 51F82330 		ldr	r3, [r1, r3, lsl #2]
 1843 1288 1A44     		add	r2, r2, r3
 1844 128a 07F5A073 		add	r3, r7, #320
 1845 128e A3F59873 		sub	r3, r3, #304
 1846 1292 1A60     		str	r2, [r3]
 1847 1294 07F5A073 		add	r3, r7, #320
 1848 1298 A3F59873 		sub	r3, r3, #304
 1849 129c D3F82031 		ldr	r3, [r3, #288]
 1850 12a0 4FEAB302 		ror	r2, r3, #2
 1851 12a4 07F5A073 		add	r3, r7, #320
 1852 12a8 A3F59873 		sub	r3, r3, #304
 1853 12ac D3F82031 		ldr	r3, [r3, #288]
 1854 12b0 4FEA7333 		ror	r3, r3, #13
 1855 12b4 5A40     		eors	r2, r2, r3
 1856 12b6 07F5A073 		add	r3, r7, #320
 1857 12ba A3F59873 		sub	r3, r3, #304
 1858 12be D3F82031 		ldr	r3, [r3, #288]
 1859 12c2 4FEAB353 		ror	r3, r3, #22
 1860 12c6 5A40     		eors	r2, r2, r3
 1861 12c8 07F5A073 		add	r3, r7, #320
 1862 12cc A3F59873 		sub	r3, r3, #304
 1863 12d0 D3F82011 		ldr	r1, [r3, #288]
 1864 12d4 07F5A073 		add	r3, r7, #320
 1865 12d8 A3F59873 		sub	r3, r3, #304
 1866 12dc D3F82431 		ldr	r3, [r3, #292]
 1867 12e0 1940     		ands	r1, r1, r3
 1868 12e2 07F5A073 		add	r3, r7, #320
 1869 12e6 A3F59873 		sub	r3, r3, #304
 1870 12ea D3F80801 		ldr	r0, [r3, #264]
 1871 12ee 07F5A073 		add	r3, r7, #320
 1872 12f2 A3F59873 		sub	r3, r3, #304
 1873 12f6 D3F82041 		ldr	r4, [r3, #288]
 1874 12fa 07F5A073 		add	r3, r7, #320
 1875 12fe A3F59873 		sub	r3, r3, #304
 1876 1302 D3F82431 		ldr	r3, [r3, #292]
 1877 1306 2343     		orrs	r3, r3, r4
 1878 1308 0340     		ands	r3, r3, r0
 1879 130a 0B43     		orrs	r3, r3, r1
 1880 130c 1A44     		add	r2, r2, r3
 1881 130e 07F5A073 		add	r3, r7, #320
 1882 1312 A3F59873 		sub	r3, r3, #304
 1883 1316 5A60     		str	r2, [r3, #4]
 1884 1318 07F5A073 		add	r3, r7, #320
 1885 131c A3F59873 		sub	r3, r3, #304
 1886 1320 D3F80C21 		ldr	r2, [r3, #268]
 1887 1324 07F5A073 		add	r3, r7, #320
 1888 1328 A3F59873 		sub	r3, r3, #304
 1889 132c 1B68     		ldr	r3, [r3]
 1890 132e 1A44     		add	r2, r2, r3
 1891 1330 07F5A073 		add	r3, r7, #320
 1892 1334 A3F59873 		sub	r3, r3, #304
 1893 1338 C3F80C21 		str	r2, [r3, #268]
 1894 133c 07F5A073 		add	r3, r7, #320
 1895 1340 A3F59873 		sub	r3, r3, #304
ARM GAS  C:\Users\clay0\AppData\Local\Temp\ccksdYIU.s 			page 47


 1896 1344 1A68     		ldr	r2, [r3]
 1897 1346 07F5A073 		add	r3, r7, #320
 1898 134a A3F59873 		sub	r3, r3, #304
 1899 134e 5B68     		ldr	r3, [r3, #4]
 1900 1350 1A44     		add	r2, r2, r3
 1901 1352 07F5A073 		add	r3, r7, #320
 1902 1356 A3F59873 		sub	r3, r3, #304
 1903 135a C3F81C21 		str	r2, [r3, #284]
 553:mbedTLS/library/sha256.c ****           local.A[3], local.A[4], local.A[5], R(i+2), K[i+2]);
 554:mbedTLS/library/sha256.c ****         P(local.A[5], local.A[6], local.A[7], local.A[0], local.A[1],
 1904              		.loc 1 554 9 discriminator 3
 1905 135e 07F5A073 		add	r3, r7, #320
 1906 1362 A3F59873 		sub	r3, r3, #304
 1907 1366 D3F81821 		ldr	r2, [r3, #280]
 1908 136a 07F5A073 		add	r3, r7, #320
 1909 136e A3F59873 		sub	r3, r3, #304
 1910 1372 D3F80C31 		ldr	r3, [r3, #268]
 1911 1376 4FEAB311 		ror	r1, r3, #6
 1912 137a 07F5A073 		add	r3, r7, #320
 1913 137e A3F59873 		sub	r3, r3, #304
 1914 1382 D3F80C31 		ldr	r3, [r3, #268]
 1915 1386 4FEAF323 		ror	r3, r3, #11
 1916 138a 5940     		eors	r1, r1, r3
 1917 138c 07F5A073 		add	r3, r7, #320
 1918 1390 A3F59873 		sub	r3, r3, #304
 1919 1394 D3F80C31 		ldr	r3, [r3, #268]
 1920 1398 4FEA7363 		ror	r3, r3, #25
 1921 139c 4B40     		eors	r3, r3, r1
 1922 139e 1A44     		add	r2, r2, r3
 1923 13a0 07F5A073 		add	r3, r7, #320
 1924 13a4 A3F59873 		sub	r3, r3, #304
 1925 13a8 D3F81411 		ldr	r1, [r3, #276]
 1926 13ac 07F5A073 		add	r3, r7, #320
 1927 13b0 A3F59873 		sub	r3, r3, #304
 1928 13b4 D3F80C01 		ldr	r0, [r3, #268]
 1929 13b8 07F5A073 		add	r3, r7, #320
 1930 13bc A3F59873 		sub	r3, r3, #304
 1931 13c0 D3F81041 		ldr	r4, [r3, #272]
 1932 13c4 07F5A073 		add	r3, r7, #320
 1933 13c8 A3F59873 		sub	r3, r3, #304
 1934 13cc D3F81431 		ldr	r3, [r3, #276]
 1935 13d0 6340     		eors	r3, r3, r4
 1936 13d2 0340     		ands	r3, r3, r0
 1937 13d4 4B40     		eors	r3, r3, r1
 1938 13d6 1A44     		add	r2, r2, r3
 1939 13d8 D7F83C31 		ldr	r3, [r7, #316]
 1940 13dc 0333     		adds	r3, r3, #3
 1941 13de 6849     		ldr	r1, .L38
 1942 13e0 51F82330 		ldr	r3, [r1, r3, lsl #2]
 1943 13e4 1A44     		add	r2, r2, r3
 1944 13e6 D7F83C31 		ldr	r3, [r7, #316]
 1945 13ea 591C     		adds	r1, r3, #1
 1946 13ec 07F5A073 		add	r3, r7, #320
 1947 13f0 A3F59873 		sub	r3, r3, #304
 1948 13f4 0231     		adds	r1, r1, #2
 1949 13f6 53F82130 		ldr	r3, [r3, r1, lsl #2]
 1950 13fa 4FEA7341 		ror	r1, r3, #17
ARM GAS  C:\Users\clay0\AppData\Local\Temp\ccksdYIU.s 			page 48


 1951 13fe D7F83C31 		ldr	r3, [r7, #316]
 1952 1402 581C     		adds	r0, r3, #1
 1953 1404 07F5A073 		add	r3, r7, #320
 1954 1408 A3F59873 		sub	r3, r3, #304
 1955 140c 0230     		adds	r0, r0, #2
 1956 140e 53F82030 		ldr	r3, [r3, r0, lsl #2]
 1957 1412 4FEAF343 		ror	r3, r3, #19
 1958 1416 5940     		eors	r1, r1, r3
 1959 1418 D7F83C31 		ldr	r3, [r7, #316]
 1960 141c 581C     		adds	r0, r3, #1
 1961 141e 07F5A073 		add	r3, r7, #320
 1962 1422 A3F59873 		sub	r3, r3, #304
 1963 1426 0230     		adds	r0, r0, #2
 1964 1428 53F82030 		ldr	r3, [r3, r0, lsl #2]
 1965 142c 9B0A     		lsrs	r3, r3, #10
 1966 142e 5940     		eors	r1, r1, r3
 1967 1430 D7F83C31 		ldr	r3, [r7, #316]
 1968 1434 181F     		subs	r0, r3, #4
 1969 1436 07F5A073 		add	r3, r7, #320
 1970 143a A3F59873 		sub	r3, r3, #304
 1971 143e 0230     		adds	r0, r0, #2
 1972 1440 53F82030 		ldr	r3, [r3, r0, lsl #2]
 1973 1444 1944     		add	r1, r1, r3
 1974 1446 D7F83C31 		ldr	r3, [r7, #316]
 1975 144a A3F10C00 		sub	r0, r3, #12
 1976 144e 07F5A073 		add	r3, r7, #320
 1977 1452 A3F59873 		sub	r3, r3, #304
 1978 1456 0230     		adds	r0, r0, #2
 1979 1458 53F82030 		ldr	r3, [r3, r0, lsl #2]
 1980 145c 4FEAF310 		ror	r0, r3, #7
 1981 1460 D7F83C31 		ldr	r3, [r7, #316]
 1982 1464 A3F10C04 		sub	r4, r3, #12
 1983 1468 07F5A073 		add	r3, r7, #320
 1984 146c A3F59873 		sub	r3, r3, #304
 1985 1470 0234     		adds	r4, r4, #2
 1986 1472 53F82430 		ldr	r3, [r3, r4, lsl #2]
 1987 1476 4FEAB343 		ror	r3, r3, #18
 1988 147a 5840     		eors	r0, r0, r3
 1989 147c D7F83C31 		ldr	r3, [r7, #316]
 1990 1480 A3F10C04 		sub	r4, r3, #12
 1991 1484 07F5A073 		add	r3, r7, #320
 1992 1488 A3F59873 		sub	r3, r3, #304
 1993 148c 0234     		adds	r4, r4, #2
 1994 148e 53F82430 		ldr	r3, [r3, r4, lsl #2]
 1995 1492 DB08     		lsrs	r3, r3, #3
 1996 1494 4340     		eors	r3, r3, r0
 1997 1496 C818     		adds	r0, r1, r3
 1998 1498 D7F83C31 		ldr	r3, [r7, #316]
 1999 149c A3F10D01 		sub	r1, r3, #13
 2000 14a0 07F5A073 		add	r3, r7, #320
 2001 14a4 A3F59873 		sub	r3, r3, #304
 2002 14a8 0231     		adds	r1, r1, #2
 2003 14aa 53F82110 		ldr	r1, [r3, r1, lsl #2]
 2004 14ae D7F83C31 		ldr	r3, [r7, #316]
 2005 14b2 0333     		adds	r3, r3, #3
 2006 14b4 4418     		adds	r4, r0, r1
 2007 14b6 07F5A071 		add	r1, r7, #320
ARM GAS  C:\Users\clay0\AppData\Local\Temp\ccksdYIU.s 			page 49


 2008 14ba A1F59871 		sub	r1, r1, #304
 2009 14be 981C     		adds	r0, r3, #2
 2010 14c0 41F82040 		str	r4, [r1, r0, lsl #2]
 2011 14c4 07F5A071 		add	r1, r7, #320
 2012 14c8 A1F59871 		sub	r1, r1, #304
 2013 14cc 0233     		adds	r3, r3, #2
 2014 14ce 51F82330 		ldr	r3, [r1, r3, lsl #2]
 2015 14d2 1A44     		add	r2, r2, r3
 2016 14d4 07F5A073 		add	r3, r7, #320
 2017 14d8 A3F59873 		sub	r3, r3, #304
 2018 14dc 1A60     		str	r2, [r3]
 2019 14de 07F5A073 		add	r3, r7, #320
 2020 14e2 A3F59873 		sub	r3, r3, #304
 2021 14e6 D3F81C31 		ldr	r3, [r3, #284]
 2022 14ea 4FEAB302 		ror	r2, r3, #2
 2023 14ee 07F5A073 		add	r3, r7, #320
 2024 14f2 A3F59873 		sub	r3, r3, #304
 2025 14f6 D3F81C31 		ldr	r3, [r3, #284]
 2026 14fa 4FEA7333 		ror	r3, r3, #13
 2027 14fe 5A40     		eors	r2, r2, r3
 2028 1500 07F5A073 		add	r3, r7, #320
 2029 1504 A3F59873 		sub	r3, r3, #304
 2030 1508 D3F81C31 		ldr	r3, [r3, #284]
 2031 150c 4FEAB353 		ror	r3, r3, #22
 2032 1510 5A40     		eors	r2, r2, r3
 2033 1512 07F5A073 		add	r3, r7, #320
 2034 1516 A3F59873 		sub	r3, r3, #304
 2035 151a D3F81C11 		ldr	r1, [r3, #284]
 2036 151e 07F5A073 		add	r3, r7, #320
 2037 1522 A3F59873 		sub	r3, r3, #304
 2038 1526 D3F82031 		ldr	r3, [r3, #288]
 2039 152a 1940     		ands	r1, r1, r3
 2040 152c 07F5A073 		add	r3, r7, #320
 2041 1530 A3F59873 		sub	r3, r3, #304
 2042 1534 D3F82401 		ldr	r0, [r3, #292]
 2043 1538 07F5A073 		add	r3, r7, #320
 2044 153c A3F59873 		sub	r3, r3, #304
 2045 1540 D3F81C41 		ldr	r4, [r3, #284]
 2046 1544 07F5A073 		add	r3, r7, #320
 2047 1548 A3F59873 		sub	r3, r3, #304
 2048 154c D3F82031 		ldr	r3, [r3, #288]
 2049 1550 2343     		orrs	r3, r3, r4
 2050 1552 0340     		ands	r3, r3, r0
 2051 1554 0B43     		orrs	r3, r3, r1
 2052 1556 1A44     		add	r2, r2, r3
 2053 1558 07F5A073 		add	r3, r7, #320
 2054 155c A3F59873 		sub	r3, r3, #304
 2055 1560 5A60     		str	r2, [r3, #4]
 2056 1562 07F5A073 		add	r3, r7, #320
 2057 1566 A3F59873 		sub	r3, r3, #304
 2058 156a D3F80821 		ldr	r2, [r3, #264]
 2059 156e 07F5A073 		add	r3, r7, #320
 2060 1572 A3F59873 		sub	r3, r3, #304
 2061 1576 1B68     		ldr	r3, [r3]
 2062 1578 1A44     		add	r2, r2, r3
 2063 157a 07F5A073 		add	r3, r7, #320
 2064 157e 01E0     		b	.L39
ARM GAS  C:\Users\clay0\AppData\Local\Temp\ccksdYIU.s 			page 50


 2065              	.L40:
 2066              		.align	2
 2067              	.L38:
 2068 1580 00000000 		.word	K
 2069              	.L39:
 2070 1584 A3F59873 		sub	r3, r3, #304
 2071 1588 C3F80821 		str	r2, [r3, #264]
 2072 158c 07F5A073 		add	r3, r7, #320
 2073 1590 A3F59873 		sub	r3, r3, #304
 2074 1594 1A68     		ldr	r2, [r3]
 2075 1596 07F5A073 		add	r3, r7, #320
 2076 159a A3F59873 		sub	r3, r3, #304
 2077 159e 5B68     		ldr	r3, [r3, #4]
 2078 15a0 1A44     		add	r2, r2, r3
 2079 15a2 07F5A073 		add	r3, r7, #320
 2080 15a6 A3F59873 		sub	r3, r3, #304
 2081 15aa C3F81821 		str	r2, [r3, #280]
 555:mbedTLS/library/sha256.c ****           local.A[2], local.A[3], local.A[4], R(i+3), K[i+3]);
 556:mbedTLS/library/sha256.c ****         P(local.A[4], local.A[5], local.A[6], local.A[7], local.A[0],
 2082              		.loc 1 556 9 discriminator 3
 2083 15ae 07F5A073 		add	r3, r7, #320
 2084 15b2 A3F59873 		sub	r3, r3, #304
 2085 15b6 D3F81421 		ldr	r2, [r3, #276]
 2086 15ba 07F5A073 		add	r3, r7, #320
 2087 15be A3F59873 		sub	r3, r3, #304
 2088 15c2 D3F80831 		ldr	r3, [r3, #264]
 2089 15c6 4FEAB311 		ror	r1, r3, #6
 2090 15ca 07F5A073 		add	r3, r7, #320
 2091 15ce A3F59873 		sub	r3, r3, #304
 2092 15d2 D3F80831 		ldr	r3, [r3, #264]
 2093 15d6 4FEAF323 		ror	r3, r3, #11
 2094 15da 5940     		eors	r1, r1, r3
 2095 15dc 07F5A073 		add	r3, r7, #320
 2096 15e0 A3F59873 		sub	r3, r3, #304
 2097 15e4 D3F80831 		ldr	r3, [r3, #264]
 2098 15e8 4FEA7363 		ror	r3, r3, #25
 2099 15ec 4B40     		eors	r3, r3, r1
 2100 15ee 1A44     		add	r2, r2, r3
 2101 15f0 07F5A073 		add	r3, r7, #320
 2102 15f4 A3F59873 		sub	r3, r3, #304
 2103 15f8 D3F81011 		ldr	r1, [r3, #272]
 2104 15fc 07F5A073 		add	r3, r7, #320
 2105 1600 A3F59873 		sub	r3, r3, #304
 2106 1604 D3F80801 		ldr	r0, [r3, #264]
 2107 1608 07F5A073 		add	r3, r7, #320
 2108 160c A3F59873 		sub	r3, r3, #304
 2109 1610 D3F80C41 		ldr	r4, [r3, #268]
 2110 1614 07F5A073 		add	r3, r7, #320
 2111 1618 A3F59873 		sub	r3, r3, #304
 2112 161c D3F81031 		ldr	r3, [r3, #272]
 2113 1620 6340     		eors	r3, r3, r4
 2114 1622 0340     		ands	r3, r3, r0
 2115 1624 4B40     		eors	r3, r3, r1
 2116 1626 1A44     		add	r2, r2, r3
 2117 1628 D7F83C31 		ldr	r3, [r7, #316]
 2118 162c 0433     		adds	r3, r3, #4
 2119 162e F949     		ldr	r1, .L41
ARM GAS  C:\Users\clay0\AppData\Local\Temp\ccksdYIU.s 			page 51


 2120 1630 51F82330 		ldr	r3, [r1, r3, lsl #2]
 2121 1634 1A44     		add	r2, r2, r3
 2122 1636 D7F83C31 		ldr	r3, [r7, #316]
 2123 163a 991C     		adds	r1, r3, #2
 2124 163c 07F5A073 		add	r3, r7, #320
 2125 1640 A3F59873 		sub	r3, r3, #304
 2126 1644 0231     		adds	r1, r1, #2
 2127 1646 53F82130 		ldr	r3, [r3, r1, lsl #2]
 2128 164a 4FEA7341 		ror	r1, r3, #17
 2129 164e D7F83C31 		ldr	r3, [r7, #316]
 2130 1652 981C     		adds	r0, r3, #2
 2131 1654 07F5A073 		add	r3, r7, #320
 2132 1658 A3F59873 		sub	r3, r3, #304
 2133 165c 0230     		adds	r0, r0, #2
 2134 165e 53F82030 		ldr	r3, [r3, r0, lsl #2]
 2135 1662 4FEAF343 		ror	r3, r3, #19
 2136 1666 5940     		eors	r1, r1, r3
 2137 1668 D7F83C31 		ldr	r3, [r7, #316]
 2138 166c 981C     		adds	r0, r3, #2
 2139 166e 07F5A073 		add	r3, r7, #320
 2140 1672 A3F59873 		sub	r3, r3, #304
 2141 1676 0230     		adds	r0, r0, #2
 2142 1678 53F82030 		ldr	r3, [r3, r0, lsl #2]
 2143 167c 9B0A     		lsrs	r3, r3, #10
 2144 167e 5940     		eors	r1, r1, r3
 2145 1680 D7F83C31 		ldr	r3, [r7, #316]
 2146 1684 D81E     		subs	r0, r3, #3
 2147 1686 07F5A073 		add	r3, r7, #320
 2148 168a A3F59873 		sub	r3, r3, #304
 2149 168e 0230     		adds	r0, r0, #2
 2150 1690 53F82030 		ldr	r3, [r3, r0, lsl #2]
 2151 1694 1944     		add	r1, r1, r3
 2152 1696 D7F83C31 		ldr	r3, [r7, #316]
 2153 169a A3F10B00 		sub	r0, r3, #11
 2154 169e 07F5A073 		add	r3, r7, #320
 2155 16a2 A3F59873 		sub	r3, r3, #304
 2156 16a6 0230     		adds	r0, r0, #2
 2157 16a8 53F82030 		ldr	r3, [r3, r0, lsl #2]
 2158 16ac 4FEAF310 		ror	r0, r3, #7
 2159 16b0 D7F83C31 		ldr	r3, [r7, #316]
 2160 16b4 A3F10B04 		sub	r4, r3, #11
 2161 16b8 07F5A073 		add	r3, r7, #320
 2162 16bc A3F59873 		sub	r3, r3, #304
 2163 16c0 0234     		adds	r4, r4, #2
 2164 16c2 53F82430 		ldr	r3, [r3, r4, lsl #2]
 2165 16c6 4FEAB343 		ror	r3, r3, #18
 2166 16ca 5840     		eors	r0, r0, r3
 2167 16cc D7F83C31 		ldr	r3, [r7, #316]
 2168 16d0 A3F10B04 		sub	r4, r3, #11
 2169 16d4 07F5A073 		add	r3, r7, #320
 2170 16d8 A3F59873 		sub	r3, r3, #304
 2171 16dc 0234     		adds	r4, r4, #2
 2172 16de 53F82430 		ldr	r3, [r3, r4, lsl #2]
 2173 16e2 DB08     		lsrs	r3, r3, #3
 2174 16e4 4340     		eors	r3, r3, r0
 2175 16e6 C818     		adds	r0, r1, r3
 2176 16e8 D7F83C31 		ldr	r3, [r7, #316]
ARM GAS  C:\Users\clay0\AppData\Local\Temp\ccksdYIU.s 			page 52


 2177 16ec A3F10C01 		sub	r1, r3, #12
 2178 16f0 07F5A073 		add	r3, r7, #320
 2179 16f4 A3F59873 		sub	r3, r3, #304
 2180 16f8 0231     		adds	r1, r1, #2
 2181 16fa 53F82110 		ldr	r1, [r3, r1, lsl #2]
 2182 16fe D7F83C31 		ldr	r3, [r7, #316]
 2183 1702 0433     		adds	r3, r3, #4
 2184 1704 4418     		adds	r4, r0, r1
 2185 1706 07F5A071 		add	r1, r7, #320
 2186 170a A1F59871 		sub	r1, r1, #304
 2187 170e 981C     		adds	r0, r3, #2
 2188 1710 41F82040 		str	r4, [r1, r0, lsl #2]
 2189 1714 07F5A071 		add	r1, r7, #320
 2190 1718 A1F59871 		sub	r1, r1, #304
 2191 171c 0233     		adds	r3, r3, #2
 2192 171e 51F82330 		ldr	r3, [r1, r3, lsl #2]
 2193 1722 1A44     		add	r2, r2, r3
 2194 1724 07F5A073 		add	r3, r7, #320
 2195 1728 A3F59873 		sub	r3, r3, #304
 2196 172c 1A60     		str	r2, [r3]
 2197 172e 07F5A073 		add	r3, r7, #320
 2198 1732 A3F59873 		sub	r3, r3, #304
 2199 1736 D3F81831 		ldr	r3, [r3, #280]
 2200 173a 4FEAB302 		ror	r2, r3, #2
 2201 173e 07F5A073 		add	r3, r7, #320
 2202 1742 A3F59873 		sub	r3, r3, #304
 2203 1746 D3F81831 		ldr	r3, [r3, #280]
 2204 174a 4FEA7333 		ror	r3, r3, #13
 2205 174e 5A40     		eors	r2, r2, r3
 2206 1750 07F5A073 		add	r3, r7, #320
 2207 1754 A3F59873 		sub	r3, r3, #304
 2208 1758 D3F81831 		ldr	r3, [r3, #280]
 2209 175c 4FEAB353 		ror	r3, r3, #22
 2210 1760 5A40     		eors	r2, r2, r3
 2211 1762 07F5A073 		add	r3, r7, #320
 2212 1766 A3F59873 		sub	r3, r3, #304
 2213 176a D3F81811 		ldr	r1, [r3, #280]
 2214 176e 07F5A073 		add	r3, r7, #320
 2215 1772 A3F59873 		sub	r3, r3, #304
 2216 1776 D3F81C31 		ldr	r3, [r3, #284]
 2217 177a 1940     		ands	r1, r1, r3
 2218 177c 07F5A073 		add	r3, r7, #320
 2219 1780 A3F59873 		sub	r3, r3, #304
 2220 1784 D3F82001 		ldr	r0, [r3, #288]
 2221 1788 07F5A073 		add	r3, r7, #320
 2222 178c A3F59873 		sub	r3, r3, #304
 2223 1790 D3F81841 		ldr	r4, [r3, #280]
 2224 1794 07F5A073 		add	r3, r7, #320
 2225 1798 A3F59873 		sub	r3, r3, #304
 2226 179c D3F81C31 		ldr	r3, [r3, #284]
 2227 17a0 2343     		orrs	r3, r3, r4
 2228 17a2 0340     		ands	r3, r3, r0
 2229 17a4 0B43     		orrs	r3, r3, r1
 2230 17a6 1A44     		add	r2, r2, r3
 2231 17a8 07F5A073 		add	r3, r7, #320
 2232 17ac A3F59873 		sub	r3, r3, #304
 2233 17b0 5A60     		str	r2, [r3, #4]
ARM GAS  C:\Users\clay0\AppData\Local\Temp\ccksdYIU.s 			page 53


 2234 17b2 07F5A073 		add	r3, r7, #320
 2235 17b6 A3F59873 		sub	r3, r3, #304
 2236 17ba D3F82421 		ldr	r2, [r3, #292]
 2237 17be 07F5A073 		add	r3, r7, #320
 2238 17c2 A3F59873 		sub	r3, r3, #304
 2239 17c6 1B68     		ldr	r3, [r3]
 2240 17c8 1A44     		add	r2, r2, r3
 2241 17ca 07F5A073 		add	r3, r7, #320
 2242 17ce A3F59873 		sub	r3, r3, #304
 2243 17d2 C3F82421 		str	r2, [r3, #292]
 2244 17d6 07F5A073 		add	r3, r7, #320
 2245 17da A3F59873 		sub	r3, r3, #304
 2246 17de 1A68     		ldr	r2, [r3]
 2247 17e0 07F5A073 		add	r3, r7, #320
 2248 17e4 A3F59873 		sub	r3, r3, #304
 2249 17e8 5B68     		ldr	r3, [r3, #4]
 2250 17ea 1A44     		add	r2, r2, r3
 2251 17ec 07F5A073 		add	r3, r7, #320
 2252 17f0 A3F59873 		sub	r3, r3, #304
 2253 17f4 C3F81421 		str	r2, [r3, #276]
 557:mbedTLS/library/sha256.c ****           local.A[1], local.A[2], local.A[3], R(i+4), K[i+4]);
 558:mbedTLS/library/sha256.c ****         P(local.A[3], local.A[4], local.A[5], local.A[6], local.A[7],
 2254              		.loc 1 558 9 discriminator 3
 2255 17f8 07F5A073 		add	r3, r7, #320
 2256 17fc A3F59873 		sub	r3, r3, #304
 2257 1800 D3F81021 		ldr	r2, [r3, #272]
 2258 1804 07F5A073 		add	r3, r7, #320
 2259 1808 A3F59873 		sub	r3, r3, #304
 2260 180c D3F82431 		ldr	r3, [r3, #292]
 2261 1810 4FEAB311 		ror	r1, r3, #6
 2262 1814 07F5A073 		add	r3, r7, #320
 2263 1818 A3F59873 		sub	r3, r3, #304
 2264 181c D3F82431 		ldr	r3, [r3, #292]
 2265 1820 4FEAF323 		ror	r3, r3, #11
 2266 1824 5940     		eors	r1, r1, r3
 2267 1826 07F5A073 		add	r3, r7, #320
 2268 182a A3F59873 		sub	r3, r3, #304
 2269 182e D3F82431 		ldr	r3, [r3, #292]
 2270 1832 4FEA7363 		ror	r3, r3, #25
 2271 1836 4B40     		eors	r3, r3, r1
 2272 1838 1A44     		add	r2, r2, r3
 2273 183a 07F5A073 		add	r3, r7, #320
 2274 183e A3F59873 		sub	r3, r3, #304
 2275 1842 D3F80C11 		ldr	r1, [r3, #268]
 2276 1846 07F5A073 		add	r3, r7, #320
 2277 184a A3F59873 		sub	r3, r3, #304
 2278 184e D3F82401 		ldr	r0, [r3, #292]
 2279 1852 07F5A073 		add	r3, r7, #320
 2280 1856 A3F59873 		sub	r3, r3, #304
 2281 185a D3F80841 		ldr	r4, [r3, #264]
 2282 185e 07F5A073 		add	r3, r7, #320
 2283 1862 A3F59873 		sub	r3, r3, #304
 2284 1866 D3F80C31 		ldr	r3, [r3, #268]
 2285 186a 6340     		eors	r3, r3, r4
 2286 186c 0340     		ands	r3, r3, r0
 2287 186e 4B40     		eors	r3, r3, r1
 2288 1870 1A44     		add	r2, r2, r3
ARM GAS  C:\Users\clay0\AppData\Local\Temp\ccksdYIU.s 			page 54


 2289 1872 D7F83C31 		ldr	r3, [r7, #316]
 2290 1876 0533     		adds	r3, r3, #5
 2291 1878 6649     		ldr	r1, .L41
 2292 187a 51F82330 		ldr	r3, [r1, r3, lsl #2]
 2293 187e 1A44     		add	r2, r2, r3
 2294 1880 D7F83C31 		ldr	r3, [r7, #316]
 2295 1884 D91C     		adds	r1, r3, #3
 2296 1886 07F5A073 		add	r3, r7, #320
 2297 188a A3F59873 		sub	r3, r3, #304
 2298 188e 0231     		adds	r1, r1, #2
 2299 1890 53F82130 		ldr	r3, [r3, r1, lsl #2]
 2300 1894 4FEA7341 		ror	r1, r3, #17
 2301 1898 D7F83C31 		ldr	r3, [r7, #316]
 2302 189c D81C     		adds	r0, r3, #3
 2303 189e 07F5A073 		add	r3, r7, #320
 2304 18a2 A3F59873 		sub	r3, r3, #304
 2305 18a6 0230     		adds	r0, r0, #2
 2306 18a8 53F82030 		ldr	r3, [r3, r0, lsl #2]
 2307 18ac 4FEAF343 		ror	r3, r3, #19
 2308 18b0 5940     		eors	r1, r1, r3
 2309 18b2 D7F83C31 		ldr	r3, [r7, #316]
 2310 18b6 D81C     		adds	r0, r3, #3
 2311 18b8 07F5A073 		add	r3, r7, #320
 2312 18bc A3F59873 		sub	r3, r3, #304
 2313 18c0 0230     		adds	r0, r0, #2
 2314 18c2 53F82030 		ldr	r3, [r3, r0, lsl #2]
 2315 18c6 9B0A     		lsrs	r3, r3, #10
 2316 18c8 5940     		eors	r1, r1, r3
 2317 18ca D7F83C31 		ldr	r3, [r7, #316]
 2318 18ce 981E     		subs	r0, r3, #2
 2319 18d0 07F5A073 		add	r3, r7, #320
 2320 18d4 A3F59873 		sub	r3, r3, #304
 2321 18d8 0230     		adds	r0, r0, #2
 2322 18da 53F82030 		ldr	r3, [r3, r0, lsl #2]
 2323 18de 1944     		add	r1, r1, r3
 2324 18e0 D7F83C31 		ldr	r3, [r7, #316]
 2325 18e4 A3F10A00 		sub	r0, r3, #10
 2326 18e8 07F5A073 		add	r3, r7, #320
 2327 18ec A3F59873 		sub	r3, r3, #304
 2328 18f0 0230     		adds	r0, r0, #2
 2329 18f2 53F82030 		ldr	r3, [r3, r0, lsl #2]
 2330 18f6 4FEAF310 		ror	r0, r3, #7
 2331 18fa D7F83C31 		ldr	r3, [r7, #316]
 2332 18fe A3F10A04 		sub	r4, r3, #10
 2333 1902 07F5A073 		add	r3, r7, #320
 2334 1906 A3F59873 		sub	r3, r3, #304
 2335 190a 0234     		adds	r4, r4, #2
 2336 190c 53F82430 		ldr	r3, [r3, r4, lsl #2]
 2337 1910 4FEAB343 		ror	r3, r3, #18
 2338 1914 5840     		eors	r0, r0, r3
 2339 1916 D7F83C31 		ldr	r3, [r7, #316]
 2340 191a A3F10A04 		sub	r4, r3, #10
 2341 191e 07F5A073 		add	r3, r7, #320
 2342 1922 A3F59873 		sub	r3, r3, #304
 2343 1926 0234     		adds	r4, r4, #2
 2344 1928 53F82430 		ldr	r3, [r3, r4, lsl #2]
 2345 192c DB08     		lsrs	r3, r3, #3
ARM GAS  C:\Users\clay0\AppData\Local\Temp\ccksdYIU.s 			page 55


 2346 192e 4340     		eors	r3, r3, r0
 2347 1930 C818     		adds	r0, r1, r3
 2348 1932 D7F83C31 		ldr	r3, [r7, #316]
 2349 1936 A3F10B01 		sub	r1, r3, #11
 2350 193a 07F5A073 		add	r3, r7, #320
 2351 193e A3F59873 		sub	r3, r3, #304
 2352 1942 0231     		adds	r1, r1, #2
 2353 1944 53F82110 		ldr	r1, [r3, r1, lsl #2]
 2354 1948 D7F83C31 		ldr	r3, [r7, #316]
 2355 194c 0533     		adds	r3, r3, #5
 2356 194e 4418     		adds	r4, r0, r1
 2357 1950 07F5A071 		add	r1, r7, #320
 2358 1954 A1F59871 		sub	r1, r1, #304
 2359 1958 981C     		adds	r0, r3, #2
 2360 195a 41F82040 		str	r4, [r1, r0, lsl #2]
 2361 195e 07F5A071 		add	r1, r7, #320
 2362 1962 A1F59871 		sub	r1, r1, #304
 2363 1966 0233     		adds	r3, r3, #2
 2364 1968 51F82330 		ldr	r3, [r1, r3, lsl #2]
 2365 196c 1A44     		add	r2, r2, r3
 2366 196e 07F5A073 		add	r3, r7, #320
 2367 1972 A3F59873 		sub	r3, r3, #304
 2368 1976 1A60     		str	r2, [r3]
 2369 1978 07F5A073 		add	r3, r7, #320
 2370 197c A3F59873 		sub	r3, r3, #304
 2371 1980 D3F81431 		ldr	r3, [r3, #276]
 2372 1984 4FEAB302 		ror	r2, r3, #2
 2373 1988 07F5A073 		add	r3, r7, #320
 2374 198c A3F59873 		sub	r3, r3, #304
 2375 1990 D3F81431 		ldr	r3, [r3, #276]
 2376 1994 4FEA7333 		ror	r3, r3, #13
 2377 1998 5A40     		eors	r2, r2, r3
 2378 199a 07F5A073 		add	r3, r7, #320
 2379 199e A3F59873 		sub	r3, r3, #304
 2380 19a2 D3F81431 		ldr	r3, [r3, #276]
 2381 19a6 4FEAB353 		ror	r3, r3, #22
 2382 19aa 5A40     		eors	r2, r2, r3
 2383 19ac 07F5A073 		add	r3, r7, #320
 2384 19b0 A3F59873 		sub	r3, r3, #304
 2385 19b4 D3F81411 		ldr	r1, [r3, #276]
 2386 19b8 07F5A073 		add	r3, r7, #320
 2387 19bc A3F59873 		sub	r3, r3, #304
 2388 19c0 D3F81831 		ldr	r3, [r3, #280]
 2389 19c4 1940     		ands	r1, r1, r3
 2390 19c6 07F5A073 		add	r3, r7, #320
 2391 19ca A3F59873 		sub	r3, r3, #304
 2392 19ce D3F81C01 		ldr	r0, [r3, #284]
 2393 19d2 07F5A073 		add	r3, r7, #320
 2394 19d6 A3F59873 		sub	r3, r3, #304
 2395 19da D3F81441 		ldr	r4, [r3, #276]
 2396 19de 07F5A073 		add	r3, r7, #320
 2397 19e2 A3F59873 		sub	r3, r3, #304
 2398 19e6 D3F81831 		ldr	r3, [r3, #280]
 2399 19ea 2343     		orrs	r3, r3, r4
 2400 19ec 0340     		ands	r3, r3, r0
 2401 19ee 0B43     		orrs	r3, r3, r1
 2402 19f0 1A44     		add	r2, r2, r3
ARM GAS  C:\Users\clay0\AppData\Local\Temp\ccksdYIU.s 			page 56


 2403 19f2 07F5A073 		add	r3, r7, #320
 2404 19f6 A3F59873 		sub	r3, r3, #304
 2405 19fa 5A60     		str	r2, [r3, #4]
 2406 19fc 07F5A073 		add	r3, r7, #320
 2407 1a00 A3F59873 		sub	r3, r3, #304
 2408 1a04 D3F82021 		ldr	r2, [r3, #288]
 2409 1a08 07F5A073 		add	r3, r7, #320
 2410 1a0c A3F59873 		sub	r3, r3, #304
 2411 1a10 1B68     		ldr	r3, [r3]
 2412 1a12 01E0     		b	.L42
 2413              	.L43:
 2414              		.align	2
 2415              	.L41:
 2416 1a14 00000000 		.word	K
 2417              	.L42:
 2418 1a18 1A44     		add	r2, r2, r3
 2419 1a1a 07F5A073 		add	r3, r7, #320
 2420 1a1e A3F59873 		sub	r3, r3, #304
 2421 1a22 C3F82021 		str	r2, [r3, #288]
 2422 1a26 07F5A073 		add	r3, r7, #320
 2423 1a2a A3F59873 		sub	r3, r3, #304
 2424 1a2e 1A68     		ldr	r2, [r3]
 2425 1a30 07F5A073 		add	r3, r7, #320
 2426 1a34 A3F59873 		sub	r3, r3, #304
 2427 1a38 5B68     		ldr	r3, [r3, #4]
 2428 1a3a 1A44     		add	r2, r2, r3
 2429 1a3c 07F5A073 		add	r3, r7, #320
 2430 1a40 A3F59873 		sub	r3, r3, #304
 2431 1a44 C3F81021 		str	r2, [r3, #272]
 559:mbedTLS/library/sha256.c ****           local.A[0], local.A[1], local.A[2], R(i+5), K[i+5]);
 560:mbedTLS/library/sha256.c ****         P(local.A[2], local.A[3], local.A[4], local.A[5], local.A[6],
 2432              		.loc 1 560 9 discriminator 3
 2433 1a48 07F5A073 		add	r3, r7, #320
 2434 1a4c A3F59873 		sub	r3, r3, #304
 2435 1a50 D3F80C21 		ldr	r2, [r3, #268]
 2436 1a54 07F5A073 		add	r3, r7, #320
 2437 1a58 A3F59873 		sub	r3, r3, #304
 2438 1a5c D3F82031 		ldr	r3, [r3, #288]
 2439 1a60 4FEAB311 		ror	r1, r3, #6
 2440 1a64 07F5A073 		add	r3, r7, #320
 2441 1a68 A3F59873 		sub	r3, r3, #304
 2442 1a6c D3F82031 		ldr	r3, [r3, #288]
 2443 1a70 4FEAF323 		ror	r3, r3, #11
 2444 1a74 5940     		eors	r1, r1, r3
 2445 1a76 07F5A073 		add	r3, r7, #320
 2446 1a7a A3F59873 		sub	r3, r3, #304
 2447 1a7e D3F82031 		ldr	r3, [r3, #288]
 2448 1a82 4FEA7363 		ror	r3, r3, #25
 2449 1a86 4B40     		eors	r3, r3, r1
 2450 1a88 1A44     		add	r2, r2, r3
 2451 1a8a 07F5A073 		add	r3, r7, #320
 2452 1a8e A3F59873 		sub	r3, r3, #304
 2453 1a92 D3F80811 		ldr	r1, [r3, #264]
 2454 1a96 07F5A073 		add	r3, r7, #320
 2455 1a9a A3F59873 		sub	r3, r3, #304
 2456 1a9e D3F82001 		ldr	r0, [r3, #288]
 2457 1aa2 07F5A073 		add	r3, r7, #320
ARM GAS  C:\Users\clay0\AppData\Local\Temp\ccksdYIU.s 			page 57


 2458 1aa6 A3F59873 		sub	r3, r3, #304
 2459 1aaa D3F82441 		ldr	r4, [r3, #292]
 2460 1aae 07F5A073 		add	r3, r7, #320
 2461 1ab2 A3F59873 		sub	r3, r3, #304
 2462 1ab6 D3F80831 		ldr	r3, [r3, #264]
 2463 1aba 6340     		eors	r3, r3, r4
 2464 1abc 0340     		ands	r3, r3, r0
 2465 1abe 4B40     		eors	r3, r3, r1
 2466 1ac0 1A44     		add	r2, r2, r3
 2467 1ac2 D7F83C31 		ldr	r3, [r7, #316]
 2468 1ac6 0633     		adds	r3, r3, #6
 2469 1ac8 F949     		ldr	r1, .L44
 2470 1aca 51F82330 		ldr	r3, [r1, r3, lsl #2]
 2471 1ace 1A44     		add	r2, r2, r3
 2472 1ad0 D7F83C31 		ldr	r3, [r7, #316]
 2473 1ad4 191D     		adds	r1, r3, #4
 2474 1ad6 07F5A073 		add	r3, r7, #320
 2475 1ada A3F59873 		sub	r3, r3, #304
 2476 1ade 0231     		adds	r1, r1, #2
 2477 1ae0 53F82130 		ldr	r3, [r3, r1, lsl #2]
 2478 1ae4 4FEA7341 		ror	r1, r3, #17
 2479 1ae8 D7F83C31 		ldr	r3, [r7, #316]
 2480 1aec 181D     		adds	r0, r3, #4
 2481 1aee 07F5A073 		add	r3, r7, #320
 2482 1af2 A3F59873 		sub	r3, r3, #304
 2483 1af6 0230     		adds	r0, r0, #2
 2484 1af8 53F82030 		ldr	r3, [r3, r0, lsl #2]
 2485 1afc 4FEAF343 		ror	r3, r3, #19
 2486 1b00 5940     		eors	r1, r1, r3
 2487 1b02 D7F83C31 		ldr	r3, [r7, #316]
 2488 1b06 181D     		adds	r0, r3, #4
 2489 1b08 07F5A073 		add	r3, r7, #320
 2490 1b0c A3F59873 		sub	r3, r3, #304
 2491 1b10 0230     		adds	r0, r0, #2
 2492 1b12 53F82030 		ldr	r3, [r3, r0, lsl #2]
 2493 1b16 9B0A     		lsrs	r3, r3, #10
 2494 1b18 5940     		eors	r1, r1, r3
 2495 1b1a D7F83C31 		ldr	r3, [r7, #316]
 2496 1b1e 581E     		subs	r0, r3, #1
 2497 1b20 07F5A073 		add	r3, r7, #320
 2498 1b24 A3F59873 		sub	r3, r3, #304
 2499 1b28 0230     		adds	r0, r0, #2
 2500 1b2a 53F82030 		ldr	r3, [r3, r0, lsl #2]
 2501 1b2e 1944     		add	r1, r1, r3
 2502 1b30 D7F83C31 		ldr	r3, [r7, #316]
 2503 1b34 A3F10900 		sub	r0, r3, #9
 2504 1b38 07F5A073 		add	r3, r7, #320
 2505 1b3c A3F59873 		sub	r3, r3, #304
 2506 1b40 0230     		adds	r0, r0, #2
 2507 1b42 53F82030 		ldr	r3, [r3, r0, lsl #2]
 2508 1b46 4FEAF310 		ror	r0, r3, #7
 2509 1b4a D7F83C31 		ldr	r3, [r7, #316]
 2510 1b4e A3F10904 		sub	r4, r3, #9
 2511 1b52 07F5A073 		add	r3, r7, #320
 2512 1b56 A3F59873 		sub	r3, r3, #304
 2513 1b5a 0234     		adds	r4, r4, #2
 2514 1b5c 53F82430 		ldr	r3, [r3, r4, lsl #2]
ARM GAS  C:\Users\clay0\AppData\Local\Temp\ccksdYIU.s 			page 58


 2515 1b60 4FEAB343 		ror	r3, r3, #18
 2516 1b64 5840     		eors	r0, r0, r3
 2517 1b66 D7F83C31 		ldr	r3, [r7, #316]
 2518 1b6a A3F10904 		sub	r4, r3, #9
 2519 1b6e 07F5A073 		add	r3, r7, #320
 2520 1b72 A3F59873 		sub	r3, r3, #304
 2521 1b76 0234     		adds	r4, r4, #2
 2522 1b78 53F82430 		ldr	r3, [r3, r4, lsl #2]
 2523 1b7c DB08     		lsrs	r3, r3, #3
 2524 1b7e 4340     		eors	r3, r3, r0
 2525 1b80 C818     		adds	r0, r1, r3
 2526 1b82 D7F83C31 		ldr	r3, [r7, #316]
 2527 1b86 A3F10A01 		sub	r1, r3, #10
 2528 1b8a 07F5A073 		add	r3, r7, #320
 2529 1b8e A3F59873 		sub	r3, r3, #304
 2530 1b92 0231     		adds	r1, r1, #2
 2531 1b94 53F82110 		ldr	r1, [r3, r1, lsl #2]
 2532 1b98 D7F83C31 		ldr	r3, [r7, #316]
 2533 1b9c 0633     		adds	r3, r3, #6
 2534 1b9e 4418     		adds	r4, r0, r1
 2535 1ba0 07F5A071 		add	r1, r7, #320
 2536 1ba4 A1F59871 		sub	r1, r1, #304
 2537 1ba8 981C     		adds	r0, r3, #2
 2538 1baa 41F82040 		str	r4, [r1, r0, lsl #2]
 2539 1bae 07F5A071 		add	r1, r7, #320
 2540 1bb2 A1F59871 		sub	r1, r1, #304
 2541 1bb6 0233     		adds	r3, r3, #2
 2542 1bb8 51F82330 		ldr	r3, [r1, r3, lsl #2]
 2543 1bbc 1A44     		add	r2, r2, r3
 2544 1bbe 07F5A073 		add	r3, r7, #320
 2545 1bc2 A3F59873 		sub	r3, r3, #304
 2546 1bc6 1A60     		str	r2, [r3]
 2547 1bc8 07F5A073 		add	r3, r7, #320
 2548 1bcc A3F59873 		sub	r3, r3, #304
 2549 1bd0 D3F81031 		ldr	r3, [r3, #272]
 2550 1bd4 4FEAB302 		ror	r2, r3, #2
 2551 1bd8 07F5A073 		add	r3, r7, #320
 2552 1bdc A3F59873 		sub	r3, r3, #304
 2553 1be0 D3F81031 		ldr	r3, [r3, #272]
 2554 1be4 4FEA7333 		ror	r3, r3, #13
 2555 1be8 5A40     		eors	r2, r2, r3
 2556 1bea 07F5A073 		add	r3, r7, #320
 2557 1bee A3F59873 		sub	r3, r3, #304
 2558 1bf2 D3F81031 		ldr	r3, [r3, #272]
 2559 1bf6 4FEAB353 		ror	r3, r3, #22
 2560 1bfa 5A40     		eors	r2, r2, r3
 2561 1bfc 07F5A073 		add	r3, r7, #320
 2562 1c00 A3F59873 		sub	r3, r3, #304
 2563 1c04 D3F81011 		ldr	r1, [r3, #272]
 2564 1c08 07F5A073 		add	r3, r7, #320
 2565 1c0c A3F59873 		sub	r3, r3, #304
 2566 1c10 D3F81431 		ldr	r3, [r3, #276]
 2567 1c14 1940     		ands	r1, r1, r3
 2568 1c16 07F5A073 		add	r3, r7, #320
 2569 1c1a A3F59873 		sub	r3, r3, #304
 2570 1c1e D3F81801 		ldr	r0, [r3, #280]
 2571 1c22 07F5A073 		add	r3, r7, #320
ARM GAS  C:\Users\clay0\AppData\Local\Temp\ccksdYIU.s 			page 59


 2572 1c26 A3F59873 		sub	r3, r3, #304
 2573 1c2a D3F81041 		ldr	r4, [r3, #272]
 2574 1c2e 07F5A073 		add	r3, r7, #320
 2575 1c32 A3F59873 		sub	r3, r3, #304
 2576 1c36 D3F81431 		ldr	r3, [r3, #276]
 2577 1c3a 2343     		orrs	r3, r3, r4
 2578 1c3c 0340     		ands	r3, r3, r0
 2579 1c3e 0B43     		orrs	r3, r3, r1
 2580 1c40 1A44     		add	r2, r2, r3
 2581 1c42 07F5A073 		add	r3, r7, #320
 2582 1c46 A3F59873 		sub	r3, r3, #304
 2583 1c4a 5A60     		str	r2, [r3, #4]
 2584 1c4c 07F5A073 		add	r3, r7, #320
 2585 1c50 A3F59873 		sub	r3, r3, #304
 2586 1c54 D3F81C21 		ldr	r2, [r3, #284]
 2587 1c58 07F5A073 		add	r3, r7, #320
 2588 1c5c A3F59873 		sub	r3, r3, #304
 2589 1c60 1B68     		ldr	r3, [r3]
 2590 1c62 1A44     		add	r2, r2, r3
 2591 1c64 07F5A073 		add	r3, r7, #320
 2592 1c68 A3F59873 		sub	r3, r3, #304
 2593 1c6c C3F81C21 		str	r2, [r3, #284]
 2594 1c70 07F5A073 		add	r3, r7, #320
 2595 1c74 A3F59873 		sub	r3, r3, #304
 2596 1c78 1A68     		ldr	r2, [r3]
 2597 1c7a 07F5A073 		add	r3, r7, #320
 2598 1c7e A3F59873 		sub	r3, r3, #304
 2599 1c82 5B68     		ldr	r3, [r3, #4]
 2600 1c84 1A44     		add	r2, r2, r3
 2601 1c86 07F5A073 		add	r3, r7, #320
 2602 1c8a A3F59873 		sub	r3, r3, #304
 2603 1c8e C3F80C21 		str	r2, [r3, #268]
 561:mbedTLS/library/sha256.c ****           local.A[7], local.A[0], local.A[1], R(i+6), K[i+6]);
 562:mbedTLS/library/sha256.c ****         P(local.A[1], local.A[2], local.A[3], local.A[4], local.A[5],
 2604              		.loc 1 562 9 discriminator 3
 2605 1c92 07F5A073 		add	r3, r7, #320
 2606 1c96 A3F59873 		sub	r3, r3, #304
 2607 1c9a D3F80821 		ldr	r2, [r3, #264]
 2608 1c9e 07F5A073 		add	r3, r7, #320
 2609 1ca2 A3F59873 		sub	r3, r3, #304
 2610 1ca6 D3F81C31 		ldr	r3, [r3, #284]
 2611 1caa 4FEAB311 		ror	r1, r3, #6
 2612 1cae 07F5A073 		add	r3, r7, #320
 2613 1cb2 A3F59873 		sub	r3, r3, #304
 2614 1cb6 D3F81C31 		ldr	r3, [r3, #284]
 2615 1cba 4FEAF323 		ror	r3, r3, #11
 2616 1cbe 5940     		eors	r1, r1, r3
 2617 1cc0 07F5A073 		add	r3, r7, #320
 2618 1cc4 A3F59873 		sub	r3, r3, #304
 2619 1cc8 D3F81C31 		ldr	r3, [r3, #284]
 2620 1ccc 4FEA7363 		ror	r3, r3, #25
 2621 1cd0 4B40     		eors	r3, r3, r1
 2622 1cd2 1A44     		add	r2, r2, r3
 2623 1cd4 07F5A073 		add	r3, r7, #320
 2624 1cd8 A3F59873 		sub	r3, r3, #304
 2625 1cdc D3F82411 		ldr	r1, [r3, #292]
 2626 1ce0 07F5A073 		add	r3, r7, #320
ARM GAS  C:\Users\clay0\AppData\Local\Temp\ccksdYIU.s 			page 60


 2627 1ce4 A3F59873 		sub	r3, r3, #304
 2628 1ce8 D3F81C01 		ldr	r0, [r3, #284]
 2629 1cec 07F5A073 		add	r3, r7, #320
 2630 1cf0 A3F59873 		sub	r3, r3, #304
 2631 1cf4 D3F82041 		ldr	r4, [r3, #288]
 2632 1cf8 07F5A073 		add	r3, r7, #320
 2633 1cfc A3F59873 		sub	r3, r3, #304
 2634 1d00 D3F82431 		ldr	r3, [r3, #292]
 2635 1d04 6340     		eors	r3, r3, r4
 2636 1d06 0340     		ands	r3, r3, r0
 2637 1d08 4B40     		eors	r3, r3, r1
 2638 1d0a 1A44     		add	r2, r2, r3
 2639 1d0c D7F83C31 		ldr	r3, [r7, #316]
 2640 1d10 0733     		adds	r3, r3, #7
 2641 1d12 6749     		ldr	r1, .L44
 2642 1d14 51F82330 		ldr	r3, [r1, r3, lsl #2]
 2643 1d18 1A44     		add	r2, r2, r3
 2644 1d1a D7F83C31 		ldr	r3, [r7, #316]
 2645 1d1e 591D     		adds	r1, r3, #5
 2646 1d20 07F5A073 		add	r3, r7, #320
 2647 1d24 A3F59873 		sub	r3, r3, #304
 2648 1d28 0231     		adds	r1, r1, #2
 2649 1d2a 53F82130 		ldr	r3, [r3, r1, lsl #2]
 2650 1d2e 4FEA7341 		ror	r1, r3, #17
 2651 1d32 D7F83C31 		ldr	r3, [r7, #316]
 2652 1d36 581D     		adds	r0, r3, #5
 2653 1d38 07F5A073 		add	r3, r7, #320
 2654 1d3c A3F59873 		sub	r3, r3, #304
 2655 1d40 0230     		adds	r0, r0, #2
 2656 1d42 53F82030 		ldr	r3, [r3, r0, lsl #2]
 2657 1d46 4FEAF343 		ror	r3, r3, #19
 2658 1d4a 5940     		eors	r1, r1, r3
 2659 1d4c D7F83C31 		ldr	r3, [r7, #316]
 2660 1d50 581D     		adds	r0, r3, #5
 2661 1d52 07F5A073 		add	r3, r7, #320
 2662 1d56 A3F59873 		sub	r3, r3, #304
 2663 1d5a 0230     		adds	r0, r0, #2
 2664 1d5c 53F82030 		ldr	r3, [r3, r0, lsl #2]
 2665 1d60 9B0A     		lsrs	r3, r3, #10
 2666 1d62 5940     		eors	r1, r1, r3
 2667 1d64 07F5A073 		add	r3, r7, #320
 2668 1d68 A3F59873 		sub	r3, r3, #304
 2669 1d6c D7F83C01 		ldr	r0, [r7, #316]
 2670 1d70 0230     		adds	r0, r0, #2
 2671 1d72 53F82030 		ldr	r3, [r3, r0, lsl #2]
 2672 1d76 1944     		add	r1, r1, r3
 2673 1d78 D7F83C31 		ldr	r3, [r7, #316]
 2674 1d7c A3F10800 		sub	r0, r3, #8
 2675 1d80 07F5A073 		add	r3, r7, #320
 2676 1d84 A3F59873 		sub	r3, r3, #304
 2677 1d88 0230     		adds	r0, r0, #2
 2678 1d8a 53F82030 		ldr	r3, [r3, r0, lsl #2]
 2679 1d8e 4FEAF310 		ror	r0, r3, #7
 2680 1d92 D7F83C31 		ldr	r3, [r7, #316]
 2681 1d96 A3F10804 		sub	r4, r3, #8
 2682 1d9a 07F5A073 		add	r3, r7, #320
 2683 1d9e A3F59873 		sub	r3, r3, #304
ARM GAS  C:\Users\clay0\AppData\Local\Temp\ccksdYIU.s 			page 61


 2684 1da2 0234     		adds	r4, r4, #2
 2685 1da4 53F82430 		ldr	r3, [r3, r4, lsl #2]
 2686 1da8 4FEAB343 		ror	r3, r3, #18
 2687 1dac 5840     		eors	r0, r0, r3
 2688 1dae D7F83C31 		ldr	r3, [r7, #316]
 2689 1db2 A3F10804 		sub	r4, r3, #8
 2690 1db6 07F5A073 		add	r3, r7, #320
 2691 1dba A3F59873 		sub	r3, r3, #304
 2692 1dbe 0234     		adds	r4, r4, #2
 2693 1dc0 53F82430 		ldr	r3, [r3, r4, lsl #2]
 2694 1dc4 DB08     		lsrs	r3, r3, #3
 2695 1dc6 4340     		eors	r3, r3, r0
 2696 1dc8 C818     		adds	r0, r1, r3
 2697 1dca D7F83C31 		ldr	r3, [r7, #316]
 2698 1dce A3F10901 		sub	r1, r3, #9
 2699 1dd2 07F5A073 		add	r3, r7, #320
 2700 1dd6 A3F59873 		sub	r3, r3, #304
 2701 1dda 0231     		adds	r1, r1, #2
 2702 1ddc 53F82110 		ldr	r1, [r3, r1, lsl #2]
 2703 1de0 D7F83C31 		ldr	r3, [r7, #316]
 2704 1de4 0733     		adds	r3, r3, #7
 2705 1de6 4418     		adds	r4, r0, r1
 2706 1de8 07F5A071 		add	r1, r7, #320
 2707 1dec A1F59871 		sub	r1, r1, #304
 2708 1df0 981C     		adds	r0, r3, #2
 2709 1df2 41F82040 		str	r4, [r1, r0, lsl #2]
 2710 1df6 07F5A071 		add	r1, r7, #320
 2711 1dfa A1F59871 		sub	r1, r1, #304
 2712 1dfe 0233     		adds	r3, r3, #2
 2713 1e00 51F82330 		ldr	r3, [r1, r3, lsl #2]
 2714 1e04 1A44     		add	r2, r2, r3
 2715 1e06 07F5A073 		add	r3, r7, #320
 2716 1e0a A3F59873 		sub	r3, r3, #304
 2717 1e0e 1A60     		str	r2, [r3]
 2718 1e10 07F5A073 		add	r3, r7, #320
 2719 1e14 A3F59873 		sub	r3, r3, #304
 2720 1e18 D3F80C31 		ldr	r3, [r3, #268]
 2721 1e1c 4FEAB302 		ror	r2, r3, #2
 2722 1e20 07F5A073 		add	r3, r7, #320
 2723 1e24 A3F59873 		sub	r3, r3, #304
 2724 1e28 D3F80C31 		ldr	r3, [r3, #268]
 2725 1e2c 4FEA7333 		ror	r3, r3, #13
 2726 1e30 5A40     		eors	r2, r2, r3
 2727 1e32 07F5A073 		add	r3, r7, #320
 2728 1e36 A3F59873 		sub	r3, r3, #304
 2729 1e3a D3F80C31 		ldr	r3, [r3, #268]
 2730 1e3e 4FEAB353 		ror	r3, r3, #22
 2731 1e42 5A40     		eors	r2, r2, r3
 2732 1e44 07F5A073 		add	r3, r7, #320
 2733 1e48 A3F59873 		sub	r3, r3, #304
 2734 1e4c D3F80C11 		ldr	r1, [r3, #268]
 2735 1e50 07F5A073 		add	r3, r7, #320
 2736 1e54 A3F59873 		sub	r3, r3, #304
 2737 1e58 D3F81031 		ldr	r3, [r3, #272]
 2738 1e5c 1940     		ands	r1, r1, r3
 2739 1e5e 07F5A073 		add	r3, r7, #320
 2740 1e62 A3F59873 		sub	r3, r3, #304
ARM GAS  C:\Users\clay0\AppData\Local\Temp\ccksdYIU.s 			page 62


 2741 1e66 D3F81401 		ldr	r0, [r3, #276]
 2742 1e6a 07F5A073 		add	r3, r7, #320
 2743 1e6e A3F59873 		sub	r3, r3, #304
 2744 1e72 D3F80C41 		ldr	r4, [r3, #268]
 2745 1e76 07F5A073 		add	r3, r7, #320
 2746 1e7a A3F59873 		sub	r3, r3, #304
 2747 1e7e D3F81031 		ldr	r3, [r3, #272]
 2748 1e82 2343     		orrs	r3, r3, r4
 2749 1e84 0340     		ands	r3, r3, r0
 2750 1e86 0B43     		orrs	r3, r3, r1
 2751 1e88 1A44     		add	r2, r2, r3
 2752 1e8a 07F5A073 		add	r3, r7, #320
 2753 1e8e A3F59873 		sub	r3, r3, #304
 2754 1e92 5A60     		str	r2, [r3, #4]
 2755 1e94 07F5A073 		add	r3, r7, #320
 2756 1e98 A3F59873 		sub	r3, r3, #304
 2757 1e9c D3F81821 		ldr	r2, [r3, #280]
 2758 1ea0 07F5A073 		add	r3, r7, #320
 2759 1ea4 A3F59873 		sub	r3, r3, #304
 2760 1ea8 1B68     		ldr	r3, [r3]
 2761 1eaa 1A44     		add	r2, r2, r3
 2762 1eac 02E0     		b	.L45
 2763              	.L46:
 2764 1eae 00BF     		.align	2
 2765              	.L44:
 2766 1eb0 00000000 		.word	K
 2767              	.L45:
 2768 1eb4 07F5A073 		add	r3, r7, #320
 2769 1eb8 A3F59873 		sub	r3, r3, #304
 2770 1ebc C3F81821 		str	r2, [r3, #280]
 2771 1ec0 07F5A073 		add	r3, r7, #320
 2772 1ec4 A3F59873 		sub	r3, r3, #304
 2773 1ec8 1A68     		ldr	r2, [r3]
 2774 1eca 07F5A073 		add	r3, r7, #320
 2775 1ece A3F59873 		sub	r3, r3, #304
 2776 1ed2 5B68     		ldr	r3, [r3, #4]
 2777 1ed4 1A44     		add	r2, r2, r3
 2778 1ed6 07F5A073 		add	r3, r7, #320
 2779 1eda A3F59873 		sub	r3, r3, #304
 2780 1ede C3F80821 		str	r2, [r3, #264]
 547:mbedTLS/library/sha256.c ****         P(local.A[0], local.A[1], local.A[2], local.A[3], local.A[4],
 2781              		.loc 1 547 28 discriminator 3
 2782 1ee2 D7F83C31 		ldr	r3, [r7, #316]
 2783 1ee6 0833     		adds	r3, r3, #8
 2784 1ee8 C7F83C31 		str	r3, [r7, #316]
 2785              	.L22:
 547:mbedTLS/library/sha256.c ****         P(local.A[0], local.A[1], local.A[2], local.A[3], local.A[4],
 2786              		.loc 1 547 5 discriminator 1
 2787 1eec D7F83C31 		ldr	r3, [r7, #316]
 2788 1ef0 3F2B     		cmp	r3, #63
 2789 1ef2 7EF6C5AE 		bls	.L23
 563:mbedTLS/library/sha256.c ****           local.A[6], local.A[7], local.A[0], R(i+7), K[i+7]);
 564:mbedTLS/library/sha256.c ****     }
 565:mbedTLS/library/sha256.c **** #endif /* MBEDTLS_SHA256_SMALLER */
 566:mbedTLS/library/sha256.c **** 
 567:mbedTLS/library/sha256.c ****     for (i = 0; i < 8; i++) {
 2790              		.loc 1 567 12
ARM GAS  C:\Users\clay0\AppData\Local\Temp\ccksdYIU.s 			page 63


 2791 1ef6 0023     		movs	r3, #0
 2792 1ef8 C7F83C31 		str	r3, [r7, #316]
 2793              		.loc 1 567 5
 2794 1efc 22E0     		b	.L24
 2795              	.L25:
 568:mbedTLS/library/sha256.c ****         ctx->state[i] += local.A[i];
 2796              		.loc 1 568 23 discriminator 3
 2797 1efe 07F5A073 		add	r3, r7, #320
 2798 1f02 A3F59E73 		sub	r3, r3, #316
 2799 1f06 1B68     		ldr	r3, [r3]
 2800 1f08 D7F83C21 		ldr	r2, [r7, #316]
 2801 1f0c 1232     		adds	r2, r2, #18
 2802 1f0e 53F82220 		ldr	r2, [r3, r2, lsl #2]
 2803              		.loc 1 568 33 discriminator 3
 2804 1f12 07F5A073 		add	r3, r7, #320
 2805 1f16 A3F59873 		sub	r3, r3, #304
 2806 1f1a D7F83C11 		ldr	r1, [r7, #316]
 2807 1f1e 4231     		adds	r1, r1, #66
 2808 1f20 53F82130 		ldr	r3, [r3, r1, lsl #2]
 2809              		.loc 1 568 23 discriminator 3
 2810 1f24 D118     		adds	r1, r2, r3
 2811 1f26 07F5A073 		add	r3, r7, #320
 2812 1f2a A3F59E73 		sub	r3, r3, #316
 2813 1f2e 1B68     		ldr	r3, [r3]
 2814 1f30 D7F83C21 		ldr	r2, [r7, #316]
 2815 1f34 1232     		adds	r2, r2, #18
 2816 1f36 43F82210 		str	r1, [r3, r2, lsl #2]
 567:mbedTLS/library/sha256.c ****         ctx->state[i] += local.A[i];
 2817              		.loc 1 567 25 discriminator 3
 2818 1f3a D7F83C31 		ldr	r3, [r7, #316]
 2819 1f3e 0133     		adds	r3, r3, #1
 2820 1f40 C7F83C31 		str	r3, [r7, #316]
 2821              	.L24:
 567:mbedTLS/library/sha256.c ****         ctx->state[i] += local.A[i];
 2822              		.loc 1 567 5 discriminator 1
 2823 1f44 D7F83C31 		ldr	r3, [r7, #316]
 2824 1f48 072B     		cmp	r3, #7
 2825 1f4a D8D9     		bls	.L25
 569:mbedTLS/library/sha256.c ****     }
 570:mbedTLS/library/sha256.c **** 
 571:mbedTLS/library/sha256.c ****     /* Zeroise buffers and variables to clear sensitive data from memory. */
 572:mbedTLS/library/sha256.c ****     mbedtls_platform_zeroize(&local, sizeof(local));
 2826              		.loc 1 572 5
 2827 1f4c 07F11003 		add	r3, r7, #16
 2828 1f50 4FF49471 		mov	r1, #296
 2829 1f54 1846     		mov	r0, r3
 2830 1f56 FFF7FEFF 		bl	mbedtls_platform_zeroize
 573:mbedTLS/library/sha256.c **** 
 574:mbedTLS/library/sha256.c ****     return 0;
 2831              		.loc 1 574 12
 2832 1f5a 0023     		movs	r3, #0
 575:mbedTLS/library/sha256.c **** }
 2833              		.loc 1 575 1
 2834 1f5c 1846     		mov	r0, r3
 2835 1f5e 07F5A277 		add	r7, r7, #324
 2836              	.LCFI24:
 2837              		.cfi_def_cfa_offset 12
ARM GAS  C:\Users\clay0\AppData\Local\Temp\ccksdYIU.s 			page 64


 2838 1f62 BD46     		mov	sp, r7
 2839              	.LCFI25:
 2840              		.cfi_def_cfa_register 13
 2841              		@ sp needed
 2842 1f64 90BD     		pop	{r4, r7, pc}
 2843              		.cfi_endproc
 2844              	.LFE18:
 2846 1f66 00BF     		.section	.text.mbedtls_internal_sha256_process_many,"ax",%progbits
 2847              		.align	1
 2848              		.syntax unified
 2849              		.thumb
 2850              		.thumb_func
 2852              	mbedtls_internal_sha256_process_many:
 2853              	.LFB19:
 576:mbedTLS/library/sha256.c **** 
 577:mbedTLS/library/sha256.c **** #endif /* !MBEDTLS_SHA256_PROCESS_ALT && !MBEDTLS_SHA256_USE_ARMV8_A_CRYPTO_ONLY */
 578:mbedTLS/library/sha256.c **** 
 579:mbedTLS/library/sha256.c **** 
 580:mbedTLS/library/sha256.c **** #if !defined(MBEDTLS_SHA256_USE_ARMV8_A_CRYPTO_ONLY)
 581:mbedTLS/library/sha256.c **** 
 582:mbedTLS/library/sha256.c **** static size_t mbedtls_internal_sha256_process_many_c(
 583:mbedTLS/library/sha256.c ****     mbedtls_sha256_context *ctx, const uint8_t *data, size_t len)
 584:mbedTLS/library/sha256.c **** {
 2854              		.loc 1 584 1
 2855              		.cfi_startproc
 2856              		@ args = 0, pretend = 0, frame = 24
 2857              		@ frame_needed = 1, uses_anonymous_args = 0
 2858 0000 80B5     		push	{r7, lr}
 2859              	.LCFI26:
 2860              		.cfi_def_cfa_offset 8
 2861              		.cfi_offset 7, -8
 2862              		.cfi_offset 14, -4
 2863 0002 86B0     		sub	sp, sp, #24
 2864              	.LCFI27:
 2865              		.cfi_def_cfa_offset 32
 2866 0004 00AF     		add	r7, sp, #0
 2867              	.LCFI28:
 2868              		.cfi_def_cfa_register 7
 2869 0006 F860     		str	r0, [r7, #12]
 2870 0008 B960     		str	r1, [r7, #8]
 2871 000a 7A60     		str	r2, [r7, #4]
 585:mbedTLS/library/sha256.c ****     size_t processed = 0;
 2872              		.loc 1 585 12
 2873 000c 0023     		movs	r3, #0
 2874 000e 7B61     		str	r3, [r7, #20]
 586:mbedTLS/library/sha256.c **** 
 587:mbedTLS/library/sha256.c ****     while (len >= SHA256_BLOCK_SIZE) {
 2875              		.loc 1 587 11
 2876 0010 11E0     		b	.L48
 2877              	.L51:
 588:mbedTLS/library/sha256.c ****         if (mbedtls_internal_sha256_process_c(ctx, data) != 0) {
 2878              		.loc 1 588 13
 2879 0012 B968     		ldr	r1, [r7, #8]
 2880 0014 F868     		ldr	r0, [r7, #12]
 2881 0016 FFF7FEFF 		bl	mbedtls_internal_sha256_process
 2882 001a 0346     		mov	r3, r0
 2883              		.loc 1 588 12
ARM GAS  C:\Users\clay0\AppData\Local\Temp\ccksdYIU.s 			page 65


 2884 001c 002B     		cmp	r3, #0
 2885 001e 01D0     		beq	.L49
 589:mbedTLS/library/sha256.c ****             return 0;
 2886              		.loc 1 589 20
 2887 0020 0023     		movs	r3, #0
 2888 0022 0CE0     		b	.L50
 2889              	.L49:
 590:mbedTLS/library/sha256.c ****         }
 591:mbedTLS/library/sha256.c **** 
 592:mbedTLS/library/sha256.c ****         data += SHA256_BLOCK_SIZE;
 2890              		.loc 1 592 14
 2891 0024 BB68     		ldr	r3, [r7, #8]
 2892 0026 4033     		adds	r3, r3, #64
 2893 0028 BB60     		str	r3, [r7, #8]
 593:mbedTLS/library/sha256.c ****         len  -= SHA256_BLOCK_SIZE;
 2894              		.loc 1 593 14
 2895 002a 7B68     		ldr	r3, [r7, #4]
 2896 002c 403B     		subs	r3, r3, #64
 2897 002e 7B60     		str	r3, [r7, #4]
 594:mbedTLS/library/sha256.c **** 
 595:mbedTLS/library/sha256.c ****         processed += SHA256_BLOCK_SIZE;
 2898              		.loc 1 595 19
 2899 0030 7B69     		ldr	r3, [r7, #20]
 2900 0032 4033     		adds	r3, r3, #64
 2901 0034 7B61     		str	r3, [r7, #20]
 2902              	.L48:
 587:mbedTLS/library/sha256.c ****         if (mbedtls_internal_sha256_process_c(ctx, data) != 0) {
 2903              		.loc 1 587 11
 2904 0036 7B68     		ldr	r3, [r7, #4]
 2905 0038 3F2B     		cmp	r3, #63
 2906 003a EAD8     		bhi	.L51
 596:mbedTLS/library/sha256.c ****     }
 597:mbedTLS/library/sha256.c **** 
 598:mbedTLS/library/sha256.c ****     return processed;
 2907              		.loc 1 598 12
 2908 003c 7B69     		ldr	r3, [r7, #20]
 2909              	.L50:
 599:mbedTLS/library/sha256.c **** }
 2910              		.loc 1 599 1
 2911 003e 1846     		mov	r0, r3
 2912 0040 1837     		adds	r7, r7, #24
 2913              	.LCFI29:
 2914              		.cfi_def_cfa_offset 8
 2915 0042 BD46     		mov	sp, r7
 2916              	.LCFI30:
 2917              		.cfi_def_cfa_register 13
 2918              		@ sp needed
 2919 0044 80BD     		pop	{r7, pc}
 2920              		.cfi_endproc
 2921              	.LFE19:
 2923              		.section	.text.mbedtls_sha256_update,"ax",%progbits
 2924              		.align	1
 2925              		.global	mbedtls_sha256_update
 2926              		.syntax unified
 2927              		.thumb
 2928              		.thumb_func
 2930              	mbedtls_sha256_update:
ARM GAS  C:\Users\clay0\AppData\Local\Temp\ccksdYIU.s 			page 66


 2931              	.LFB20:
 600:mbedTLS/library/sha256.c **** 
 601:mbedTLS/library/sha256.c **** #endif /* !MBEDTLS_SHA256_USE_ARMV8_A_CRYPTO_ONLY */
 602:mbedTLS/library/sha256.c **** 
 603:mbedTLS/library/sha256.c **** 
 604:mbedTLS/library/sha256.c **** #if defined(MBEDTLS_SHA256_USE_ARMV8_A_CRYPTO_IF_PRESENT)
 605:mbedTLS/library/sha256.c **** 
 606:mbedTLS/library/sha256.c **** static int mbedtls_a64_crypto_sha256_has_support(void)
 607:mbedTLS/library/sha256.c **** {
 608:mbedTLS/library/sha256.c ****     static int done = 0;
 609:mbedTLS/library/sha256.c ****     static int supported = 0;
 610:mbedTLS/library/sha256.c **** 
 611:mbedTLS/library/sha256.c ****     if (!done) {
 612:mbedTLS/library/sha256.c ****         supported = mbedtls_a64_crypto_sha256_determine_support();
 613:mbedTLS/library/sha256.c ****         done = 1;
 614:mbedTLS/library/sha256.c ****     }
 615:mbedTLS/library/sha256.c **** 
 616:mbedTLS/library/sha256.c ****     return supported;
 617:mbedTLS/library/sha256.c **** }
 618:mbedTLS/library/sha256.c **** 
 619:mbedTLS/library/sha256.c **** static size_t mbedtls_internal_sha256_process_many(mbedtls_sha256_context *ctx,
 620:mbedTLS/library/sha256.c ****                                                    const uint8_t *msg, size_t len)
 621:mbedTLS/library/sha256.c **** {
 622:mbedTLS/library/sha256.c ****     if (mbedtls_a64_crypto_sha256_has_support()) {
 623:mbedTLS/library/sha256.c ****         return mbedtls_internal_sha256_process_many_a64_crypto(ctx, msg, len);
 624:mbedTLS/library/sha256.c ****     } else {
 625:mbedTLS/library/sha256.c ****         return mbedtls_internal_sha256_process_many_c(ctx, msg, len);
 626:mbedTLS/library/sha256.c ****     }
 627:mbedTLS/library/sha256.c **** }
 628:mbedTLS/library/sha256.c **** 
 629:mbedTLS/library/sha256.c **** int mbedtls_internal_sha256_process(mbedtls_sha256_context *ctx,
 630:mbedTLS/library/sha256.c ****                                     const unsigned char data[SHA256_BLOCK_SIZE])
 631:mbedTLS/library/sha256.c **** {
 632:mbedTLS/library/sha256.c ****     if (mbedtls_a64_crypto_sha256_has_support()) {
 633:mbedTLS/library/sha256.c ****         return mbedtls_internal_sha256_process_a64_crypto(ctx, data);
 634:mbedTLS/library/sha256.c ****     } else {
 635:mbedTLS/library/sha256.c ****         return mbedtls_internal_sha256_process_c(ctx, data);
 636:mbedTLS/library/sha256.c ****     }
 637:mbedTLS/library/sha256.c **** }
 638:mbedTLS/library/sha256.c **** 
 639:mbedTLS/library/sha256.c **** #endif /* MBEDTLS_SHA256_USE_ARMV8_A_CRYPTO_IF_PRESENT */
 640:mbedTLS/library/sha256.c **** 
 641:mbedTLS/library/sha256.c **** 
 642:mbedTLS/library/sha256.c **** /*
 643:mbedTLS/library/sha256.c ****  * SHA-256 process buffer
 644:mbedTLS/library/sha256.c ****  */
 645:mbedTLS/library/sha256.c **** int mbedtls_sha256_update(mbedtls_sha256_context *ctx,
 646:mbedTLS/library/sha256.c ****                           const unsigned char *input,
 647:mbedTLS/library/sha256.c ****                           size_t ilen)
 648:mbedTLS/library/sha256.c **** {
 2932              		.loc 1 648 1
 2933              		.cfi_startproc
 2934              		@ args = 0, pretend = 0, frame = 32
 2935              		@ frame_needed = 1, uses_anonymous_args = 0
 2936 0000 80B5     		push	{r7, lr}
 2937              	.LCFI31:
 2938              		.cfi_def_cfa_offset 8
ARM GAS  C:\Users\clay0\AppData\Local\Temp\ccksdYIU.s 			page 67


 2939              		.cfi_offset 7, -8
 2940              		.cfi_offset 14, -4
 2941 0002 88B0     		sub	sp, sp, #32
 2942              	.LCFI32:
 2943              		.cfi_def_cfa_offset 40
 2944 0004 00AF     		add	r7, sp, #0
 2945              	.LCFI33:
 2946              		.cfi_def_cfa_register 7
 2947 0006 F860     		str	r0, [r7, #12]
 2948 0008 B960     		str	r1, [r7, #8]
 2949 000a 7A60     		str	r2, [r7, #4]
 649:mbedTLS/library/sha256.c ****     int ret = MBEDTLS_ERR_ERROR_CORRUPTION_DETECTED;
 2950              		.loc 1 649 9
 2951 000c 6FF06D03 		mvn	r3, #109
 2952 0010 BB61     		str	r3, [r7, #24]
 650:mbedTLS/library/sha256.c ****     size_t fill;
 651:mbedTLS/library/sha256.c ****     uint32_t left;
 652:mbedTLS/library/sha256.c **** 
 653:mbedTLS/library/sha256.c ****     if (ilen == 0) {
 2953              		.loc 1 653 8
 2954 0012 7B68     		ldr	r3, [r7, #4]
 2955 0014 002B     		cmp	r3, #0
 2956 0016 01D1     		bne	.L53
 654:mbedTLS/library/sha256.c ****         return 0;
 2957              		.loc 1 654 16
 2958 0018 0023     		movs	r3, #0
 2959 001a 64E0     		b	.L54
 2960              	.L53:
 655:mbedTLS/library/sha256.c ****     }
 656:mbedTLS/library/sha256.c **** 
 657:mbedTLS/library/sha256.c ****     left = ctx->total[0] & 0x3F;
 2961              		.loc 1 657 22
 2962 001c FB68     		ldr	r3, [r7, #12]
 2963 001e 1B6C     		ldr	r3, [r3, #64]
 2964              		.loc 1 657 10
 2965 0020 03F03F03 		and	r3, r3, #63
 2966 0024 FB61     		str	r3, [r7, #28]
 658:mbedTLS/library/sha256.c ****     fill = SHA256_BLOCK_SIZE - left;
 2967              		.loc 1 658 10
 2968 0026 FB69     		ldr	r3, [r7, #28]
 2969 0028 C3F14003 		rsb	r3, r3, #64
 2970 002c 7B61     		str	r3, [r7, #20]
 659:mbedTLS/library/sha256.c **** 
 660:mbedTLS/library/sha256.c ****     ctx->total[0] += (uint32_t) ilen;
 2971              		.loc 1 660 19
 2972 002e FB68     		ldr	r3, [r7, #12]
 2973 0030 1A6C     		ldr	r2, [r3, #64]
 2974 0032 7B68     		ldr	r3, [r7, #4]
 2975 0034 1A44     		add	r2, r2, r3
 2976 0036 FB68     		ldr	r3, [r7, #12]
 2977 0038 1A64     		str	r2, [r3, #64]
 661:mbedTLS/library/sha256.c ****     ctx->total[0] &= 0xFFFFFFFF;
 2978              		.loc 1 661 19
 2979 003a FB68     		ldr	r3, [r7, #12]
 2980 003c 1A6C     		ldr	r2, [r3, #64]
 2981 003e FB68     		ldr	r3, [r7, #12]
 2982 0040 1A64     		str	r2, [r3, #64]
ARM GAS  C:\Users\clay0\AppData\Local\Temp\ccksdYIU.s 			page 68


 662:mbedTLS/library/sha256.c **** 
 663:mbedTLS/library/sha256.c ****     if (ctx->total[0] < (uint32_t) ilen) {
 2983              		.loc 1 663 19
 2984 0042 FB68     		ldr	r3, [r7, #12]
 2985 0044 1B6C     		ldr	r3, [r3, #64]
 2986              		.loc 1 663 8
 2987 0046 7A68     		ldr	r2, [r7, #4]
 2988 0048 9A42     		cmp	r2, r3
 2989 004a 04D9     		bls	.L55
 664:mbedTLS/library/sha256.c ****         ctx->total[1]++;
 2990              		.loc 1 664 19
 2991 004c FB68     		ldr	r3, [r7, #12]
 2992 004e 5B6C     		ldr	r3, [r3, #68]
 2993              		.loc 1 664 22
 2994 0050 5A1C     		adds	r2, r3, #1
 2995 0052 FB68     		ldr	r3, [r7, #12]
 2996 0054 5A64     		str	r2, [r3, #68]
 2997              	.L55:
 665:mbedTLS/library/sha256.c ****     }
 666:mbedTLS/library/sha256.c **** 
 667:mbedTLS/library/sha256.c ****     if (left && ilen >= fill) {
 2998              		.loc 1 667 8
 2999 0056 FB69     		ldr	r3, [r7, #28]
 3000 0058 002B     		cmp	r3, #0
 3001 005a 35D0     		beq	.L58
 3002              		.loc 1 667 14 discriminator 1
 3003 005c 7A68     		ldr	r2, [r7, #4]
 3004 005e 7B69     		ldr	r3, [r7, #20]
 3005 0060 9A42     		cmp	r2, r3
 3006 0062 31D3     		bcc	.L58
 668:mbedTLS/library/sha256.c ****         memcpy((void *) (ctx->buffer + left), input, fill);
 3007              		.loc 1 668 26
 3008 0064 FA68     		ldr	r2, [r7, #12]
 3009              		.loc 1 668 9
 3010 0066 FB69     		ldr	r3, [r7, #28]
 3011 0068 1344     		add	r3, r3, r2
 3012 006a 7A69     		ldr	r2, [r7, #20]
 3013 006c B968     		ldr	r1, [r7, #8]
 3014 006e 1846     		mov	r0, r3
 3015 0070 FFF7FEFF 		bl	memcpy
 669:mbedTLS/library/sha256.c **** 
 670:mbedTLS/library/sha256.c ****         if ((ret = mbedtls_internal_sha256_process(ctx, ctx->buffer)) != 0) {
 3016              		.loc 1 670 60
 3017 0074 FB68     		ldr	r3, [r7, #12]
 3018              		.loc 1 670 20
 3019 0076 1946     		mov	r1, r3
 3020 0078 F868     		ldr	r0, [r7, #12]
 3021 007a FFF7FEFF 		bl	mbedtls_internal_sha256_process
 3022 007e B861     		str	r0, [r7, #24]
 3023              		.loc 1 670 12
 3024 0080 BB69     		ldr	r3, [r7, #24]
 3025 0082 002B     		cmp	r3, #0
 3026 0084 01D0     		beq	.L57
 671:mbedTLS/library/sha256.c ****             return ret;
 3027              		.loc 1 671 20
 3028 0086 BB69     		ldr	r3, [r7, #24]
 3029 0088 2DE0     		b	.L54
ARM GAS  C:\Users\clay0\AppData\Local\Temp\ccksdYIU.s 			page 69


 3030              	.L57:
 672:mbedTLS/library/sha256.c ****         }
 673:mbedTLS/library/sha256.c **** 
 674:mbedTLS/library/sha256.c ****         input += fill;
 3031              		.loc 1 674 15
 3032 008a BA68     		ldr	r2, [r7, #8]
 3033 008c 7B69     		ldr	r3, [r7, #20]
 3034 008e 1344     		add	r3, r3, r2
 3035 0090 BB60     		str	r3, [r7, #8]
 675:mbedTLS/library/sha256.c ****         ilen  -= fill;
 3036              		.loc 1 675 15
 3037 0092 7A68     		ldr	r2, [r7, #4]
 3038 0094 7B69     		ldr	r3, [r7, #20]
 3039 0096 D31A     		subs	r3, r2, r3
 3040 0098 7B60     		str	r3, [r7, #4]
 676:mbedTLS/library/sha256.c ****         left = 0;
 3041              		.loc 1 676 14
 3042 009a 0023     		movs	r3, #0
 3043 009c FB61     		str	r3, [r7, #28]
 677:mbedTLS/library/sha256.c ****     }
 678:mbedTLS/library/sha256.c **** 
 679:mbedTLS/library/sha256.c ****     while (ilen >= SHA256_BLOCK_SIZE) {
 3044              		.loc 1 679 11
 3045 009e 13E0     		b	.L58
 3046              	.L60:
 3047              	.LBB26:
 680:mbedTLS/library/sha256.c ****         size_t processed =
 681:mbedTLS/library/sha256.c ****             mbedtls_internal_sha256_process_many(ctx, input, ilen);
 3048              		.loc 1 681 13
 3049 00a0 7A68     		ldr	r2, [r7, #4]
 3050 00a2 B968     		ldr	r1, [r7, #8]
 3051 00a4 F868     		ldr	r0, [r7, #12]
 3052 00a6 FFF7FEFF 		bl	mbedtls_internal_sha256_process_many
 3053 00aa 3861     		str	r0, [r7, #16]
 682:mbedTLS/library/sha256.c ****         if (processed < SHA256_BLOCK_SIZE) {
 3054              		.loc 1 682 12
 3055 00ac 3B69     		ldr	r3, [r7, #16]
 3056 00ae 3F2B     		cmp	r3, #63
 3057 00b0 02D8     		bhi	.L59
 683:mbedTLS/library/sha256.c ****             return MBEDTLS_ERR_ERROR_GENERIC_ERROR;
 3058              		.loc 1 683 20
 3059 00b2 4FF0FF33 		mov	r3, #-1
 3060 00b6 16E0     		b	.L54
 3061              	.L59:
 684:mbedTLS/library/sha256.c ****         }
 685:mbedTLS/library/sha256.c **** 
 686:mbedTLS/library/sha256.c ****         input += processed;
 3062              		.loc 1 686 15
 3063 00b8 BA68     		ldr	r2, [r7, #8]
 3064 00ba 3B69     		ldr	r3, [r7, #16]
 3065 00bc 1344     		add	r3, r3, r2
 3066 00be BB60     		str	r3, [r7, #8]
 687:mbedTLS/library/sha256.c ****         ilen  -= processed;
 3067              		.loc 1 687 15
 3068 00c0 7A68     		ldr	r2, [r7, #4]
 3069 00c2 3B69     		ldr	r3, [r7, #16]
 3070 00c4 D31A     		subs	r3, r2, r3
ARM GAS  C:\Users\clay0\AppData\Local\Temp\ccksdYIU.s 			page 70


 3071 00c6 7B60     		str	r3, [r7, #4]
 3072              	.L58:
 3073              	.LBE26:
 679:mbedTLS/library/sha256.c ****         size_t processed =
 3074              		.loc 1 679 11
 3075 00c8 7B68     		ldr	r3, [r7, #4]
 3076 00ca 3F2B     		cmp	r3, #63
 3077 00cc E8D8     		bhi	.L60
 688:mbedTLS/library/sha256.c ****     }
 689:mbedTLS/library/sha256.c **** 
 690:mbedTLS/library/sha256.c ****     if (ilen > 0) {
 3078              		.loc 1 690 8
 3079 00ce 7B68     		ldr	r3, [r7, #4]
 3080 00d0 002B     		cmp	r3, #0
 3081 00d2 07D0     		beq	.L61
 691:mbedTLS/library/sha256.c ****         memcpy((void *) (ctx->buffer + left), input, ilen);
 3082              		.loc 1 691 26
 3083 00d4 FA68     		ldr	r2, [r7, #12]
 3084              		.loc 1 691 9
 3085 00d6 FB69     		ldr	r3, [r7, #28]
 3086 00d8 1344     		add	r3, r3, r2
 3087 00da 7A68     		ldr	r2, [r7, #4]
 3088 00dc B968     		ldr	r1, [r7, #8]
 3089 00de 1846     		mov	r0, r3
 3090 00e0 FFF7FEFF 		bl	memcpy
 3091              	.L61:
 692:mbedTLS/library/sha256.c ****     }
 693:mbedTLS/library/sha256.c **** 
 694:mbedTLS/library/sha256.c ****     return 0;
 3092              		.loc 1 694 12
 3093 00e4 0023     		movs	r3, #0
 3094              	.L54:
 695:mbedTLS/library/sha256.c **** }
 3095              		.loc 1 695 1
 3096 00e6 1846     		mov	r0, r3
 3097 00e8 2037     		adds	r7, r7, #32
 3098              	.LCFI34:
 3099              		.cfi_def_cfa_offset 8
 3100 00ea BD46     		mov	sp, r7
 3101              	.LCFI35:
 3102              		.cfi_def_cfa_register 13
 3103              		@ sp needed
 3104 00ec 80BD     		pop	{r7, pc}
 3105              		.cfi_endproc
 3106              	.LFE20:
 3108              		.section	.text.mbedtls_sha256_finish,"ax",%progbits
 3109              		.align	1
 3110              		.global	mbedtls_sha256_finish
 3111              		.syntax unified
 3112              		.thumb
 3113              		.thumb_func
 3115              	mbedtls_sha256_finish:
 3116              	.LFB21:
 696:mbedTLS/library/sha256.c **** 
 697:mbedTLS/library/sha256.c **** /*
 698:mbedTLS/library/sha256.c ****  * SHA-256 final digest
 699:mbedTLS/library/sha256.c ****  */
ARM GAS  C:\Users\clay0\AppData\Local\Temp\ccksdYIU.s 			page 71


 700:mbedTLS/library/sha256.c **** int mbedtls_sha256_finish(mbedtls_sha256_context *ctx,
 701:mbedTLS/library/sha256.c ****                           unsigned char *output)
 702:mbedTLS/library/sha256.c **** {
 3117              		.loc 1 702 1
 3118              		.cfi_startproc
 3119              		@ args = 0, pretend = 0, frame = 112
 3120              		@ frame_needed = 1, uses_anonymous_args = 0
 3121 0000 80B5     		push	{r7, lr}
 3122              	.LCFI36:
 3123              		.cfi_def_cfa_offset 8
 3124              		.cfi_offset 7, -8
 3125              		.cfi_offset 14, -4
 3126 0002 9CB0     		sub	sp, sp, #112
 3127              	.LCFI37:
 3128              		.cfi_def_cfa_offset 120
 3129 0004 00AF     		add	r7, sp, #0
 3130              	.LCFI38:
 3131              		.cfi_def_cfa_register 7
 3132 0006 7860     		str	r0, [r7, #4]
 3133 0008 3960     		str	r1, [r7]
 703:mbedTLS/library/sha256.c ****     int ret = MBEDTLS_ERR_ERROR_CORRUPTION_DETECTED;
 3134              		.loc 1 703 9
 3135 000a 6FF06D03 		mvn	r3, #109
 3136 000e 7B66     		str	r3, [r7, #100]
 704:mbedTLS/library/sha256.c ****     uint32_t used;
 705:mbedTLS/library/sha256.c ****     uint32_t high, low;
 706:mbedTLS/library/sha256.c ****     int truncated = 0;
 3137              		.loc 1 706 9
 3138 0010 0023     		movs	r3, #0
 3139 0012 FB65     		str	r3, [r7, #92]
 707:mbedTLS/library/sha256.c **** 
 708:mbedTLS/library/sha256.c ****     /*
 709:mbedTLS/library/sha256.c ****      * Add padding: 0x80 then 0x00 until 8 bytes remain for the length
 710:mbedTLS/library/sha256.c ****      */
 711:mbedTLS/library/sha256.c ****     used = ctx->total[0] & 0x3F;
 3140              		.loc 1 711 22
 3141 0014 7B68     		ldr	r3, [r7, #4]
 3142 0016 1B6C     		ldr	r3, [r3, #64]
 3143              		.loc 1 711 10
 3144 0018 03F03F03 		and	r3, r3, #63
 3145 001c 3B66     		str	r3, [r7, #96]
 712:mbedTLS/library/sha256.c **** 
 713:mbedTLS/library/sha256.c ****     ctx->buffer[used++] = 0x80;
 3146              		.loc 1 713 21
 3147 001e 3B6E     		ldr	r3, [r7, #96]
 3148 0020 5A1C     		adds	r2, r3, #1
 3149 0022 3A66     		str	r2, [r7, #96]
 3150              		.loc 1 713 25
 3151 0024 7A68     		ldr	r2, [r7, #4]
 3152 0026 8021     		movs	r1, #128
 3153 0028 D154     		strb	r1, [r2, r3]
 714:mbedTLS/library/sha256.c **** 
 715:mbedTLS/library/sha256.c ****     if (used <= 56) {
 3154              		.loc 1 715 8
 3155 002a 3B6E     		ldr	r3, [r7, #96]
 3156 002c 382B     		cmp	r3, #56
 3157 002e 0AD8     		bhi	.L63
ARM GAS  C:\Users\clay0\AppData\Local\Temp\ccksdYIU.s 			page 72


 716:mbedTLS/library/sha256.c ****         /* Enough room for padding + length in current block */
 717:mbedTLS/library/sha256.c ****         memset(ctx->buffer + used, 0, 56 - used);
 3158              		.loc 1 717 16
 3159 0030 7A68     		ldr	r2, [r7, #4]
 3160              		.loc 1 717 9
 3161 0032 3B6E     		ldr	r3, [r7, #96]
 3162 0034 D018     		adds	r0, r2, r3
 3163              		.loc 1 717 42
 3164 0036 3B6E     		ldr	r3, [r7, #96]
 3165 0038 C3F13803 		rsb	r3, r3, #56
 3166              		.loc 1 717 9
 3167 003c 1A46     		mov	r2, r3
 3168 003e 0021     		movs	r1, #0
 3169 0040 FFF7FEFF 		bl	memset
 3170 0044 19E0     		b	.L64
 3171              	.L63:
 718:mbedTLS/library/sha256.c ****     } else {
 719:mbedTLS/library/sha256.c ****         /* We'll need an extra block */
 720:mbedTLS/library/sha256.c ****         memset(ctx->buffer + used, 0, SHA256_BLOCK_SIZE - used);
 3172              		.loc 1 720 16
 3173 0046 7A68     		ldr	r2, [r7, #4]
 3174              		.loc 1 720 9
 3175 0048 3B6E     		ldr	r3, [r7, #96]
 3176 004a D018     		adds	r0, r2, r3
 3177              		.loc 1 720 57
 3178 004c 3B6E     		ldr	r3, [r7, #96]
 3179 004e C3F14003 		rsb	r3, r3, #64
 3180              		.loc 1 720 9
 3181 0052 1A46     		mov	r2, r3
 3182 0054 0021     		movs	r1, #0
 3183 0056 FFF7FEFF 		bl	memset
 721:mbedTLS/library/sha256.c **** 
 722:mbedTLS/library/sha256.c ****         if ((ret = mbedtls_internal_sha256_process(ctx, ctx->buffer)) != 0) {
 3184              		.loc 1 722 60
 3185 005a 7B68     		ldr	r3, [r7, #4]
 3186              		.loc 1 722 20
 3187 005c 1946     		mov	r1, r3
 3188 005e 7868     		ldr	r0, [r7, #4]
 3189 0060 FFF7FEFF 		bl	mbedtls_internal_sha256_process
 3190 0064 7866     		str	r0, [r7, #100]
 3191              		.loc 1 722 12
 3192 0066 7B6E     		ldr	r3, [r7, #100]
 3193 0068 002B     		cmp	r3, #0
 3194 006a 40F09780 		bne	.L70
 723:mbedTLS/library/sha256.c ****             goto exit;
 724:mbedTLS/library/sha256.c ****         }
 725:mbedTLS/library/sha256.c **** 
 726:mbedTLS/library/sha256.c ****         memset(ctx->buffer, 0, 56);
 3195              		.loc 1 726 19
 3196 006e 7B68     		ldr	r3, [r7, #4]
 3197              		.loc 1 726 9
 3198 0070 3822     		movs	r2, #56
 3199 0072 0021     		movs	r1, #0
 3200 0074 1846     		mov	r0, r3
 3201 0076 FFF7FEFF 		bl	memset
 3202              	.L64:
 727:mbedTLS/library/sha256.c ****     }
ARM GAS  C:\Users\clay0\AppData\Local\Temp\ccksdYIU.s 			page 73


 728:mbedTLS/library/sha256.c **** 
 729:mbedTLS/library/sha256.c ****     /*
 730:mbedTLS/library/sha256.c ****      * Add message length
 731:mbedTLS/library/sha256.c ****      */
 732:mbedTLS/library/sha256.c ****     high = (ctx->total[0] >> 29)
 3203              		.loc 1 732 23
 3204 007a 7B68     		ldr	r3, [r7, #4]
 3205 007c 1B6C     		ldr	r3, [r3, #64]
 3206              		.loc 1 732 27
 3207 007e 5A0F     		lsrs	r2, r3, #29
 733:mbedTLS/library/sha256.c ****            | (ctx->total[1] <<  3);
 3208              		.loc 1 733 25
 3209 0080 7B68     		ldr	r3, [r7, #4]
 3210 0082 5B6C     		ldr	r3, [r3, #68]
 3211              		.loc 1 733 29
 3212 0084 DB00     		lsls	r3, r3, #3
 732:mbedTLS/library/sha256.c ****            | (ctx->total[1] <<  3);
 3213              		.loc 1 732 10
 3214 0086 1343     		orrs	r3, r3, r2
 3215 0088 BB66     		str	r3, [r7, #104]
 734:mbedTLS/library/sha256.c ****     low  = (ctx->total[0] <<  3);
 3216              		.loc 1 734 23
 3217 008a 7B68     		ldr	r3, [r7, #4]
 3218 008c 1B6C     		ldr	r3, [r3, #64]
 3219              		.loc 1 734 10
 3220 008e DB00     		lsls	r3, r3, #3
 3221 0090 FB66     		str	r3, [r7, #108]
 735:mbedTLS/library/sha256.c **** 
 736:mbedTLS/library/sha256.c ****     MBEDTLS_PUT_UINT32_BE(high, ctx->buffer, 56);
 3222              		.loc 1 736 5
 3223 0092 7B68     		ldr	r3, [r7, #4]
 3224 0094 03F13802 		add	r2, r3, #56
 3225 0098 BB6E     		ldr	r3, [r7, #104]
 3226 009a 1BBA     		rev	r3, r3
 3227 009c BA65     		str	r2, [r7, #88]
 3228 009e FB60     		str	r3, [r7, #12]
 3229 00a0 FA68     		ldr	r2, [r7, #12]
 3230              	.LBB27:
 3231              	.LBB28:
 180:mbedTLS/library/alignment.h **** }
 181:mbedTLS/library/alignment.h **** 
 182:mbedTLS/library/alignment.h **** /**
 183:mbedTLS/library/alignment.h ****  * Write the unsigned 32 bits integer to the given address, which need not
 184:mbedTLS/library/alignment.h ****  * be aligned.
 185:mbedTLS/library/alignment.h ****  *
 186:mbedTLS/library/alignment.h ****  * \param   p pointer to 4 bytes of data
 187:mbedTLS/library/alignment.h ****  * \param   x data to write
 188:mbedTLS/library/alignment.h ****  */
 189:mbedTLS/library/alignment.h **** #if defined(__IAR_SYSTEMS_ICC__)
 190:mbedTLS/library/alignment.h **** #pragma inline = forced
 191:mbedTLS/library/alignment.h **** #elif defined(__GNUC__)
 192:mbedTLS/library/alignment.h **** __attribute__((always_inline))
 193:mbedTLS/library/alignment.h **** #endif
 194:mbedTLS/library/alignment.h **** static inline void mbedtls_put_unaligned_uint32(void *p, uint32_t x)
 195:mbedTLS/library/alignment.h **** {
 196:mbedTLS/library/alignment.h **** #if defined(UINT_UNALIGNED)
 197:mbedTLS/library/alignment.h ****     mbedtls_uint32_unaligned_t *p32 = (mbedtls_uint32_unaligned_t *) p;
ARM GAS  C:\Users\clay0\AppData\Local\Temp\ccksdYIU.s 			page 74


 198:mbedTLS/library/alignment.h ****     *p32 = x;
 199:mbedTLS/library/alignment.h **** #elif defined(UINT_UNALIGNED_STRUCT)
 200:mbedTLS/library/alignment.h ****     mbedtls_uint32_unaligned_t *p32 = (mbedtls_uint32_unaligned_t *) p;
 201:mbedTLS/library/alignment.h ****     p32->x = x;
 202:mbedTLS/library/alignment.h **** #else
 203:mbedTLS/library/alignment.h ****     memcpy(p, &x, sizeof(x));
 3232              		.loc 2 203 5
 3233 00a2 BB6D     		ldr	r3, [r7, #88]
 3234 00a4 1A60     		str	r2, [r3]	@ unaligned
 204:mbedTLS/library/alignment.h **** #endif
 205:mbedTLS/library/alignment.h **** }
 3235              		.loc 2 205 1
 3236 00a6 00BF     		nop
 3237              	.LBE28:
 3238              	.LBE27:
 737:mbedTLS/library/sha256.c ****     MBEDTLS_PUT_UINT32_BE(low,  ctx->buffer, 60);
 3239              		.loc 1 737 5
 3240 00a8 7B68     		ldr	r3, [r7, #4]
 3241 00aa 03F13C02 		add	r2, r3, #60
 3242 00ae FB6E     		ldr	r3, [r7, #108]
 3243 00b0 1BBA     		rev	r3, r3
 3244 00b2 7A65     		str	r2, [r7, #84]
 3245 00b4 3B61     		str	r3, [r7, #16]
 3246 00b6 3A69     		ldr	r2, [r7, #16]
 3247              	.LBB29:
 3248              	.LBB30:
 203:mbedTLS/library/alignment.h **** #endif
 3249              		.loc 2 203 5
 3250 00b8 7B6D     		ldr	r3, [r7, #84]
 3251 00ba 1A60     		str	r2, [r3]	@ unaligned
 3252              		.loc 2 205 1
 3253 00bc 00BF     		nop
 3254              	.LBE30:
 3255              	.LBE29:
 738:mbedTLS/library/sha256.c **** 
 739:mbedTLS/library/sha256.c ****     if ((ret = mbedtls_internal_sha256_process(ctx, ctx->buffer)) != 0) {
 3256              		.loc 1 739 56
 3257 00be 7B68     		ldr	r3, [r7, #4]
 3258              		.loc 1 739 16
 3259 00c0 1946     		mov	r1, r3
 3260 00c2 7868     		ldr	r0, [r7, #4]
 3261 00c4 FFF7FEFF 		bl	mbedtls_internal_sha256_process
 3262 00c8 7866     		str	r0, [r7, #100]
 3263              		.loc 1 739 8
 3264 00ca 7B6E     		ldr	r3, [r7, #100]
 3265 00cc 002B     		cmp	r3, #0
 3266 00ce 67D1     		bne	.L71
 740:mbedTLS/library/sha256.c ****         goto exit;
 741:mbedTLS/library/sha256.c ****     }
 742:mbedTLS/library/sha256.c **** 
 743:mbedTLS/library/sha256.c ****     /*
 744:mbedTLS/library/sha256.c ****      * Output final state
 745:mbedTLS/library/sha256.c ****      */
 746:mbedTLS/library/sha256.c ****     MBEDTLS_PUT_UINT32_BE(ctx->state[0], output,  0);
 3267              		.loc 1 746 5 discriminator 2
 3268 00d0 7B68     		ldr	r3, [r7, #4]
 3269 00d2 9B6C     		ldr	r3, [r3, #72]
ARM GAS  C:\Users\clay0\AppData\Local\Temp\ccksdYIU.s 			page 75


 3270 00d4 1BBA     		rev	r3, r3
 3271 00d6 3A68     		ldr	r2, [r7]
 3272 00d8 3A65     		str	r2, [r7, #80]
 3273 00da 7B61     		str	r3, [r7, #20]
 3274 00dc 7A69     		ldr	r2, [r7, #20]
 3275              	.LBB31:
 3276              	.LBB32:
 203:mbedTLS/library/alignment.h **** #endif
 3277              		.loc 2 203 5 discriminator 2
 3278 00de 3B6D     		ldr	r3, [r7, #80]
 3279 00e0 1A60     		str	r2, [r3]	@ unaligned
 3280              		.loc 2 205 1 discriminator 2
 3281 00e2 00BF     		nop
 3282              	.LBE32:
 3283              	.LBE31:
 747:mbedTLS/library/sha256.c ****     MBEDTLS_PUT_UINT32_BE(ctx->state[1], output,  4);
 3284              		.loc 1 747 5 discriminator 2
 3285 00e4 3B68     		ldr	r3, [r7]
 3286 00e6 1A1D     		adds	r2, r3, #4
 3287 00e8 7B68     		ldr	r3, [r7, #4]
 3288 00ea DB6C     		ldr	r3, [r3, #76]
 3289 00ec 1BBA     		rev	r3, r3
 3290 00ee FA64     		str	r2, [r7, #76]
 3291 00f0 BB61     		str	r3, [r7, #24]
 3292 00f2 BA69     		ldr	r2, [r7, #24]
 3293              	.LBB33:
 3294              	.LBB34:
 203:mbedTLS/library/alignment.h **** #endif
 3295              		.loc 2 203 5 discriminator 2
 3296 00f4 FB6C     		ldr	r3, [r7, #76]
 3297 00f6 1A60     		str	r2, [r3]	@ unaligned
 3298              		.loc 2 205 1 discriminator 2
 3299 00f8 00BF     		nop
 3300              	.LBE34:
 3301              	.LBE33:
 748:mbedTLS/library/sha256.c ****     MBEDTLS_PUT_UINT32_BE(ctx->state[2], output,  8);
 3302              		.loc 1 748 5 discriminator 2
 3303 00fa 3B68     		ldr	r3, [r7]
 3304 00fc 03F10802 		add	r2, r3, #8
 3305 0100 7B68     		ldr	r3, [r7, #4]
 3306 0102 1B6D     		ldr	r3, [r3, #80]
 3307 0104 1BBA     		rev	r3, r3
 3308 0106 BA64     		str	r2, [r7, #72]
 3309 0108 FB61     		str	r3, [r7, #28]
 3310 010a FA69     		ldr	r2, [r7, #28]
 3311              	.LBB35:
 3312              	.LBB36:
 203:mbedTLS/library/alignment.h **** #endif
 3313              		.loc 2 203 5 discriminator 2
 3314 010c BB6C     		ldr	r3, [r7, #72]
 3315 010e 1A60     		str	r2, [r3]	@ unaligned
 3316              		.loc 2 205 1 discriminator 2
 3317 0110 00BF     		nop
 3318              	.LBE36:
 3319              	.LBE35:
 749:mbedTLS/library/sha256.c ****     MBEDTLS_PUT_UINT32_BE(ctx->state[3], output, 12);
 3320              		.loc 1 749 5 discriminator 2
ARM GAS  C:\Users\clay0\AppData\Local\Temp\ccksdYIU.s 			page 76


 3321 0112 3B68     		ldr	r3, [r7]
 3322 0114 03F10C02 		add	r2, r3, #12
 3323 0118 7B68     		ldr	r3, [r7, #4]
 3324 011a 5B6D     		ldr	r3, [r3, #84]
 3325 011c 1BBA     		rev	r3, r3
 3326 011e 7A64     		str	r2, [r7, #68]
 3327 0120 3B62     		str	r3, [r7, #32]
 3328 0122 3A6A     		ldr	r2, [r7, #32]
 3329              	.LBB37:
 3330              	.LBB38:
 203:mbedTLS/library/alignment.h **** #endif
 3331              		.loc 2 203 5 discriminator 2
 3332 0124 7B6C     		ldr	r3, [r7, #68]
 3333 0126 1A60     		str	r2, [r3]	@ unaligned
 3334              		.loc 2 205 1 discriminator 2
 3335 0128 00BF     		nop
 3336              	.LBE38:
 3337              	.LBE37:
 750:mbedTLS/library/sha256.c ****     MBEDTLS_PUT_UINT32_BE(ctx->state[4], output, 16);
 3338              		.loc 1 750 5 discriminator 2
 3339 012a 3B68     		ldr	r3, [r7]
 3340 012c 03F11002 		add	r2, r3, #16
 3341 0130 7B68     		ldr	r3, [r7, #4]
 3342 0132 9B6D     		ldr	r3, [r3, #88]
 3343 0134 1BBA     		rev	r3, r3
 3344 0136 3A64     		str	r2, [r7, #64]
 3345 0138 7B62     		str	r3, [r7, #36]
 3346 013a 7A6A     		ldr	r2, [r7, #36]
 3347              	.LBB39:
 3348              	.LBB40:
 203:mbedTLS/library/alignment.h **** #endif
 3349              		.loc 2 203 5 discriminator 2
 3350 013c 3B6C     		ldr	r3, [r7, #64]
 3351 013e 1A60     		str	r2, [r3]	@ unaligned
 3352              		.loc 2 205 1 discriminator 2
 3353 0140 00BF     		nop
 3354              	.LBE40:
 3355              	.LBE39:
 751:mbedTLS/library/sha256.c ****     MBEDTLS_PUT_UINT32_BE(ctx->state[5], output, 20);
 3356              		.loc 1 751 5 discriminator 2
 3357 0142 3B68     		ldr	r3, [r7]
 3358 0144 03F11402 		add	r2, r3, #20
 3359 0148 7B68     		ldr	r3, [r7, #4]
 3360 014a DB6D     		ldr	r3, [r3, #92]
 3361 014c 1BBA     		rev	r3, r3
 3362 014e FA63     		str	r2, [r7, #60]
 3363 0150 BB62     		str	r3, [r7, #40]
 3364 0152 BA6A     		ldr	r2, [r7, #40]
 3365              	.LBB41:
 3366              	.LBB42:
 203:mbedTLS/library/alignment.h **** #endif
 3367              		.loc 2 203 5 discriminator 2
 3368 0154 FB6B     		ldr	r3, [r7, #60]
 3369 0156 1A60     		str	r2, [r3]	@ unaligned
 3370              		.loc 2 205 1 discriminator 2
 3371 0158 00BF     		nop
 3372              	.LBE42:
ARM GAS  C:\Users\clay0\AppData\Local\Temp\ccksdYIU.s 			page 77


 3373              	.LBE41:
 752:mbedTLS/library/sha256.c ****     MBEDTLS_PUT_UINT32_BE(ctx->state[6], output, 24);
 3374              		.loc 1 752 5 discriminator 2
 3375 015a 3B68     		ldr	r3, [r7]
 3376 015c 03F11802 		add	r2, r3, #24
 3377 0160 7B68     		ldr	r3, [r7, #4]
 3378 0162 1B6E     		ldr	r3, [r3, #96]
 3379 0164 1BBA     		rev	r3, r3
 3380 0166 BA63     		str	r2, [r7, #56]
 3381 0168 FB62     		str	r3, [r7, #44]
 3382 016a FA6A     		ldr	r2, [r7, #44]
 3383              	.LBB43:
 3384              	.LBB44:
 203:mbedTLS/library/alignment.h **** #endif
 3385              		.loc 2 203 5 discriminator 2
 3386 016c BB6B     		ldr	r3, [r7, #56]
 3387 016e 1A60     		str	r2, [r3]	@ unaligned
 3388              		.loc 2 205 1 discriminator 2
 3389 0170 00BF     		nop
 3390              	.LBE44:
 3391              	.LBE43:
 753:mbedTLS/library/sha256.c **** 
 754:mbedTLS/library/sha256.c **** #if defined(MBEDTLS_SHA224_C)
 755:mbedTLS/library/sha256.c ****     truncated = ctx->is224;
 3392              		.loc 1 755 15 discriminator 2
 3393 0172 7B68     		ldr	r3, [r7, #4]
 3394 0174 9B6E     		ldr	r3, [r3, #104]
 3395 0176 FB65     		str	r3, [r7, #92]
 756:mbedTLS/library/sha256.c **** #endif
 757:mbedTLS/library/sha256.c ****     if (!truncated) {
 3396              		.loc 1 757 8 discriminator 2
 3397 0178 FB6D     		ldr	r3, [r7, #92]
 3398 017a 002B     		cmp	r3, #0
 3399 017c 0BD1     		bne	.L68
 758:mbedTLS/library/sha256.c ****         MBEDTLS_PUT_UINT32_BE(ctx->state[7], output, 28);
 3400              		.loc 1 758 9 discriminator 2
 3401 017e 3B68     		ldr	r3, [r7]
 3402 0180 03F11C02 		add	r2, r3, #28
 3403 0184 7B68     		ldr	r3, [r7, #4]
 3404 0186 5B6E     		ldr	r3, [r3, #100]
 3405 0188 1BBA     		rev	r3, r3
 3406 018a 7A63     		str	r2, [r7, #52]
 3407 018c 3B63     		str	r3, [r7, #48]
 3408 018e 3A6B     		ldr	r2, [r7, #48]
 3409              	.LBB45:
 3410              	.LBB46:
 203:mbedTLS/library/alignment.h **** #endif
 3411              		.loc 2 203 5 discriminator 2
 3412 0190 7B6B     		ldr	r3, [r7, #52]
 3413 0192 1A60     		str	r2, [r3]	@ unaligned
 3414              		.loc 2 205 1 discriminator 2
 3415 0194 00BF     		nop
 3416              	.L68:
 3417              	.LBE46:
 3418              	.LBE45:
 759:mbedTLS/library/sha256.c ****     }
 760:mbedTLS/library/sha256.c **** 
ARM GAS  C:\Users\clay0\AppData\Local\Temp\ccksdYIU.s 			page 78


 761:mbedTLS/library/sha256.c ****     ret = 0;
 3419              		.loc 1 761 9
 3420 0196 0023     		movs	r3, #0
 3421 0198 7B66     		str	r3, [r7, #100]
 3422 019a 02E0     		b	.L66
 3423              	.L70:
 723:mbedTLS/library/sha256.c ****         }
 3424              		.loc 1 723 13
 3425 019c 00BF     		nop
 3426 019e 00E0     		b	.L66
 3427              	.L71:
 740:mbedTLS/library/sha256.c ****     }
 3428              		.loc 1 740 9
 3429 01a0 00BF     		nop
 3430              	.L66:
 762:mbedTLS/library/sha256.c **** 
 763:mbedTLS/library/sha256.c **** exit:
 764:mbedTLS/library/sha256.c ****     mbedtls_sha256_free(ctx);
 3431              		.loc 1 764 5
 3432 01a2 7868     		ldr	r0, [r7, #4]
 3433 01a4 FFF7FEFF 		bl	mbedtls_sha256_free
 765:mbedTLS/library/sha256.c ****     return ret;
 3434              		.loc 1 765 12
 3435 01a8 7B6E     		ldr	r3, [r7, #100]
 766:mbedTLS/library/sha256.c **** }
 3436              		.loc 1 766 1
 3437 01aa 1846     		mov	r0, r3
 3438 01ac 7037     		adds	r7, r7, #112
 3439              	.LCFI39:
 3440              		.cfi_def_cfa_offset 8
 3441 01ae BD46     		mov	sp, r7
 3442              	.LCFI40:
 3443              		.cfi_def_cfa_register 13
 3444              		@ sp needed
 3445 01b0 80BD     		pop	{r7, pc}
 3446              		.cfi_endproc
 3447              	.LFE21:
 3449              		.section	.text.mbedtls_sha256,"ax",%progbits
 3450              		.align	1
 3451              		.global	mbedtls_sha256
 3452              		.syntax unified
 3453              		.thumb
 3454              		.thumb_func
 3456              	mbedtls_sha256:
 3457              	.LFB22:
 767:mbedTLS/library/sha256.c **** 
 768:mbedTLS/library/sha256.c **** #endif /* !MBEDTLS_SHA256_ALT */
 769:mbedTLS/library/sha256.c **** 
 770:mbedTLS/library/sha256.c **** /*
 771:mbedTLS/library/sha256.c ****  * output = SHA-256( input buffer )
 772:mbedTLS/library/sha256.c ****  */
 773:mbedTLS/library/sha256.c **** int mbedtls_sha256(const unsigned char *input,
 774:mbedTLS/library/sha256.c ****                    size_t ilen,
 775:mbedTLS/library/sha256.c ****                    unsigned char *output,
 776:mbedTLS/library/sha256.c ****                    int is224)
 777:mbedTLS/library/sha256.c **** {
 3458              		.loc 1 777 1
ARM GAS  C:\Users\clay0\AppData\Local\Temp\ccksdYIU.s 			page 79


 3459              		.cfi_startproc
 3460              		@ args = 0, pretend = 0, frame = 128
 3461              		@ frame_needed = 1, uses_anonymous_args = 0
 3462 0000 80B5     		push	{r7, lr}
 3463              	.LCFI41:
 3464              		.cfi_def_cfa_offset 8
 3465              		.cfi_offset 7, -8
 3466              		.cfi_offset 14, -4
 3467 0002 A0B0     		sub	sp, sp, #128
 3468              	.LCFI42:
 3469              		.cfi_def_cfa_offset 136
 3470 0004 00AF     		add	r7, sp, #0
 3471              	.LCFI43:
 3472              		.cfi_def_cfa_register 7
 3473 0006 F860     		str	r0, [r7, #12]
 3474 0008 B960     		str	r1, [r7, #8]
 3475 000a 7A60     		str	r2, [r7, #4]
 3476 000c 3B60     		str	r3, [r7]
 778:mbedTLS/library/sha256.c ****     int ret = MBEDTLS_ERR_ERROR_CORRUPTION_DETECTED;
 3477              		.loc 1 778 9
 3478 000e 6FF06D03 		mvn	r3, #109
 3479 0012 FB67     		str	r3, [r7, #124]
 779:mbedTLS/library/sha256.c ****     mbedtls_sha256_context ctx;
 780:mbedTLS/library/sha256.c **** 
 781:mbedTLS/library/sha256.c **** #if defined(MBEDTLS_SHA224_C) && defined(MBEDTLS_SHA256_C)
 782:mbedTLS/library/sha256.c ****     if (is224 != 0 && is224 != 1) {
 3480              		.loc 1 782 8
 3481 0014 3B68     		ldr	r3, [r7]
 3482 0016 002B     		cmp	r3, #0
 3483 0018 05D0     		beq	.L73
 3484              		.loc 1 782 20 discriminator 1
 3485 001a 3B68     		ldr	r3, [r7]
 3486 001c 012B     		cmp	r3, #1
 3487 001e 02D0     		beq	.L73
 783:mbedTLS/library/sha256.c ****         return MBEDTLS_ERR_SHA256_BAD_INPUT_DATA;
 3488              		.loc 1 783 16
 3489 0020 6FF07303 		mvn	r3, #115
 3490 0024 2CE0     		b	.L78
 3491              	.L73:
 784:mbedTLS/library/sha256.c ****     }
 785:mbedTLS/library/sha256.c **** #elif defined(MBEDTLS_SHA256_C)
 786:mbedTLS/library/sha256.c ****     if (is224 != 0) {
 787:mbedTLS/library/sha256.c ****         return MBEDTLS_ERR_SHA256_BAD_INPUT_DATA;
 788:mbedTLS/library/sha256.c ****     }
 789:mbedTLS/library/sha256.c **** #else /* defined MBEDTLS_SHA224_C only */
 790:mbedTLS/library/sha256.c ****     if (is224 == 0) {
 791:mbedTLS/library/sha256.c ****         return MBEDTLS_ERR_SHA256_BAD_INPUT_DATA;
 792:mbedTLS/library/sha256.c ****     }
 793:mbedTLS/library/sha256.c **** #endif
 794:mbedTLS/library/sha256.c **** 
 795:mbedTLS/library/sha256.c ****     mbedtls_sha256_init(&ctx);
 3492              		.loc 1 795 5
 3493 0026 07F11003 		add	r3, r7, #16
 3494 002a 1846     		mov	r0, r3
 3495 002c FFF7FEFF 		bl	mbedtls_sha256_init
 796:mbedTLS/library/sha256.c **** 
 797:mbedTLS/library/sha256.c ****     if ((ret = mbedtls_sha256_starts(&ctx, is224)) != 0) {
ARM GAS  C:\Users\clay0\AppData\Local\Temp\ccksdYIU.s 			page 80


 3496              		.loc 1 797 16
 3497 0030 07F11003 		add	r3, r7, #16
 3498 0034 3968     		ldr	r1, [r7]
 3499 0036 1846     		mov	r0, r3
 3500 0038 FFF7FEFF 		bl	mbedtls_sha256_starts
 3501 003c F867     		str	r0, [r7, #124]
 3502              		.loc 1 797 8
 3503 003e FB6F     		ldr	r3, [r7, #124]
 3504 0040 002B     		cmp	r3, #0
 3505 0042 14D1     		bne	.L79
 798:mbedTLS/library/sha256.c ****         goto exit;
 799:mbedTLS/library/sha256.c ****     }
 800:mbedTLS/library/sha256.c **** 
 801:mbedTLS/library/sha256.c ****     if ((ret = mbedtls_sha256_update(&ctx, input, ilen)) != 0) {
 3506              		.loc 1 801 16
 3507 0044 07F11003 		add	r3, r7, #16
 3508 0048 BA68     		ldr	r2, [r7, #8]
 3509 004a F968     		ldr	r1, [r7, #12]
 3510 004c 1846     		mov	r0, r3
 3511 004e FFF7FEFF 		bl	mbedtls_sha256_update
 3512 0052 F867     		str	r0, [r7, #124]
 3513              		.loc 1 801 8
 3514 0054 FB6F     		ldr	r3, [r7, #124]
 3515 0056 002B     		cmp	r3, #0
 3516 0058 0BD1     		bne	.L80
 802:mbedTLS/library/sha256.c ****         goto exit;
 803:mbedTLS/library/sha256.c ****     }
 804:mbedTLS/library/sha256.c **** 
 805:mbedTLS/library/sha256.c ****     if ((ret = mbedtls_sha256_finish(&ctx, output)) != 0) {
 3517              		.loc 1 805 16
 3518 005a 07F11003 		add	r3, r7, #16
 3519 005e 7968     		ldr	r1, [r7, #4]
 3520 0060 1846     		mov	r0, r3
 3521 0062 FFF7FEFF 		bl	mbedtls_sha256_finish
 3522 0066 F867     		str	r0, [r7, #124]
 3523              		.loc 1 805 8
 3524 0068 FB6F     		ldr	r3, [r7, #124]
 3525 006a 002B     		cmp	r3, #0
 806:mbedTLS/library/sha256.c ****         goto exit;
 807:mbedTLS/library/sha256.c ****     }
 808:mbedTLS/library/sha256.c **** 
 809:mbedTLS/library/sha256.c **** exit:
 3526              		.loc 1 809 1
 3527 006c 02E0     		b	.L76
 3528              	.L79:
 798:mbedTLS/library/sha256.c ****     }
 3529              		.loc 1 798 9
 3530 006e 00BF     		nop
 3531 0070 00E0     		b	.L76
 3532              	.L80:
 802:mbedTLS/library/sha256.c ****         goto exit;
 3533              		.loc 1 802 9
 3534 0072 00BF     		nop
 3535              	.L76:
 810:mbedTLS/library/sha256.c ****     mbedtls_sha256_free(&ctx);
 3536              		.loc 1 810 5
 3537 0074 07F11003 		add	r3, r7, #16
ARM GAS  C:\Users\clay0\AppData\Local\Temp\ccksdYIU.s 			page 81


 3538 0078 1846     		mov	r0, r3
 3539 007a FFF7FEFF 		bl	mbedtls_sha256_free
 811:mbedTLS/library/sha256.c **** 
 812:mbedTLS/library/sha256.c ****     return ret;
 3540              		.loc 1 812 12
 3541 007e FB6F     		ldr	r3, [r7, #124]
 3542              	.L78:
 813:mbedTLS/library/sha256.c **** }
 3543              		.loc 1 813 1 discriminator 1
 3544 0080 1846     		mov	r0, r3
 3545 0082 8037     		adds	r7, r7, #128
 3546              	.LCFI44:
 3547              		.cfi_def_cfa_offset 8
 3548 0084 BD46     		mov	sp, r7
 3549              	.LCFI45:
 3550              		.cfi_def_cfa_register 13
 3551              		@ sp needed
 3552 0086 80BD     		pop	{r7, pc}
 3553              		.cfi_endproc
 3554              	.LFE22:
 3556              		.section	.rodata.sha_test_buf,"a"
 3557              		.align	2
 3560              	sha_test_buf:
 3561 0000 61626300 		.ascii	"abc\000"
 3562 0004 00000000 		.space	53
 3562      00000000 
 3562      00000000 
 3562      00000000 
 3562      00000000 
 3563 0039 61626364 		.ascii	"abcdbcdecdefdefgefghfghighijhijkijkljklmklmnlmnomno"
 3563      62636465 
 3563      63646566 
 3563      64656667 
 3563      65666768 
 3564 006c 706E6F70 		.ascii	"pnopq\000"
 3564      7100
 3565 0072 00       		.ascii	"\000"
 3566 0073 00000000 		.space	56
 3566      00000000 
 3566      00000000 
 3566      00000000 
 3566      00000000 
 3567              		.section	.rodata.sha_test_buflen,"a"
 3568              		.align	2
 3571              	sha_test_buflen:
 3572 0000 03000000 		.word	3
 3573 0004 38000000 		.word	56
 3574 0008 E8030000 		.word	1000
 3575              		.section	.rodata.sha224_test_sum,"a"
 3576              		.align	2
 3579              	sha224_test_sum:
 3580 0000 23097D22 		.ascii	"#\011}\"4\005\330\"\206B\244w\275\242U\263*\255\274"
 3580      3405D822 
 3580      8642A477 
 3580      BDA255B3 
 3580      2AADBC
 3581 0013 E4BDA0B3 		.ascii	"\344\275\240\263\367\343l\235\247\000"
ARM GAS  C:\Users\clay0\AppData\Local\Temp\ccksdYIU.s 			page 82


 3581      F7E36C9D 
 3581      A700
 3582 001d 000000   		.space	3
 3583 0020 75388B16 		.ascii	"u8\213\026Q'v\314]\272]\241\375\211\001P\260\306E\\"
 3583      512776CC 
 3583      5DBA5DA1 
 3583      FD890150 
 3583      B0C6455C 
 3584 0034 B4F58B19 		.ascii	"\264\365\213\031RR%%\000"
 3584      52522525 
 3584      00
 3585 003d 000000   		.space	3
 3586 0040 20794655 		.ascii	" yFU\230\014\221\330\273\264\301\352\227a\212K\360?"
 3586      980C91D8 
 3586      BBB4C1EA 
 3586      97618A4B 
 3586      F03F
 3587 0052 42581948 		.ascii	"BX\031H\262\356N\347\255g\000"
 3587      B2EE4EE7 
 3587      AD6700
 3588 005d 000000   		.space	3
 3589              		.section	.rodata.sha256_test_sum,"a"
 3590              		.align	2
 3593              	sha256_test_sum:
 3594 0000 BA7816BF 		.ascii	"\272x\026\277\217\001\317\352AA@\336]\256\"#\260\003"
 3594      8F01CFEA 
 3594      414140DE 
 3594      5DAE2223 
 3594      B003
 3595 0012 61A39617 		.ascii	"a\243\226\027z\234\264\020\377a\362\000\025\255"
 3595      7A9CB410 
 3595      FF61F200 
 3595      15AD
 3596 0020 248D6A61 		.ascii	"$\215ja\322\0068\270\345\300&\223\014>`9\243<\344Yd"
 3596      D20638B8 
 3596      E5C02693 
 3596      0C3E6039 
 3596      A33CE459 
 3597 0035 FF2167F6 		.ascii	"\377!g\366\354\355\324\031\333\006\301"
 3597      ECEDD419 
 3597      DB06C1
 3598 0040 CDC76E5C 		.ascii	"\315\307n\\\231\024\373\222\201\241\307\342\204\327"
 3598      9914FB92 
 3598      81A1C7E2 
 3598      84D7
 3599 004e 3E67F180 		.ascii	">g\361\200\232H\244\227 \016\004m9\314\307\021,\320"
 3599      9A48A497 
 3599      200E046D 
 3599      39CCC711 
 3599      2CD0
 3600              		.section	.rodata
 3601              		.align	2
 3602              	.LC0:
 3603 0000 42756666 		.ascii	"Buffer allocation failed\000"
 3603      65722061 
 3603      6C6C6F63 
 3603      6174696F 
ARM GAS  C:\Users\clay0\AppData\Local\Temp\ccksdYIU.s 			page 83


 3603      6E206661 
 3604 0019 000000   		.align	2
 3605              	.LC1:
 3606 001c 20205348 		.ascii	"  SHA-%d test #%d: \000"
 3606      412D2564 
 3606      20746573 
 3606      74202325 
 3606      643A2000 
 3607              		.align	2
 3608              	.LC2:
 3609 0030 70617373 		.ascii	"passed\000"
 3609      656400
 3610 0037 00       		.align	2
 3611              	.LC3:
 3612 0038 6661696C 		.ascii	"failed\000"
 3612      656400
 3613              		.section	.text.mbedtls_sha256_common_self_test,"ax",%progbits
 3614              		.align	1
 3615              		.syntax unified
 3616              		.thumb
 3617              		.thumb_func
 3619              	mbedtls_sha256_common_self_test:
 3620              	.LFB23:
 814:mbedTLS/library/sha256.c **** 
 815:mbedTLS/library/sha256.c **** #if defined(MBEDTLS_SELF_TEST)
 816:mbedTLS/library/sha256.c **** /*
 817:mbedTLS/library/sha256.c ****  * FIPS-180-2 test vectors
 818:mbedTLS/library/sha256.c ****  */
 819:mbedTLS/library/sha256.c **** static const unsigned char sha_test_buf[3][57] =
 820:mbedTLS/library/sha256.c **** {
 821:mbedTLS/library/sha256.c ****     { "abc" },
 822:mbedTLS/library/sha256.c ****     { "abcdbcdecdefdefgefghfghighijhijkijkljklmklmnlmnomnopnopq" },
 823:mbedTLS/library/sha256.c ****     { "" }
 824:mbedTLS/library/sha256.c **** };
 825:mbedTLS/library/sha256.c **** 
 826:mbedTLS/library/sha256.c **** static const size_t sha_test_buflen[3] =
 827:mbedTLS/library/sha256.c **** {
 828:mbedTLS/library/sha256.c ****     3, 56, 1000
 829:mbedTLS/library/sha256.c **** };
 830:mbedTLS/library/sha256.c **** 
 831:mbedTLS/library/sha256.c **** typedef const unsigned char (sha_test_sum_t)[32];
 832:mbedTLS/library/sha256.c **** 
 833:mbedTLS/library/sha256.c **** /*
 834:mbedTLS/library/sha256.c ****  * SHA-224 test vectors
 835:mbedTLS/library/sha256.c ****  */
 836:mbedTLS/library/sha256.c **** #if defined(MBEDTLS_SHA224_C)
 837:mbedTLS/library/sha256.c **** static sha_test_sum_t sha224_test_sum[] =
 838:mbedTLS/library/sha256.c **** {
 839:mbedTLS/library/sha256.c ****     { 0x23, 0x09, 0x7D, 0x22, 0x34, 0x05, 0xD8, 0x22,
 840:mbedTLS/library/sha256.c ****       0x86, 0x42, 0xA4, 0x77, 0xBD, 0xA2, 0x55, 0xB3,
 841:mbedTLS/library/sha256.c ****       0x2A, 0xAD, 0xBC, 0xE4, 0xBD, 0xA0, 0xB3, 0xF7,
 842:mbedTLS/library/sha256.c ****       0xE3, 0x6C, 0x9D, 0xA7 },
 843:mbedTLS/library/sha256.c ****     { 0x75, 0x38, 0x8B, 0x16, 0x51, 0x27, 0x76, 0xCC,
 844:mbedTLS/library/sha256.c ****       0x5D, 0xBA, 0x5D, 0xA1, 0xFD, 0x89, 0x01, 0x50,
 845:mbedTLS/library/sha256.c ****       0xB0, 0xC6, 0x45, 0x5C, 0xB4, 0xF5, 0x8B, 0x19,
 846:mbedTLS/library/sha256.c ****       0x52, 0x52, 0x25, 0x25 },
 847:mbedTLS/library/sha256.c ****     { 0x20, 0x79, 0x46, 0x55, 0x98, 0x0C, 0x91, 0xD8,
ARM GAS  C:\Users\clay0\AppData\Local\Temp\ccksdYIU.s 			page 84


 848:mbedTLS/library/sha256.c ****       0xBB, 0xB4, 0xC1, 0xEA, 0x97, 0x61, 0x8A, 0x4B,
 849:mbedTLS/library/sha256.c ****       0xF0, 0x3F, 0x42, 0x58, 0x19, 0x48, 0xB2, 0xEE,
 850:mbedTLS/library/sha256.c ****       0x4E, 0xE7, 0xAD, 0x67 }
 851:mbedTLS/library/sha256.c **** };
 852:mbedTLS/library/sha256.c **** #endif
 853:mbedTLS/library/sha256.c **** 
 854:mbedTLS/library/sha256.c **** /*
 855:mbedTLS/library/sha256.c ****  * SHA-256 test vectors
 856:mbedTLS/library/sha256.c ****  */
 857:mbedTLS/library/sha256.c **** #if defined(MBEDTLS_SHA256_C)
 858:mbedTLS/library/sha256.c **** static sha_test_sum_t sha256_test_sum[] =
 859:mbedTLS/library/sha256.c **** {
 860:mbedTLS/library/sha256.c ****     { 0xBA, 0x78, 0x16, 0xBF, 0x8F, 0x01, 0xCF, 0xEA,
 861:mbedTLS/library/sha256.c ****       0x41, 0x41, 0x40, 0xDE, 0x5D, 0xAE, 0x22, 0x23,
 862:mbedTLS/library/sha256.c ****       0xB0, 0x03, 0x61, 0xA3, 0x96, 0x17, 0x7A, 0x9C,
 863:mbedTLS/library/sha256.c ****       0xB4, 0x10, 0xFF, 0x61, 0xF2, 0x00, 0x15, 0xAD },
 864:mbedTLS/library/sha256.c ****     { 0x24, 0x8D, 0x6A, 0x61, 0xD2, 0x06, 0x38, 0xB8,
 865:mbedTLS/library/sha256.c ****       0xE5, 0xC0, 0x26, 0x93, 0x0C, 0x3E, 0x60, 0x39,
 866:mbedTLS/library/sha256.c ****       0xA3, 0x3C, 0xE4, 0x59, 0x64, 0xFF, 0x21, 0x67,
 867:mbedTLS/library/sha256.c ****       0xF6, 0xEC, 0xED, 0xD4, 0x19, 0xDB, 0x06, 0xC1 },
 868:mbedTLS/library/sha256.c ****     { 0xCD, 0xC7, 0x6E, 0x5C, 0x99, 0x14, 0xFB, 0x92,
 869:mbedTLS/library/sha256.c ****       0x81, 0xA1, 0xC7, 0xE2, 0x84, 0xD7, 0x3E, 0x67,
 870:mbedTLS/library/sha256.c ****       0xF1, 0x80, 0x9A, 0x48, 0xA4, 0x97, 0x20, 0x0E,
 871:mbedTLS/library/sha256.c ****       0x04, 0x6D, 0x39, 0xCC, 0xC7, 0x11, 0x2C, 0xD0 }
 872:mbedTLS/library/sha256.c **** };
 873:mbedTLS/library/sha256.c **** #endif
 874:mbedTLS/library/sha256.c **** 
 875:mbedTLS/library/sha256.c **** /*
 876:mbedTLS/library/sha256.c ****  * Checkup routine
 877:mbedTLS/library/sha256.c ****  */
 878:mbedTLS/library/sha256.c **** static int mbedtls_sha256_common_self_test(int verbose, int is224)
 879:mbedTLS/library/sha256.c **** {
 3621              		.loc 1 879 1
 3622              		.cfi_startproc
 3623              		@ args = 0, pretend = 0, frame = 176
 3624              		@ frame_needed = 1, uses_anonymous_args = 0
 3625 0000 80B5     		push	{r7, lr}
 3626              	.LCFI46:
 3627              		.cfi_def_cfa_offset 8
 3628              		.cfi_offset 7, -8
 3629              		.cfi_offset 14, -4
 3630 0002 ACB0     		sub	sp, sp, #176
 3631              	.LCFI47:
 3632              		.cfi_def_cfa_offset 184
 3633 0004 00AF     		add	r7, sp, #0
 3634              	.LCFI48:
 3635              		.cfi_def_cfa_register 7
 3636 0006 7860     		str	r0, [r7, #4]
 3637 0008 3960     		str	r1, [r7]
 880:mbedTLS/library/sha256.c ****     int i, buflen, ret = 0;
 3638              		.loc 1 880 20
 3639 000a 0023     		movs	r3, #0
 3640 000c C7F8A830 		str	r3, [r7, #168]
 881:mbedTLS/library/sha256.c ****     unsigned char *buf;
 882:mbedTLS/library/sha256.c ****     unsigned char sha256sum[32];
 883:mbedTLS/library/sha256.c ****     mbedtls_sha256_context ctx;
 884:mbedTLS/library/sha256.c **** 
ARM GAS  C:\Users\clay0\AppData\Local\Temp\ccksdYIU.s 			page 85


 885:mbedTLS/library/sha256.c **** #if defined(MBEDTLS_SHA224_C) && defined(MBEDTLS_SHA256_C)
 886:mbedTLS/library/sha256.c ****     sha_test_sum_t *sha_test_sum = (is224) ? sha224_test_sum : sha256_test_sum;
 3641              		.loc 1 886 62
 3642 0010 3B68     		ldr	r3, [r7]
 3643 0012 002B     		cmp	r3, #0
 3644 0014 01D0     		beq	.L82
 3645              		.loc 1 886 62 is_stmt 0 discriminator 1
 3646 0016 6F4B     		ldr	r3, .L109
 3647 0018 00E0     		b	.L83
 3648              	.L82:
 3649              		.loc 1 886 62 discriminator 2
 3650 001a 6F4B     		ldr	r3, .L109+4
 3651              	.L83:
 3652              		.loc 1 886 21 is_stmt 1 discriminator 4
 3653 001c C7F8A030 		str	r3, [r7, #160]
 887:mbedTLS/library/sha256.c **** #elif defined(MBEDTLS_SHA256_C)
 888:mbedTLS/library/sha256.c ****     sha_test_sum_t *sha_test_sum = sha256_test_sum;
 889:mbedTLS/library/sha256.c **** #else
 890:mbedTLS/library/sha256.c ****     sha_test_sum_t *sha_test_sum = sha224_test_sum;
 891:mbedTLS/library/sha256.c **** #endif
 892:mbedTLS/library/sha256.c **** 
 893:mbedTLS/library/sha256.c ****     buf = mbedtls_calloc(1024, sizeof(unsigned char));
 3654              		.loc 1 893 11 discriminator 4
 3655 0020 0121     		movs	r1, #1
 3656 0022 4FF48060 		mov	r0, #1024
 3657 0026 FFF7FEFF 		bl	calloc
 3658 002a 0346     		mov	r3, r0
 3659 002c C7F89C30 		str	r3, [r7, #156]
 894:mbedTLS/library/sha256.c ****     if (NULL == buf) {
 3660              		.loc 1 894 8 discriminator 4
 3661 0030 D7F89C30 		ldr	r3, [r7, #156]
 3662 0034 002B     		cmp	r3, #0
 3663 0036 07D1     		bne	.L84
 895:mbedTLS/library/sha256.c ****         if (verbose != 0) {
 3664              		.loc 1 895 12
 3665 0038 7B68     		ldr	r3, [r7, #4]
 3666 003a 002B     		cmp	r3, #0
 3667 003c 02D0     		beq	.L85
 896:mbedTLS/library/sha256.c ****             mbedtls_printf("Buffer allocation failed\n");
 3668              		.loc 1 896 13
 3669 003e 6748     		ldr	r0, .L109+8
 3670 0040 FFF7FEFF 		bl	puts
 3671              	.L85:
 897:mbedTLS/library/sha256.c ****         }
 898:mbedTLS/library/sha256.c **** 
 899:mbedTLS/library/sha256.c ****         return 1;
 3672              		.loc 1 899 16
 3673 0044 0123     		movs	r3, #1
 3674 0046 C1E0     		b	.L102
 3675              	.L84:
 900:mbedTLS/library/sha256.c ****     }
 901:mbedTLS/library/sha256.c **** 
 902:mbedTLS/library/sha256.c ****     mbedtls_sha256_init(&ctx);
 3676              		.loc 1 902 5
 3677 0048 07F10C03 		add	r3, r7, #12
 3678 004c 1846     		mov	r0, r3
 3679 004e FFF7FEFF 		bl	mbedtls_sha256_init
ARM GAS  C:\Users\clay0\AppData\Local\Temp\ccksdYIU.s 			page 86


 903:mbedTLS/library/sha256.c **** 
 904:mbedTLS/library/sha256.c ****     for (i = 0; i < 3; i++) {
 3680              		.loc 1 904 12
 3681 0052 0023     		movs	r3, #0
 3682 0054 C7F8AC30 		str	r3, [r7, #172]
 3683              		.loc 1 904 5
 3684 0058 90E0     		b	.L87
 3685              	.L99:
 905:mbedTLS/library/sha256.c ****         if (verbose != 0) {
 3686              		.loc 1 905 12
 3687 005a 7B68     		ldr	r3, [r7, #4]
 3688 005c 002B     		cmp	r3, #0
 3689 005e 0AD0     		beq	.L88
 906:mbedTLS/library/sha256.c ****             mbedtls_printf("  SHA-%d test #%d: ", 256 - is224 * 32, i + 1);
 3690              		.loc 1 906 55
 3691 0060 3B68     		ldr	r3, [r7]
 3692 0062 C3F10803 		rsb	r3, r3, #8
 3693              		.loc 1 906 13
 3694 0066 5901     		lsls	r1, r3, #5
 3695 0068 D7F8AC30 		ldr	r3, [r7, #172]
 3696 006c 0133     		adds	r3, r3, #1
 3697 006e 1A46     		mov	r2, r3
 3698 0070 5B48     		ldr	r0, .L109+12
 3699 0072 FFF7FEFF 		bl	printf
 3700              	.L88:
 907:mbedTLS/library/sha256.c ****         }
 908:mbedTLS/library/sha256.c **** 
 909:mbedTLS/library/sha256.c ****         if ((ret = mbedtls_sha256_starts(&ctx, is224)) != 0) {
 3701              		.loc 1 909 20
 3702 0076 07F10C03 		add	r3, r7, #12
 3703 007a 3968     		ldr	r1, [r7]
 3704 007c 1846     		mov	r0, r3
 3705 007e FFF7FEFF 		bl	mbedtls_sha256_starts
 3706 0082 C7F8A800 		str	r0, [r7, #168]
 3707              		.loc 1 909 12
 3708 0086 D7F8A830 		ldr	r3, [r7, #168]
 3709 008a 002B     		cmp	r3, #0
 3710 008c 40F08280 		bne	.L103
 910:mbedTLS/library/sha256.c ****             goto fail;
 911:mbedTLS/library/sha256.c ****         }
 912:mbedTLS/library/sha256.c **** 
 913:mbedTLS/library/sha256.c ****         if (i == 2) {
 3711              		.loc 1 913 12
 3712 0090 D7F8AC30 		ldr	r3, [r7, #172]
 3713 0094 022B     		cmp	r3, #2
 3714 0096 28D1     		bne	.L91
 914:mbedTLS/library/sha256.c ****             memset(buf, 'a', buflen = 1000);
 3715              		.loc 1 914 37
 3716 0098 4FF47A73 		mov	r3, #1000
 3717 009c C7F89830 		str	r3, [r7, #152]
 3718              		.loc 1 914 13
 3719 00a0 4FF47A72 		mov	r2, #1000
 3720 00a4 6121     		movs	r1, #97
 3721 00a6 D7F89C00 		ldr	r0, [r7, #156]
 3722 00aa FFF7FEFF 		bl	memset
 3723              	.LBB47:
 915:mbedTLS/library/sha256.c **** 
ARM GAS  C:\Users\clay0\AppData\Local\Temp\ccksdYIU.s 			page 87


 916:mbedTLS/library/sha256.c ****             for (int j = 0; j < 1000; j++) {
 3724              		.loc 1 916 22
 3725 00ae 0023     		movs	r3, #0
 3726 00b0 C7F8A430 		str	r3, [r7, #164]
 3727              		.loc 1 916 13
 3728 00b4 13E0     		b	.L92
 3729              	.L94:
 917:mbedTLS/library/sha256.c ****                 ret = mbedtls_sha256_update(&ctx, buf, buflen);
 3730              		.loc 1 917 23
 3731 00b6 D7F89820 		ldr	r2, [r7, #152]
 3732 00ba 07F10C03 		add	r3, r7, #12
 3733 00be D7F89C10 		ldr	r1, [r7, #156]
 3734 00c2 1846     		mov	r0, r3
 3735 00c4 FFF7FEFF 		bl	mbedtls_sha256_update
 3736 00c8 C7F8A800 		str	r0, [r7, #168]
 918:mbedTLS/library/sha256.c ****                 if (ret != 0) {
 3737              		.loc 1 918 20
 3738 00cc D7F8A830 		ldr	r3, [r7, #168]
 3739 00d0 002B     		cmp	r3, #0
 3740 00d2 61D1     		bne	.L104
 916:mbedTLS/library/sha256.c ****                 ret = mbedtls_sha256_update(&ctx, buf, buflen);
 3741              		.loc 1 916 40 discriminator 2
 3742 00d4 D7F8A430 		ldr	r3, [r7, #164]
 3743 00d8 0133     		adds	r3, r3, #1
 3744 00da C7F8A430 		str	r3, [r7, #164]
 3745              	.L92:
 916:mbedTLS/library/sha256.c ****                 ret = mbedtls_sha256_update(&ctx, buf, buflen);
 3746              		.loc 1 916 13 discriminator 1
 3747 00de D7F8A430 		ldr	r3, [r7, #164]
 3748 00e2 B3F57A7F 		cmp	r3, #1000
 3749 00e6 E6DB     		blt	.L94
 3750 00e8 18E0     		b	.L95
 3751              	.L91:
 3752              	.LBE47:
 919:mbedTLS/library/sha256.c ****                     goto fail;
 920:mbedTLS/library/sha256.c ****                 }
 921:mbedTLS/library/sha256.c ****             }
 922:mbedTLS/library/sha256.c **** 
 923:mbedTLS/library/sha256.c ****         } else {
 924:mbedTLS/library/sha256.c ****             ret = mbedtls_sha256_update(&ctx, sha_test_buf[i],
 3753              		.loc 1 924 59
 3754 00ea D7F8AC20 		ldr	r2, [r7, #172]
 3755 00ee 1346     		mov	r3, r2
 3756 00f0 DB00     		lsls	r3, r3, #3
 3757 00f2 9B1A     		subs	r3, r3, r2
 3758 00f4 DB00     		lsls	r3, r3, #3
 3759 00f6 1344     		add	r3, r3, r2
 3760 00f8 3A4A     		ldr	r2, .L109+16
 3761 00fa 9918     		adds	r1, r3, r2
 3762              		.loc 1 924 19
 3763 00fc 3A4A     		ldr	r2, .L109+20
 3764 00fe D7F8AC30 		ldr	r3, [r7, #172]
 3765 0102 52F82320 		ldr	r2, [r2, r3, lsl #2]
 3766 0106 07F10C03 		add	r3, r7, #12
 3767 010a 1846     		mov	r0, r3
 3768 010c FFF7FEFF 		bl	mbedtls_sha256_update
 3769 0110 C7F8A800 		str	r0, [r7, #168]
ARM GAS  C:\Users\clay0\AppData\Local\Temp\ccksdYIU.s 			page 88


 925:mbedTLS/library/sha256.c ****                                         sha_test_buflen[i]);
 926:mbedTLS/library/sha256.c ****             if (ret != 0) {
 3770              		.loc 1 926 16
 3771 0114 D7F8A830 		ldr	r3, [r7, #168]
 3772 0118 002B     		cmp	r3, #0
 3773 011a 3FD1     		bne	.L105
 3774              	.L95:
 927:mbedTLS/library/sha256.c ****                 goto fail;
 928:mbedTLS/library/sha256.c ****             }
 929:mbedTLS/library/sha256.c ****         }
 930:mbedTLS/library/sha256.c **** 
 931:mbedTLS/library/sha256.c ****         if ((ret = mbedtls_sha256_finish(&ctx, sha256sum)) != 0) {
 3775              		.loc 1 931 20
 3776 011c 07F17802 		add	r2, r7, #120
 3777 0120 07F10C03 		add	r3, r7, #12
 3778 0124 1146     		mov	r1, r2
 3779 0126 1846     		mov	r0, r3
 3780 0128 FFF7FEFF 		bl	mbedtls_sha256_finish
 3781 012c C7F8A800 		str	r0, [r7, #168]
 3782              		.loc 1 931 12
 3783 0130 D7F8A830 		ldr	r3, [r7, #168]
 3784 0134 002B     		cmp	r3, #0
 3785 0136 33D1     		bne	.L106
 932:mbedTLS/library/sha256.c ****             goto fail;
 933:mbedTLS/library/sha256.c ****         }
 934:mbedTLS/library/sha256.c **** 
 935:mbedTLS/library/sha256.c **** 
 936:mbedTLS/library/sha256.c ****         if (memcmp(sha256sum, sha_test_sum[i], 32 - is224 * 4) != 0) {
 3786              		.loc 1 936 43
 3787 0138 D7F8AC30 		ldr	r3, [r7, #172]
 3788 013c 5B01     		lsls	r3, r3, #5
 3789 013e D7F8A020 		ldr	r2, [r7, #160]
 3790 0142 D118     		adds	r1, r2, r3
 3791              		.loc 1 936 51
 3792 0144 3B68     		ldr	r3, [r7]
 3793 0146 C3F10803 		rsb	r3, r3, #8
 3794 014a 9B00     		lsls	r3, r3, #2
 3795              		.loc 1 936 13
 3796 014c 1A46     		mov	r2, r3
 3797 014e 07F17803 		add	r3, r7, #120
 3798 0152 1846     		mov	r0, r3
 3799 0154 FFF7FEFF 		bl	memcmp
 3800 0158 0346     		mov	r3, r0
 3801              		.loc 1 936 12
 3802 015a 002B     		cmp	r3, #0
 3803 015c 03D0     		beq	.L97
 937:mbedTLS/library/sha256.c ****             ret = 1;
 3804              		.loc 1 937 17
 3805 015e 0123     		movs	r3, #1
 3806 0160 C7F8A830 		str	r3, [r7, #168]
 938:mbedTLS/library/sha256.c ****             goto fail;
 3807              		.loc 1 938 13
 3808 0164 1DE0     		b	.L90
 3809              	.L97:
 939:mbedTLS/library/sha256.c ****         }
 940:mbedTLS/library/sha256.c **** 
 941:mbedTLS/library/sha256.c ****         if (verbose != 0) {
ARM GAS  C:\Users\clay0\AppData\Local\Temp\ccksdYIU.s 			page 89


 3810              		.loc 1 941 12
 3811 0166 7B68     		ldr	r3, [r7, #4]
 3812 0168 002B     		cmp	r3, #0
 3813 016a 02D0     		beq	.L98
 942:mbedTLS/library/sha256.c ****             mbedtls_printf("passed\n");
 3814              		.loc 1 942 13
 3815 016c 1F48     		ldr	r0, .L109+24
 3816 016e FFF7FEFF 		bl	puts
 3817              	.L98:
 904:mbedTLS/library/sha256.c ****         if (verbose != 0) {
 3818              		.loc 1 904 25 discriminator 2
 3819 0172 D7F8AC30 		ldr	r3, [r7, #172]
 3820 0176 0133     		adds	r3, r3, #1
 3821 0178 C7F8AC30 		str	r3, [r7, #172]
 3822              	.L87:
 904:mbedTLS/library/sha256.c ****         if (verbose != 0) {
 3823              		.loc 1 904 5 discriminator 1
 3824 017c D7F8AC30 		ldr	r3, [r7, #172]
 3825 0180 022B     		cmp	r3, #2
 3826 0182 7FF76AAF 		ble	.L99
 943:mbedTLS/library/sha256.c ****         }
 944:mbedTLS/library/sha256.c ****     }
 945:mbedTLS/library/sha256.c **** 
 946:mbedTLS/library/sha256.c ****     if (verbose != 0) {
 3827              		.loc 1 946 8
 3828 0186 7B68     		ldr	r3, [r7, #4]
 3829 0188 002B     		cmp	r3, #0
 3830 018a 11D0     		beq	.L107
 947:mbedTLS/library/sha256.c ****         mbedtls_printf("\n");
 3831              		.loc 1 947 9
 3832 018c 0A20     		movs	r0, #10
 3833 018e FFF7FEFF 		bl	putchar
 948:mbedTLS/library/sha256.c ****     }
 949:mbedTLS/library/sha256.c **** 
 950:mbedTLS/library/sha256.c ****     goto exit;
 3834              		.loc 1 950 5
 3835 0192 0DE0     		b	.L107
 3836              	.L103:
 910:mbedTLS/library/sha256.c ****         }
 3837              		.loc 1 910 13
 3838 0194 00BF     		nop
 3839 0196 04E0     		b	.L90
 3840              	.L104:
 3841              	.LBB48:
 919:mbedTLS/library/sha256.c ****                 }
 3842              		.loc 1 919 21
 3843 0198 00BF     		nop
 3844 019a 02E0     		b	.L90
 3845              	.L105:
 3846              	.LBE48:
 927:mbedTLS/library/sha256.c ****             }
 3847              		.loc 1 927 17
 3848 019c 00BF     		nop
 3849 019e 00E0     		b	.L90
 3850              	.L106:
 932:mbedTLS/library/sha256.c ****         }
 3851              		.loc 1 932 13
ARM GAS  C:\Users\clay0\AppData\Local\Temp\ccksdYIU.s 			page 90


 3852 01a0 00BF     		nop
 3853              	.L90:
 951:mbedTLS/library/sha256.c **** 
 952:mbedTLS/library/sha256.c **** fail:
 953:mbedTLS/library/sha256.c ****     if (verbose != 0) {
 3854              		.loc 1 953 8
 3855 01a2 7B68     		ldr	r3, [r7, #4]
 3856 01a4 002B     		cmp	r3, #0
 3857 01a6 05D0     		beq	.L108
 954:mbedTLS/library/sha256.c ****         mbedtls_printf("failed\n");
 3858              		.loc 1 954 9
 3859 01a8 1148     		ldr	r0, .L109+28
 3860 01aa FFF7FEFF 		bl	puts
 3861 01ae 02E0     		b	.L101
 3862              	.L107:
 950:mbedTLS/library/sha256.c **** 
 3863              		.loc 1 950 5
 3864 01b0 00BF     		nop
 3865 01b2 00E0     		b	.L101
 3866              	.L108:
 955:mbedTLS/library/sha256.c ****     }
 956:mbedTLS/library/sha256.c **** 
 957:mbedTLS/library/sha256.c **** exit:
 3867              		.loc 1 957 1
 3868 01b4 00BF     		nop
 3869              	.L101:
 958:mbedTLS/library/sha256.c ****     mbedtls_sha256_free(&ctx);
 3870              		.loc 1 958 5
 3871 01b6 07F10C03 		add	r3, r7, #12
 3872 01ba 1846     		mov	r0, r3
 3873 01bc FFF7FEFF 		bl	mbedtls_sha256_free
 959:mbedTLS/library/sha256.c ****     mbedtls_free(buf);
 3874              		.loc 1 959 5
 3875 01c0 D7F89C00 		ldr	r0, [r7, #156]
 3876 01c4 FFF7FEFF 		bl	free
 960:mbedTLS/library/sha256.c **** 
 961:mbedTLS/library/sha256.c ****     return ret;
 3877              		.loc 1 961 12
 3878 01c8 D7F8A830 		ldr	r3, [r7, #168]
 3879              	.L102:
 962:mbedTLS/library/sha256.c **** }
 3880              		.loc 1 962 1 discriminator 1
 3881 01cc 1846     		mov	r0, r3
 3882 01ce B037     		adds	r7, r7, #176
 3883              	.LCFI49:
 3884              		.cfi_def_cfa_offset 8
 3885 01d0 BD46     		mov	sp, r7
 3886              	.LCFI50:
 3887              		.cfi_def_cfa_register 13
 3888              		@ sp needed
 3889 01d2 80BD     		pop	{r7, pc}
 3890              	.L110:
 3891              		.align	2
 3892              	.L109:
 3893 01d4 00000000 		.word	sha224_test_sum
 3894 01d8 00000000 		.word	sha256_test_sum
 3895 01dc 00000000 		.word	.LC0
ARM GAS  C:\Users\clay0\AppData\Local\Temp\ccksdYIU.s 			page 91


 3896 01e0 1C000000 		.word	.LC1
 3897 01e4 00000000 		.word	sha_test_buf
 3898 01e8 00000000 		.word	sha_test_buflen
 3899 01ec 30000000 		.word	.LC2
 3900 01f0 38000000 		.word	.LC3
 3901              		.cfi_endproc
 3902              	.LFE23:
 3904              		.section	.text.mbedtls_sha256_self_test,"ax",%progbits
 3905              		.align	1
 3906              		.global	mbedtls_sha256_self_test
 3907              		.syntax unified
 3908              		.thumb
 3909              		.thumb_func
 3911              	mbedtls_sha256_self_test:
 3912              	.LFB24:
 963:mbedTLS/library/sha256.c **** 
 964:mbedTLS/library/sha256.c **** #if defined(MBEDTLS_SHA256_C)
 965:mbedTLS/library/sha256.c **** int mbedtls_sha256_self_test(int verbose)
 966:mbedTLS/library/sha256.c **** {
 3913              		.loc 1 966 1
 3914              		.cfi_startproc
 3915              		@ args = 0, pretend = 0, frame = 8
 3916              		@ frame_needed = 1, uses_anonymous_args = 0
 3917 0000 80B5     		push	{r7, lr}
 3918              	.LCFI51:
 3919              		.cfi_def_cfa_offset 8
 3920              		.cfi_offset 7, -8
 3921              		.cfi_offset 14, -4
 3922 0002 82B0     		sub	sp, sp, #8
 3923              	.LCFI52:
 3924              		.cfi_def_cfa_offset 16
 3925 0004 00AF     		add	r7, sp, #0
 3926              	.LCFI53:
 3927              		.cfi_def_cfa_register 7
 3928 0006 7860     		str	r0, [r7, #4]
 967:mbedTLS/library/sha256.c ****     return mbedtls_sha256_common_self_test(verbose, 0);
 3929              		.loc 1 967 12
 3930 0008 0021     		movs	r1, #0
 3931 000a 7868     		ldr	r0, [r7, #4]
 3932 000c FFF7FEFF 		bl	mbedtls_sha256_common_self_test
 3933 0010 0346     		mov	r3, r0
 968:mbedTLS/library/sha256.c **** }
 3934              		.loc 1 968 1
 3935 0012 1846     		mov	r0, r3
 3936 0014 0837     		adds	r7, r7, #8
 3937              	.LCFI54:
 3938              		.cfi_def_cfa_offset 8
 3939 0016 BD46     		mov	sp, r7
 3940              	.LCFI55:
 3941              		.cfi_def_cfa_register 13
 3942              		@ sp needed
 3943 0018 80BD     		pop	{r7, pc}
 3944              		.cfi_endproc
 3945              	.LFE24:
 3947              		.section	.text.mbedtls_sha224_self_test,"ax",%progbits
 3948              		.align	1
 3949              		.global	mbedtls_sha224_self_test
ARM GAS  C:\Users\clay0\AppData\Local\Temp\ccksdYIU.s 			page 92


 3950              		.syntax unified
 3951              		.thumb
 3952              		.thumb_func
 3954              	mbedtls_sha224_self_test:
 3955              	.LFB25:
 969:mbedTLS/library/sha256.c **** #endif /* MBEDTLS_SHA256_C */
 970:mbedTLS/library/sha256.c **** 
 971:mbedTLS/library/sha256.c **** #if defined(MBEDTLS_SHA224_C)
 972:mbedTLS/library/sha256.c **** int mbedtls_sha224_self_test(int verbose)
 973:mbedTLS/library/sha256.c **** {
 3956              		.loc 1 973 1
 3957              		.cfi_startproc
 3958              		@ args = 0, pretend = 0, frame = 8
 3959              		@ frame_needed = 1, uses_anonymous_args = 0
 3960 0000 80B5     		push	{r7, lr}
 3961              	.LCFI56:
 3962              		.cfi_def_cfa_offset 8
 3963              		.cfi_offset 7, -8
 3964              		.cfi_offset 14, -4
 3965 0002 82B0     		sub	sp, sp, #8
 3966              	.LCFI57:
 3967              		.cfi_def_cfa_offset 16
 3968 0004 00AF     		add	r7, sp, #0
 3969              	.LCFI58:
 3970              		.cfi_def_cfa_register 7
 3971 0006 7860     		str	r0, [r7, #4]
 974:mbedTLS/library/sha256.c ****     return mbedtls_sha256_common_self_test(verbose, 1);
 3972              		.loc 1 974 12
 3973 0008 0121     		movs	r1, #1
 3974 000a 7868     		ldr	r0, [r7, #4]
 3975 000c FFF7FEFF 		bl	mbedtls_sha256_common_self_test
 3976 0010 0346     		mov	r3, r0
 975:mbedTLS/library/sha256.c **** }
 3977              		.loc 1 975 1
 3978 0012 1846     		mov	r0, r3
 3979 0014 0837     		adds	r7, r7, #8
 3980              	.LCFI59:
 3981              		.cfi_def_cfa_offset 8
 3982 0016 BD46     		mov	sp, r7
 3983              	.LCFI60:
 3984              		.cfi_def_cfa_register 13
 3985              		@ sp needed
 3986 0018 80BD     		pop	{r7, pc}
 3987              		.cfi_endproc
 3988              	.LFE25:
 3990              		.text
 3991              	.Letext0:
 3992              		.file 3 "d:\\gcc arm\\10 2021.10\\arm-none-eabi\\include\\machine\\_default_types.h"
 3993              		.file 4 "d:\\gcc arm\\10 2021.10\\lib\\gcc\\arm-none-eabi\\10.3.1\\include\\stddef.h"
 3994              		.file 5 "d:\\gcc arm\\10 2021.10\\arm-none-eabi\\include\\sys\\_stdint.h"
 3995              		.file 6 "mbedTLS/include/mbedtls/sha256.h"
ARM GAS  C:\Users\clay0\AppData\Local\Temp\ccksdYIU.s 			page 93

