ARM GAS  C:\Users\clay0\AppData\Local\Temp\ccXY1EJc.s 			page 1


   1              		.cpu cortex-m4
   2              		.arch armv7e-m
   3              		.fpu fpv4-sp-d16
   4              		.eabi_attribute 27, 1
   5              		.eabi_attribute 28, 1
   6              		.eabi_attribute 20, 1
   7              		.eabi_attribute 21, 1
   8              		.eabi_attribute 23, 3
   9              		.eabi_attribute 24, 1
  10              		.eabi_attribute 25, 1
  11              		.eabi_attribute 26, 1
  12              		.eabi_attribute 30, 2
  13              		.eabi_attribute 34, 1
  14              		.eabi_attribute 18, 4
  15              		.file	"tee.c"
  16              		.text
  17              	.Ltext0:
  18              		.cfi_sections	.debug_frame
  19              		.section	.text.TEE_Init,"ax",%progbits
  20              		.align	1
  21              		.p2align 2,,3
  22              		.global	TEE_Init
  23              		.syntax unified
  24              		.thumb
  25              		.thumb_func
  27              	TEE_Init:
  28              	.LFB132:
  29              		.file 1 "Core/tee.c"
   1:Core/tee.c    **** #include "main.h"
   2:Core/tee.c    **** #include "tee.h"
   3:Core/tee.c    **** 
   4:Core/tee.c    **** typedef struct
   5:Core/tee.c    **** {
   6:Core/tee.c    ****     uint32_t magic;
   7:Core/tee.c    ****     uint8_t cert[32];
   8:Core/tee.c    **** } TEE_TrustRoot;
   9:Core/tee.c    **** 
  10:Core/tee.c    **** __attribute__((section(".kms"))) static const TEE_TrustRoot tee_root =
  11:Core/tee.c    **** {
  12:Core/tee.c    ****     .magic = 0x54524545,
  13:Core/tee.c    ****     .cert = {0x01, 0x02, 0x03}
  14:Core/tee.c    **** };
  15:Core/tee.c    **** 
  16:Core/tee.c    **** __attribute__((section(".kms")))
  17:Core/tee.c    **** const uint8_t root_of_trust_key[32] = {};
  18:Core/tee.c    **** 
  19:Core/tee.c    **** void TEE_Init(void)
  20:Core/tee.c    **** {
  30              		.loc 1 20 1 view -0
  31              		.cfi_startproc
  32              		@ args = 0, pretend = 0, frame = 0
  33              		@ frame_needed = 0, uses_anonymous_args = 0
  34              		@ link register save eliminated.
  21:Core/tee.c    ****     if (tee_root.magic != 0x54524545)
  35              		.loc 1 21 5 view .LVU1
  22:Core/tee.c    ****     {
  23:Core/tee.c    ****         while (1); // повреждённая область TEE
ARM GAS  C:\Users\clay0\AppData\Local\Temp\ccXY1EJc.s 			page 2


  24:Core/tee.c    ****     }
  25:Core/tee.c    **** }
  36              		.loc 1 25 1 is_stmt 0 view .LVU2
  37 0000 7047     		bx	lr
  38              		.cfi_endproc
  39              	.LFE132:
  41 0002 00BF     		.section	.text.verify_firmware,"ax",%progbits
  42              		.align	1
  43              		.p2align 2,,3
  44              		.global	verify_firmware
  45              		.syntax unified
  46              		.thumb
  47              		.thumb_func
  49              	verify_firmware:
  50              	.LFB133:
  26:Core/tee.c    **** 
  27:Core/tee.c    **** int verify_firmware(void)
  28:Core/tee.c    **** {
  51              		.loc 1 28 1 is_stmt 1 view -0
  52              		.cfi_startproc
  53              		@ args = 0, pretend = 0, frame = 0
  54              		@ frame_needed = 0, uses_anonymous_args = 0
  55              		@ link register save eliminated.
  29:Core/tee.c    ****     // uint8_t hash[32];
  30:Core/tee.c    ****     // uint8_t signature[SIGNATURE_SIZE] = {/* Подпись из UART или Flash */};
  31:Core/tee.c    ****     // mbedtls_sha256_context sha_ctx;
  32:Core/tee.c    ****     // mbedtls_ecdsa_context ecdsa_ctx;
  33:Core/tee.c    **** 
  34:Core/tee.c    ****     // // Инициализация
  35:Core/tee.c    ****     // mbedtls_sha256_init(&sha_ctx);
  36:Core/tee.c    ****     // mbedtls_ecdsa_init(&ecdsa_ctx);
  37:Core/tee.c    **** 
  38:Core/tee.c    ****     // // Вычисление SHA-256 хэша прошивки
  39:Core/tee.c    ****     // mbedtls_sha256_starts(&sha_ctx, 0); // 0 = SHA-256
  40:Core/tee.c    ****     // mbedtls_sha256_update(&sha_ctx, (const uint8_t *)FIRMWARE_ADDR, FIRMWARE_SIZE);
  41:Core/tee.c    ****     // mbedtls_sha256_finish(&sha_ctx, hash);
  42:Core/tee.c    **** 
  43:Core/tee.c    ****     // // Загрузка публичного ключа (из RoT)
  44:Core/tee.c    ****     // const uint8_t *public_key = root_of_trust_key; // Укажите ваш ключ
  45:Core/tee.c    ****     // mbedtls_ecdsa_read_pubkey(&ecdsa_ctx, public_key, sizeof(root_of_trust_key));
  46:Core/tee.c    **** 
  47:Core/tee.c    ****     // // Проверка подписи
  48:Core/tee.c    ****     // int ret = mbedtls_ecdsa_verify(&ecdsa_ctx, hash, sizeof(hash), signature, &SIGNATURE_SIZE);
  49:Core/tee.c    ****     // if (ret != 0)
  50:Core/tee.c    ****     // {
  51:Core/tee.c    ****     //     return -1; // Проверка не пройдена
  52:Core/tee.c    ****     // }
  53:Core/tee.c    **** 
  54:Core/tee.c    ****     // // Создание новой подписи (если требуется)
  55:Core/tee.c    ****     // uint8_t new_signature[SIGNATURE_SIZE];
  56:Core/tee.c    ****     // ret = mbedtls_ecdsa_write_signature(&ecdsa_ctx, hash, sizeof(hash), new_signature, sizeof(ne
  57:Core/tee.c    ****     // if (ret != 0)
  58:Core/tee.c    ****     // {
  59:Core/tee.c    ****     //     return -1;
  60:Core/tee.c    ****     // }
  61:Core/tee.c    **** 
  62:Core/tee.c    ****     // return 0; // Успех
ARM GAS  C:\Users\clay0\AppData\Local\Temp\ccXY1EJc.s 			page 3


  63:Core/tee.c    **** }
  56              		.loc 1 63 1 view .LVU4
  57 0000 7047     		bx	lr
  58              		.cfi_endproc
  59              	.LFE133:
  61 0002 00BF     		.section	.rodata.check_sign_firmware.str1.4,"aMS",%progbits,1
  62              		.align	2
  63              	.LC0:
  64 0000 456E7669 		.ascii	"Environment secure. Starting application.\012\000"
  64      726F6E6D 
  64      656E7420 
  64      73656375 
  64      72652E20 
  65 002b 00       		.align	2
  66              	.LC1:
  67 002c 56657269 		.ascii	"Verification failed!\012\000"
  67      66696361 
  67      74696F6E 
  67      20666169 
  67      6C656421 
  68              		.section	.text.check_sign_firmware,"ax",%progbits
  69              		.align	1
  70              		.p2align 2,,3
  71              		.global	check_sign_firmware
  72              		.syntax unified
  73              		.thumb
  74              		.thumb_func
  76              	check_sign_firmware:
  77              	.LFB134:
  64:Core/tee.c    **** 
  65:Core/tee.c    **** 
  66:Core/tee.c    **** void check_sign_firmware(void)
  67:Core/tee.c    **** {
  78              		.loc 1 67 1 view -0
  79              		.cfi_startproc
  80              		@ args = 0, pretend = 0, frame = 0
  81              		@ frame_needed = 0, uses_anonymous_args = 0
  68:Core/tee.c    ****     if (verify_firmware() == 0) 
  82              		.loc 1 68 5 view .LVU6
  63:Core/tee.c    **** 
  83              		.loc 1 63 1 view .LVU7
  84              	.LBB6:
  69:Core/tee.c    ****     {
  70:Core/tee.c    ****         uart_send("Environment secure. Starting application.\n", 40);
  85              		.loc 1 70 9 view .LVU8
  86              	.LBE6:
  67:Core/tee.c    ****     if (verify_firmware() == 0) 
  87              		.loc 1 67 1 is_stmt 0 view .LVU9
  88 0000 08B5     		push	{r3, lr}
  89              	.LCFI0:
  90              		.cfi_def_cfa_offset 8
  91              		.cfi_offset 3, -8
  92              		.cfi_offset 14, -4
  93              	.LBB7:
  94              		.loc 1 70 9 view .LVU10
  95 0002 0448     		ldr	r0, .L8
  96 0004 2821     		movs	r1, #40
ARM GAS  C:\Users\clay0\AppData\Local\Temp\ccXY1EJc.s 			page 4


  97 0006 FFF7FEFF 		bl	uart_send
  98              	.LVL0:
  71:Core/tee.c    ****         jump_to_application();
  99              		.loc 1 71 9 is_stmt 1 view .LVU11
 100              	.LBE7:
  72:Core/tee.c    ****     } 
  73:Core/tee.c    ****     else
  74:Core/tee.c    ****     {
  75:Core/tee.c    ****         uart_send("Verification failed!\n", 20);
  76:Core/tee.c    ****         while (1);
  77:Core/tee.c    ****     }
  78:Core/tee.c    **** }...
 101              		.loc 1 78 1 is_stmt 0 view .LVU12
 102 000a BDE80840 		pop	{r3, lr}
 103              	.LCFI1:
 104              		.cfi_restore 14
 105              		.cfi_restore 3
 106              		.cfi_def_cfa_offset 0
 107              	.LBB8:
  71:Core/tee.c    ****         jump_to_application();
 108              		.loc 1 71 9 view .LVU13
 109 000e FFF7FEBF 		b	jump_to_application
 110              	.LVL1:
 111              	.L9:
 112 0012 00BF     		.align	2
 113              	.L8:
 114 0014 00000000 		.word	.LC0
 115              	.LBE8:
 116              		.cfi_endproc
 117              	.LFE134:
 119              		.global	root_of_trust_key
 120              		.section	.kms,"a"
 121              		.align	2
 124              	root_of_trust_key:
 125 0000 00000000 		.space	32
 125      00000000 
 125      00000000 
 125      00000000 
 125      00000000 
 126              		.text
 127              	.Letext0:
 128              		.file 2 "d:\\gcc arm\\10 2021.10\\arm-none-eabi\\include\\machine\\_default_types.h"
 129              		.file 3 "d:\\gcc arm\\10 2021.10\\arm-none-eabi\\include\\sys\\_stdint.h"
ARM GAS  C:\Users\clay0\AppData\Local\Temp\ccXY1EJc.s 			page 5

