ARM GAS  C:\Users\clay0\AppData\Local\Temp\ccCl2t3H.s 			page 1


   1              		.cpu cortex-m4
   2              		.arch armv7e-m
   3              		.fpu fpv4-sp-d16
   4              		.eabi_attribute 27, 1
   5              		.eabi_attribute 28, 1
   6              		.eabi_attribute 20, 1
   7              		.eabi_attribute 21, 1
   8              		.eabi_attribute 23, 3
   9              		.eabi_attribute 24, 1
  10              		.eabi_attribute 25, 1
  11              		.eabi_attribute 26, 1
  12              		.eabi_attribute 30, 2
  13              		.eabi_attribute 34, 1
  14              		.eabi_attribute 18, 4
  15              		.file	"w5500_run.c"
  16              		.text
  17              	.Ltext0:
  18              		.cfi_sections	.debug_frame
  19              		.section	.text.w5500_network_init,"ax",%progbits
  20              		.align	1
  21              		.p2align 2,,3
  22              		.global	w5500_network_init
  23              		.syntax unified
  24              		.thumb
  25              		.thumb_func
  27              	w5500_network_init:
  28              	.LFB132:
  29              		.file 1 "Core/w5500_run.c"
   1:Core/w5500_run.c **** #include "main.h"
   2:Core/w5500_run.c **** #include "w5500_run.h"
   3:Core/w5500_run.c **** 
   4:Core/w5500_run.c **** void w5500_network_init(void)
   5:Core/w5500_run.c **** {
  30              		.loc 1 5 1 view -0
  31              		.cfi_startproc
  32              		@ args = 0, pretend = 0, frame = 24
  33              		@ frame_needed = 0, uses_anonymous_args = 0
   6:Core/w5500_run.c ****     uint8_t mac[6] = {0x00, 0x08, 0xDC, 0xAB, 0xCD, 0xEF}; // Уникальный MAC
  34              		.loc 1 6 5 view .LVU1
  35              	.LVL0:
   7:Core/w5500_run.c ****     uint8_t ip[4] = {192, 168, 1, 100};                    // Статический IP
  36              		.loc 1 7 5 view .LVU2
   8:Core/w5500_run.c ****     uint8_t subnet[4] = {255, 255, 255, 0};
  37              		.loc 1 8 5 view .LVU3
   9:Core/w5500_run.c ****     uint8_t gateway[4] = {192, 168, 1, 1};
  38              		.loc 1 9 5 view .LVU4
  10:Core/w5500_run.c ****     uint8_t dns[4] = {8, 8, 8, 8};
  39              		.loc 1 10 5 view .LVU5
  11:Core/w5500_run.c **** 
  12:Core/w5500_run.c ****     w5500_init();
  40              		.loc 1 12 5 view .LVU6
   5:Core/w5500_run.c ****     uint8_t mac[6] = {0x00, 0x08, 0xDC, 0xAB, 0xCD, 0xEF}; // Уникальный MAC
  41              		.loc 1 5 1 is_stmt 0 view .LVU7
  42 0000 30B5     		push	{r4, r5, lr}
  43              	.LCFI0:
  44              		.cfi_def_cfa_offset 12
  45              		.cfi_offset 4, -12
ARM GAS  C:\Users\clay0\AppData\Local\Temp\ccCl2t3H.s 			page 2


  46              		.cfi_offset 5, -8
  47              		.cfi_offset 14, -4
  48 0002 89B0     		sub	sp, sp, #36
  49              	.LCFI1:
  50              		.cfi_def_cfa_offset 48
  51              		.loc 1 12 5 view .LVU8
  52 0004 FFF7FEFF 		bl	w5500_init
  53              	.LVL1:
  13:Core/w5500_run.c ****     
  14:Core/w5500_run.c ****     wiz_NetInfo netInfo = {
  54              		.loc 1 14 5 is_stmt 1 view .LVU9
  55              		.loc 1 14 17 is_stmt 0 view .LVU10
  56 0008 154C     		ldr	r4, .L4
  57 000a 164D     		ldr	r5, .L4+4
  58 000c CDF80D50 		str	r5, [sp, #13]	@ unaligned
  59 0010 0022     		movs	r2, #0
  15:Core/w5500_run.c ****         .mac = {mac[0], mac[1], mac[2], mac[3], mac[4], mac[5]},
  16:Core/w5500_run.c ****         .ip = {ip[0], ip[1], ip[2], ip[3]},
  17:Core/w5500_run.c ****         .sn = {subnet[0], subnet[1], subnet[2], subnet[3]},
  18:Core/w5500_run.c ****         .gw = {gateway[0], gateway[1], gateway[2], gateway[3]},
  19:Core/w5500_run.c ****         .dns = {dns[0], dns[1], dns[2], dns[3]}
  20:Core/w5500_run.c ****     };
  21:Core/w5500_run.c ****     
  22:Core/w5500_run.c ****     static_host_configuration(netInfo.mac, netInfo.ip, netInfo.sn, netInfo.gw, netInfo.dns);
  60              		.loc 1 22 5 view .LVU11
  61 0012 0DF11A03 		add	r3, sp, #26
  14:Core/w5500_run.c ****         .mac = {mac[0], mac[1], mac[2], mac[3], mac[4], mac[5]},
  62              		.loc 1 14 17 view .LVU12
  63 0016 4FF0083C 		mov	ip, #134744072
  64              		.loc 1 22 5 view .LVU13
  65 001a 02A8     		add	r0, sp, #8
  14:Core/w5500_run.c ****         .mac = {mac[0], mac[1], mac[2], mac[3], mac[4], mac[5]},
  66              		.loc 1 14 17 view .LVU14
  67 001c 0592     		str	r2, [sp, #20]
  68              		.loc 1 22 5 view .LVU15
  69 001e 0DF10E01 		add	r1, sp, #14
  14:Core/w5500_run.c ****         .mac = {mac[0], mac[1], mac[2], mac[3], mac[4], mac[5]},
  70              		.loc 1 14 17 view .LVU16
  71 0022 0292     		str	r2, [sp, #8]
  72 0024 CDF81B20 		str	r2, [sp, #27]	@ unaligned
  73              		.loc 1 22 5 view .LVU17
  74 0028 0093     		str	r3, [sp]
  75 002a 0DF11202 		add	r2, sp, #18
  76 002e 0DF11603 		add	r3, sp, #22
  14:Core/w5500_run.c ****         .mac = {mac[0], mac[1], mac[2], mac[3], mac[4], mac[5]},
  77              		.loc 1 14 17 view .LVU18
  78 0032 CDF80940 		str	r4, [sp, #9]	@ unaligned
  79 0036 CDF81AC0 		str	ip, [sp, #26]	@ unaligned
  80              		.loc 1 22 5 is_stmt 1 view .LVU19
  14:Core/w5500_run.c ****         .mac = {mac[0], mac[1], mac[2], mac[3], mac[4], mac[5]},
  81              		.loc 1 14 17 is_stmt 0 view .LVU20
  82 003a 0B4C     		ldr	r4, .L4+8
  83 003c CDF81640 		str	r4, [sp, #22]	@ unaligned
  84 0040 6FF09B0C 		mvn	ip, #155
  85 0044 CDF811C0 		str	ip, [sp, #17]	@ unaligned
  86              		.loc 1 22 5 view .LVU21
  87 0048 FFF7FEFF 		bl	static_host_configuration
ARM GAS  C:\Users\clay0\AppData\Local\Temp\ccCl2t3H.s 			page 3


  88              	.LVL2:
  23:Core/w5500_run.c ****     // dynamic_host_configuration(netInfo.mac);
  24:Core/w5500_run.c **** 
  25:Core/w5500_run.c ****     check_cable_presence();
  89              		.loc 1 25 5 is_stmt 1 view .LVU22
  90 004c FFF7FEFF 		bl	check_cable_presence
  91              	.LVL3:
  26:Core/w5500_run.c **** 
  27:Core/w5500_run.c ****     check_phy_status();
  92              		.loc 1 27 5 view .LVU23
  93 0050 FFF7FEFF 		bl	check_phy_status
  94              	.LVL4:
  28:Core/w5500_run.c **** 
  29:Core/w5500_run.c ****     blink_run(50);
  95              		.loc 1 29 5 view .LVU24
  96 0054 3220     		movs	r0, #50
  97 0056 FFF7FEFF 		bl	blink_run
  98              	.LVL5:
  30:Core/w5500_run.c ****     // print_current_host_configuration();
  31:Core/w5500_run.c **** 
  32:Core/w5500_run.c **** }
  99              		.loc 1 32 1 is_stmt 0 view .LVU25
 100 005a 09B0     		add	sp, sp, #36
 101              	.LCFI2:
 102              		.cfi_def_cfa_offset 12
 103              		@ sp needed
 104 005c 30BD     		pop	{r4, r5, pc}
 105              	.L5:
 106 005e 00BF     		.align	2
 107              	.L4:
 108 0060 08DCABCD 		.word	-844375032
 109 0064 EFC0A801 		.word	27836655
 110 0068 C0A80101 		.word	16885952
 111              		.cfi_endproc
 112              	.LFE132:
 114              		.section	.text.udp_init,"ax",%progbits
 115              		.align	1
 116              		.p2align 2,,3
 117              		.global	udp_init
 118              		.syntax unified
 119              		.thumb
 120              		.thumb_func
 122              	udp_init:
 123              	.LVL6:
 124              	.LFB133:
  33:Core/w5500_run.c **** void udp_init(uint8_t sct, uint16_t local_port)
  34:Core/w5500_run.c **** {
 125              		.loc 1 34 1 is_stmt 1 view -0
 126              		.cfi_startproc
 127              		@ args = 0, pretend = 0, frame = 0
 128              		@ frame_needed = 0, uses_anonymous_args = 0
 129              		@ link register save eliminated.
  35:Core/w5500_run.c ****     socket(sct, Sn_MR_UDP, local_port, 0);
 130              		.loc 1 35 5 view .LVU27
  34:Core/w5500_run.c ****     socket(sct, Sn_MR_UDP, local_port, 0);
 131              		.loc 1 34 1 is_stmt 0 view .LVU28
 132 0000 0A46     		mov	r2, r1
ARM GAS  C:\Users\clay0\AppData\Local\Temp\ccCl2t3H.s 			page 4


 133              		.loc 1 35 5 view .LVU29
 134 0002 0023     		movs	r3, #0
 135 0004 0221     		movs	r1, #2
 136              	.LVL7:
 137              		.loc 1 35 5 view .LVU30
 138 0006 FFF7FEBF 		b	socket
 139              	.LVL8:
 140              		.loc 1 35 5 view .LVU31
 141              		.cfi_endproc
 142              	.LFE133:
 144 000a 00BF     		.text
 145              	.Letext0:
 146              		.file 2 "d:\\gcc arm\\10 2021.10\\arm-none-eabi\\include\\machine\\_default_types.h"
 147              		.file 3 "d:\\gcc arm\\10 2021.10\\arm-none-eabi\\include\\sys\\_stdint.h"
 148              		.file 4 "ioLIB/wizchip_conf.h"
 149              		.file 5 "ioLIB/socket.h"
 150              		.file 6 "ioLIB/w5500_spi.h"
 151              		.file 7 "ioLIB/w5500_host_config.h"
 152              		.file 8 "ioLIB/w5500_phy.h"
 153              		.file 9 "Core/main.h"
ARM GAS  C:\Users\clay0\AppData\Local\Temp\ccCl2t3H.s 			page 5

