ARM GAS  C:\Users\clay0\AppData\Local\Temp\ccWe93NB.s 			page 1


   1              		.cpu cortex-m4
   2              		.arch armv7e-m
   3              		.fpu fpv4-sp-d16
   4              		.eabi_attribute 27, 1
   5              		.eabi_attribute 28, 1
   6              		.eabi_attribute 20, 1
   7              		.eabi_attribute 21, 1
   8              		.eabi_attribute 23, 3
   9              		.eabi_attribute 24, 1
  10              		.eabi_attribute 25, 1
  11              		.eabi_attribute 26, 1
  12              		.eabi_attribute 30, 2
  13              		.eabi_attribute 34, 1
  14              		.eabi_attribute 18, 4
  15              		.file	"w5500_host_config.c"
  16              		.text
  17              	.Ltext0:
  18              		.cfi_sections	.debug_frame
  19              		.section	.text.callback_ip_assigned,"ax",%progbits
  20              		.align	1
  21              		.p2align 2,,3
  22              		.global	callback_ip_assigned
  23              		.syntax unified
  24              		.thumb
  25              		.thumb_func
  27              	callback_ip_assigned:
  28              	.LFB137:
  29              		.file 1 "ioLIB/w5500_host_config.c"
   1:ioLIB/w5500_host_config.c **** #include <stdio.h>
   2:ioLIB/w5500_host_config.c **** #include <stdint.h>
   3:ioLIB/w5500_host_config.c **** #include "w5500_host_config.h"
   4:ioLIB/w5500_host_config.c **** #include "wizchip_conf.h"
   5:ioLIB/w5500_host_config.c **** #include "dhcp.h"
   6:ioLIB/w5500_host_config.c **** #include "stdbool.h"
   7:ioLIB/w5500_host_config.c **** #include "main.h"
   8:ioLIB/w5500_host_config.c **** 
   9:ioLIB/w5500_host_config.c **** 
  10:ioLIB/w5500_host_config.c **** volatile bool ip_assigned = false;
  11:ioLIB/w5500_host_config.c **** 
  12:ioLIB/w5500_host_config.c **** /**
  13:ioLIB/w5500_host_config.c ****  * @brief Callback function triggered when an IP address is successfully assigned by the DHCP serve
  14:ioLIB/w5500_host_config.c ****  * @param None
  15:ioLIB/w5500_host_config.c ****  * @retval None
  16:ioLIB/w5500_host_config.c ****  */
  17:ioLIB/w5500_host_config.c **** void callback_ip_assigned();
  18:ioLIB/w5500_host_config.c **** 
  19:ioLIB/w5500_host_config.c **** /**
  20:ioLIB/w5500_host_config.c ****  * @brief Callback function triggered when the DHCP lease is renewed.
  21:ioLIB/w5500_host_config.c ****  * @param None
  22:ioLIB/w5500_host_config.c ****  * @retval None
  23:ioLIB/w5500_host_config.c ****  */
  24:ioLIB/w5500_host_config.c **** void callback_ip_renewed();
  25:ioLIB/w5500_host_config.c **** 
  26:ioLIB/w5500_host_config.c **** /**
  27:ioLIB/w5500_host_config.c ****  * @brief Callback function triggered when an IP conflict is detected.
  28:ioLIB/w5500_host_config.c ****  * @param None
  29:ioLIB/w5500_host_config.c ****  * @retval None
ARM GAS  C:\Users\clay0\AppData\Local\Temp\ccWe93NB.s 			page 2


  30:ioLIB/w5500_host_config.c ****  */
  31:ioLIB/w5500_host_config.c **** void callback_ip_conflict();
  32:ioLIB/w5500_host_config.c **** 
  33:ioLIB/w5500_host_config.c **** 
  34:ioLIB/w5500_host_config.c **** /**
  35:ioLIB/w5500_host_config.c ****  * @brief Configures the W5500 with a static IP address.
  36:ioLIB/w5500_host_config.c ****  * @param mac Source MAC address
  37:ioLIB/w5500_host_config.c ****  * @param ip Source IP address
  38:ioLIB/w5500_host_config.c ****  * @param sn Subnet mask
  39:ioLIB/w5500_host_config.c ****  * @param gw Gateway IP address
  40:ioLIB/w5500_host_config.c ****  * @param dns DNS server IP address
  41:ioLIB/w5500_host_config.c ****  * @retval None
  42:ioLIB/w5500_host_config.c ****  */
  43:ioLIB/w5500_host_config.c **** void static_host_configuration(uint8_t mac[6], uint8_t ip[4], uint8_t sn[4], uint8_t gw[4], uint8_t
  44:ioLIB/w5500_host_config.c **** {
  45:ioLIB/w5500_host_config.c ****     wiz_NetInfo net_info = {
  46:ioLIB/w5500_host_config.c ****         .mac = {mac[0], mac[1], mac[2], mac[3], mac[4], mac[5]},  // Copy MAC address
  47:ioLIB/w5500_host_config.c ****         .ip = {ip[0], ip[1], ip[2], ip[3]},                      // Copy IP address
  48:ioLIB/w5500_host_config.c ****         .sn = {sn[0], sn[1], sn[2], sn[3]},                      // Copy subnet mask
  49:ioLIB/w5500_host_config.c ****         .gw = {gw[0], gw[1], gw[2], gw[3]},                      // Copy gateway
  50:ioLIB/w5500_host_config.c ****         .dns = {dns[0], dns[1], dns[2], dns[3]},                 // Copy DNS server
  51:ioLIB/w5500_host_config.c ****         .dhcp = NETINFO_STATIC                                   // Use static IP
  52:ioLIB/w5500_host_config.c ****     };
  53:ioLIB/w5500_host_config.c **** 
  54:ioLIB/w5500_host_config.c ****     // printf("Setting up static host configuration...\r\n");
  55:ioLIB/w5500_host_config.c **** 
  56:ioLIB/w5500_host_config.c ****     // blink_run(50);
  57:ioLIB/w5500_host_config.c **** 
  58:ioLIB/w5500_host_config.c ****     // Set network configuration
  59:ioLIB/w5500_host_config.c ****     ctlnetwork(CN_SET_NETINFO, (void*)&net_info);
  60:ioLIB/w5500_host_config.c **** 
  61:ioLIB/w5500_host_config.c ****     // printf("Static IP configuration is done successfully.\r\n");
  62:ioLIB/w5500_host_config.c **** 
  63:ioLIB/w5500_host_config.c **** }
  64:ioLIB/w5500_host_config.c **** 
  65:ioLIB/w5500_host_config.c **** /**
  66:ioLIB/w5500_host_config.c ****  * @brief Configures the W5500 using DHCP for dynamic IP assignment.
  67:ioLIB/w5500_host_config.c ****  * @param mac Source MAC address
  68:ioLIB/w5500_host_config.c ****  * @retval None
  69:ioLIB/w5500_host_config.c ****  */
  70:ioLIB/w5500_host_config.c **** void dynamic_host_configuration(uint8_t mac[6])
  71:ioLIB/w5500_host_config.c **** {
  72:ioLIB/w5500_host_config.c **** 	uint8_t dhcp_buffer[1024];
  73:ioLIB/w5500_host_config.c **** 
  74:ioLIB/w5500_host_config.c ****     wiz_NetInfo net_info = {
  75:ioLIB/w5500_host_config.c ****         .mac  = {mac[0], mac[1], mac[2], mac[3], mac[4], mac[5]},  // Set MAC address
  76:ioLIB/w5500_host_config.c ****         .dhcp = NETINFO_DHCP                                      // Enable DHCP mode
  77:ioLIB/w5500_host_config.c ****     };
  78:ioLIB/w5500_host_config.c **** 
  79:ioLIB/w5500_host_config.c ****     // printf("Setting up dynamic host configuration...\r\n");
  80:ioLIB/w5500_host_config.c **** 
  81:ioLIB/w5500_host_config.c **** 
  82:ioLIB/w5500_host_config.c ****     // don't buffer the output of printf
  83:ioLIB/w5500_host_config.c ****     setbuf(stdout, NULL);
  84:ioLIB/w5500_host_config.c **** 
  85:ioLIB/w5500_host_config.c **** 
  86:ioLIB/w5500_host_config.c ****     // Set the MAC address before using DHCP
ARM GAS  C:\Users\clay0\AppData\Local\Temp\ccWe93NB.s 			page 3


  87:ioLIB/w5500_host_config.c ****     setSHAR(net_info.mac);
  88:ioLIB/w5500_host_config.c **** 
  89:ioLIB/w5500_host_config.c ****     // Initialize DHCP
  90:ioLIB/w5500_host_config.c ****     DHCP_init(DHCP_SOCKET, dhcp_buffer);
  91:ioLIB/w5500_host_config.c **** 
  92:ioLIB/w5500_host_config.c ****     // Register DHCP callback functions if needed
  93:ioLIB/w5500_host_config.c ****     reg_dhcp_cbfunc(callback_ip_assigned, callback_ip_assigned, callback_ip_conflict);
  94:ioLIB/w5500_host_config.c **** 
  95:ioLIB/w5500_host_config.c ****     // Run DHCP process in a loop until IP is assigned
  96:ioLIB/w5500_host_config.c ****     while ((!ip_assigned)) {
  97:ioLIB/w5500_host_config.c ****         DHCP_run();
  98:ioLIB/w5500_host_config.c ****     }
  99:ioLIB/w5500_host_config.c **** 
 100:ioLIB/w5500_host_config.c ****     // Retrieve IP, gateway, subnet mask, and DNS from DHCP
 101:ioLIB/w5500_host_config.c ****     getIPfromDHCP(net_info.ip);
 102:ioLIB/w5500_host_config.c ****     getGWfromDHCP(net_info.gw);
 103:ioLIB/w5500_host_config.c ****     getSNfromDHCP(net_info.sn);
 104:ioLIB/w5500_host_config.c ****     getDNSfromDHCP(net_info.dns);
 105:ioLIB/w5500_host_config.c **** 
 106:ioLIB/w5500_host_config.c ****     // Set network information obtained from DHCP
 107:ioLIB/w5500_host_config.c ****     wizchip_setnetinfo(&net_info);
 108:ioLIB/w5500_host_config.c **** 
 109:ioLIB/w5500_host_config.c ****     // printf("Dynamic IP configuration is done successfully.\r\n");
 110:ioLIB/w5500_host_config.c **** }
 111:ioLIB/w5500_host_config.c **** 
 112:ioLIB/w5500_host_config.c **** 
 113:ioLIB/w5500_host_config.c **** void callback_ip_assigned()
 114:ioLIB/w5500_host_config.c **** {
  30              		.loc 1 114 1 view -0
  31              		.cfi_startproc
  32              		@ args = 0, pretend = 0, frame = 0
  33              		@ frame_needed = 0, uses_anonymous_args = 0
  34              		@ link register save eliminated.
 115:ioLIB/w5500_host_config.c ****     // printf("DHCP: IP assigned\n");
 116:ioLIB/w5500_host_config.c ****     ip_assigned = true;
  35              		.loc 1 116 5 view .LVU1
  36              		.loc 1 116 17 is_stmt 0 view .LVU2
  37 0000 014B     		ldr	r3, .L3
  38 0002 0122     		movs	r2, #1
  39 0004 1A70     		strb	r2, [r3]
 117:ioLIB/w5500_host_config.c **** }
  40              		.loc 1 117 1 view .LVU3
  41 0006 7047     		bx	lr
  42              	.L4:
  43              		.align	2
  44              	.L3:
  45 0008 00000000 		.word	.LANCHOR0
  46              		.cfi_endproc
  47              	.LFE137:
  49              		.section	.text.callback_ip_conflict,"ax",%progbits
  50              		.align	1
  51              		.p2align 2,,3
  52              		.global	callback_ip_conflict
  53              		.syntax unified
  54              		.thumb
  55              		.thumb_func
  57              	callback_ip_conflict:
ARM GAS  C:\Users\clay0\AppData\Local\Temp\ccWe93NB.s 			page 4


  58              	.LFB141:
  59              		.cfi_startproc
  60              		@ args = 0, pretend = 0, frame = 0
  61              		@ frame_needed = 0, uses_anonymous_args = 0
  62              		@ link register save eliminated.
  63 0000 7047     		bx	lr
  64              		.cfi_endproc
  65              	.LFE141:
  67 0002 00BF     		.section	.text.static_host_configuration,"ax",%progbits
  68              		.align	1
  69              		.p2align 2,,3
  70              		.global	static_host_configuration
  71              		.syntax unified
  72              		.thumb
  73              		.thumb_func
  75              	static_host_configuration:
  76              	.LVL0:
  77              	.LFB135:
  44:ioLIB/w5500_host_config.c ****     wiz_NetInfo net_info = {
  78              		.loc 1 44 1 is_stmt 1 view -0
  79              		.cfi_startproc
  80              		@ args = 4, pretend = 0, frame = 24
  81              		@ frame_needed = 0, uses_anonymous_args = 0
  45:ioLIB/w5500_host_config.c ****         .mac = {mac[0], mac[1], mac[2], mac[3], mac[4], mac[5]},  // Copy MAC address
  82              		.loc 1 45 5 view .LVU5
  44:ioLIB/w5500_host_config.c ****     wiz_NetInfo net_info = {
  83              		.loc 1 44 1 is_stmt 0 view .LVU6
  84 0000 30B5     		push	{r4, r5, lr}
  85              	.LCFI0:
  86              		.cfi_def_cfa_offset 12
  87              		.cfi_offset 4, -12
  88              		.cfi_offset 5, -8
  89              		.cfi_offset 14, -4
  90 0002 87B0     		sub	sp, sp, #28
  91              	.LCFI1:
  92              		.cfi_def_cfa_offset 40
  45:ioLIB/w5500_host_config.c ****         .mac = {mac[0], mac[1], mac[2], mac[3], mac[4], mac[5]},  // Copy MAC address
  93              		.loc 1 45 17 view .LVU7
  94 0004 0D78     		ldrb	r5, [r1]	@ zero_extendqisi2
  95 0006 90F804C0 		ldrb	ip, [r0, #4]	@ zero_extendqisi2
  96 000a 8DF80650 		strb	r5, [sp, #6]
  46:ioLIB/w5500_host_config.c ****         .ip = {ip[0], ip[1], ip[2], ip[3]},                      // Copy IP address
  97              		.loc 1 46 20 view .LVU8
  98 000e 0568     		ldr	r5, [r0]	@ unaligned
  45:ioLIB/w5500_host_config.c ****         .mac = {mac[0], mac[1], mac[2], mac[3], mac[4], mac[5]},  // Copy MAC address
  99              		.loc 1 45 17 view .LVU9
 100 0010 4079     		ldrb	r0, [r0, #5]	@ zero_extendqisi2
 101              	.LVL1:
  45:ioLIB/w5500_host_config.c ****         .mac = {mac[0], mac[1], mac[2], mac[3], mac[4], mac[5]},  // Copy MAC address
 102              		.loc 1 45 17 view .LVU10
 103 0012 8DF80500 		strb	r0, [sp, #5]
 104 0016 4878     		ldrb	r0, [r1, #1]	@ zero_extendqisi2
 105 0018 8DF804C0 		strb	ip, [sp, #4]
 106 001c 8DF80700 		strb	r0, [sp, #7]
 107 0020 91F802C0 		ldrb	ip, [r1, #2]	@ zero_extendqisi2
 108 0024 C878     		ldrb	r0, [r1, #3]	@ zero_extendqisi2
 109 0026 1178     		ldrb	r1, [r2]	@ zero_extendqisi2
ARM GAS  C:\Users\clay0\AppData\Local\Temp\ccWe93NB.s 			page 5


 110              	.LVL2:
  44:ioLIB/w5500_host_config.c ****     wiz_NetInfo net_info = {
 111              		.loc 1 44 1 view .LVU11
 112 0028 0A9C     		ldr	r4, [sp, #40]
  45:ioLIB/w5500_host_config.c ****         .mac = {mac[0], mac[1], mac[2], mac[3], mac[4], mac[5]},  // Copy MAC address
 113              		.loc 1 45 17 view .LVU12
 114 002a 8DF80900 		strb	r0, [sp, #9]
 115 002e 8DF80A10 		strb	r1, [sp, #10]
 116 0032 9078     		ldrb	r0, [r2, #2]	@ zero_extendqisi2
 117 0034 D178     		ldrb	r1, [r2, #3]	@ zero_extendqisi2
 118 0036 8DF808C0 		strb	ip, [sp, #8]
 119 003a 8DF80C00 		strb	r0, [sp, #12]
 120 003e 92F801C0 		ldrb	ip, [r2, #1]	@ zero_extendqisi2
 121 0042 5878     		ldrb	r0, [r3, #1]	@ zero_extendqisi2
 122 0044 1A78     		ldrb	r2, [r3]	@ zero_extendqisi2
 123              	.LVL3:
  45:ioLIB/w5500_host_config.c ****         .mac = {mac[0], mac[1], mac[2], mac[3], mac[4], mac[5]},  // Copy MAC address
 124              		.loc 1 45 17 view .LVU13
 125 0046 8DF80D10 		strb	r1, [sp, #13]
 126 004a 9978     		ldrb	r1, [r3, #2]	@ zero_extendqisi2
 127 004c DB78     		ldrb	r3, [r3, #3]	@ zero_extendqisi2
 128              	.LVL4:
  45:ioLIB/w5500_host_config.c ****         .mac = {mac[0], mac[1], mac[2], mac[3], mac[4], mac[5]},  // Copy MAC address
 129              		.loc 1 45 17 view .LVU14
 130 004e 8DF80BC0 		strb	ip, [sp, #11]
 131 0052 8DF80E20 		strb	r2, [sp, #14]
 132 0056 8DF80F00 		strb	r0, [sp, #15]
 133 005a 2278     		ldrb	r2, [r4]	@ zero_extendqisi2
 134 005c 8DF81010 		strb	r1, [sp, #16]
 135 0060 0095     		str	r5, [sp]
 136 0062 8DF81130 		strb	r3, [sp, #17]
 137 0066 A078     		ldrb	r0, [r4, #2]	@ zero_extendqisi2
 138 0068 94F801C0 		ldrb	ip, [r4, #1]	@ zero_extendqisi2
 139 006c 8DF81220 		strb	r2, [sp, #18]
 140 0070 0123     		movs	r3, #1
 141 0072 E278     		ldrb	r2, [r4, #3]	@ zero_extendqisi2
 142 0074 8DF81400 		strb	r0, [sp, #20]
  59:ioLIB/w5500_host_config.c **** 
 143              		.loc 1 59 5 view .LVU15
 144 0078 6946     		mov	r1, sp
 145 007a 0020     		movs	r0, #0
  45:ioLIB/w5500_host_config.c ****         .mac = {mac[0], mac[1], mac[2], mac[3], mac[4], mac[5]},  // Copy MAC address
 146              		.loc 1 45 17 view .LVU16
 147 007c 8DF813C0 		strb	ip, [sp, #19]
 148 0080 8DF81520 		strb	r2, [sp, #21]
 149 0084 8DF81630 		strb	r3, [sp, #22]
  59:ioLIB/w5500_host_config.c **** 
 150              		.loc 1 59 5 is_stmt 1 view .LVU17
 151 0088 FFF7FEFF 		bl	ctlnetwork
 152              	.LVL5:
  63:ioLIB/w5500_host_config.c **** 
 153              		.loc 1 63 1 is_stmt 0 view .LVU18
 154 008c 07B0     		add	sp, sp, #28
 155              	.LCFI2:
 156              		.cfi_def_cfa_offset 12
 157              		@ sp needed
 158 008e 30BD     		pop	{r4, r5, pc}
ARM GAS  C:\Users\clay0\AppData\Local\Temp\ccWe93NB.s 			page 6


  63:ioLIB/w5500_host_config.c **** 
 159              		.loc 1 63 1 view .LVU19
 160              		.cfi_endproc
 161              	.LFE135:
 163              		.section	.text.dynamic_host_configuration,"ax",%progbits
 164              		.align	1
 165              		.p2align 2,,3
 166              		.global	dynamic_host_configuration
 167              		.syntax unified
 168              		.thumb
 169              		.thumb_func
 171              	dynamic_host_configuration:
 172              	.LVL6:
 173              	.LFB136:
  71:ioLIB/w5500_host_config.c **** 	uint8_t dhcp_buffer[1024];
 174              		.loc 1 71 1 is_stmt 1 view -0
 175              		.cfi_startproc
 176              		@ args = 0, pretend = 0, frame = 1048
 177              		@ frame_needed = 0, uses_anonymous_args = 0
  72:ioLIB/w5500_host_config.c **** 
 178              		.loc 1 72 2 view .LVU21
  74:ioLIB/w5500_host_config.c ****         .mac  = {mac[0], mac[1], mac[2], mac[3], mac[4], mac[5]},  // Set MAC address
 179              		.loc 1 74 5 view .LVU22
  71:ioLIB/w5500_host_config.c **** 	uint8_t dhcp_buffer[1024];
 180              		.loc 1 71 1 is_stmt 0 view .LVU23
 181 0000 10B5     		push	{r4, lr}
 182              	.LCFI3:
 183              		.cfi_def_cfa_offset 8
 184              		.cfi_offset 4, -8
 185              		.cfi_offset 14, -4
  83:ioLIB/w5500_host_config.c **** 
 186              		.loc 1 83 12 view .LVU24
 187 0002 244A     		ldr	r2, .L14
  71:ioLIB/w5500_host_config.c **** 	uint8_t dhcp_buffer[1024];
 188              		.loc 1 71 1 view .LVU25
 189 0004 ADF5836D 		sub	sp, sp, #1048
 190              	.LCFI4:
 191              		.cfi_def_cfa_offset 1056
  71:ioLIB/w5500_host_config.c **** 	uint8_t dhcp_buffer[1024];
 192              		.loc 1 71 1 view .LVU26
 193 0008 0346     		mov	r3, r0
  83:ioLIB/w5500_host_config.c **** 
 194              		.loc 1 83 12 view .LVU27
 195 000a 1268     		ldr	r2, [r2]
  74:ioLIB/w5500_host_config.c ****         .mac  = {mac[0], mac[1], mac[2], mac[3], mac[4], mac[5]},  // Set MAC address
 196              		.loc 1 74 17 view .LVU28
 197 000c 0221     		movs	r1, #2
 198 000e 8DF81610 		strb	r1, [sp, #22]
  83:ioLIB/w5500_host_config.c **** 
 199              		.loc 1 83 5 is_stmt 1 view .LVU29
 200 0012 9068     		ldr	r0, [r2, #8]
 201              	.LVL7:
  75:ioLIB/w5500_host_config.c ****         .dhcp = NETINFO_DHCP                                      // Enable DHCP mode
 202              		.loc 1 75 21 is_stmt 0 view .LVU30
 203 0014 1A68     		ldr	r2, [r3]	@ unaligned
  74:ioLIB/w5500_host_config.c ****         .mac  = {mac[0], mac[1], mac[2], mac[3], mac[4], mac[5]},  // Set MAC address
 204              		.loc 1 74 17 view .LVU31
ARM GAS  C:\Users\clay0\AppData\Local\Temp\ccWe93NB.s 			page 7


 205 0016 0092     		str	r2, [sp]
 206 0018 0024     		movs	r4, #0
 207 001a 1A79     		ldrb	r2, [r3, #4]	@ zero_extendqisi2
 208 001c 5B79     		ldrb	r3, [r3, #5]	@ zero_extendqisi2
 209              	.LVL8:
  74:ioLIB/w5500_host_config.c ****         .mac  = {mac[0], mac[1], mac[2], mac[3], mac[4], mac[5]},  // Set MAC address
 210              		.loc 1 74 17 view .LVU32
 211 001e ADF81440 		strh	r4, [sp, #20]	@ movhi
  83:ioLIB/w5500_host_config.c **** 
 212              		.loc 1 83 5 view .LVU33
 213 0022 2146     		mov	r1, r4
  74:ioLIB/w5500_host_config.c ****         .mac  = {mac[0], mac[1], mac[2], mac[3], mac[4], mac[5]},  // Set MAC address
 214              		.loc 1 74 17 view .LVU34
 215 0024 CDE90144 		strd	r4, r4, [sp, #4]
 216 0028 CDE90344 		strd	r4, r4, [sp, #12]
 217 002c 8DF80530 		strb	r3, [sp, #5]
 218 0030 8DF80420 		strb	r2, [sp, #4]
  83:ioLIB/w5500_host_config.c **** 
 219              		.loc 1 83 5 view .LVU35
 220 0034 FFF7FEFF 		bl	setbuf
 221              	.LVL9:
  87:ioLIB/w5500_host_config.c **** 
 222              		.loc 1 87 5 is_stmt 1 view .LVU36
 223 0038 0622     		movs	r2, #6
 224 003a 6946     		mov	r1, sp
 225 003c 4FF41060 		mov	r0, #2304
 226 0040 FFF7FEFF 		bl	WIZCHIP_WRITE_BUF
 227              	.LVL10:
  90:ioLIB/w5500_host_config.c **** 
 228              		.loc 1 90 5 view .LVU37
 229 0044 2046     		mov	r0, r4
 230 0046 06A9     		add	r1, sp, #24
 231 0048 FFF7FEFF 		bl	DHCP_init
 232              	.LVL11:
  93:ioLIB/w5500_host_config.c **** 
 233              		.loc 1 93 5 view .LVU38
 234 004c 1249     		ldr	r1, .L14+4
  96:ioLIB/w5500_host_config.c ****         DHCP_run();
 235              		.loc 1 96 13 is_stmt 0 view .LVU39
 236 004e 134C     		ldr	r4, .L14+8
  93:ioLIB/w5500_host_config.c **** 
 237              		.loc 1 93 5 view .LVU40
 238 0050 134A     		ldr	r2, .L14+12
 239 0052 0846     		mov	r0, r1
 240 0054 FFF7FEFF 		bl	reg_dhcp_cbfunc
 241              	.LVL12:
  96:ioLIB/w5500_host_config.c ****         DHCP_run();
 242              		.loc 1 96 5 is_stmt 1 view .LVU41
  96:ioLIB/w5500_host_config.c ****         DHCP_run();
 243              		.loc 1 96 11 view .LVU42
  96:ioLIB/w5500_host_config.c ****         DHCP_run();
 244              		.loc 1 96 13 is_stmt 0 view .LVU43
 245 0058 2378     		ldrb	r3, [r4]	@ zero_extendqisi2
  96:ioLIB/w5500_host_config.c ****         DHCP_run();
 246              		.loc 1 96 11 view .LVU44
 247 005a 23B9     		cbnz	r3, .L9
 248              	.L10:
ARM GAS  C:\Users\clay0\AppData\Local\Temp\ccWe93NB.s 			page 8


  97:ioLIB/w5500_host_config.c ****     }
 249              		.loc 1 97 9 is_stmt 1 view .LVU45
 250 005c FFF7FEFF 		bl	DHCP_run
 251              	.LVL13:
  96:ioLIB/w5500_host_config.c ****         DHCP_run();
 252              		.loc 1 96 11 view .LVU46
  96:ioLIB/w5500_host_config.c ****         DHCP_run();
 253              		.loc 1 96 13 is_stmt 0 view .LVU47
 254 0060 2378     		ldrb	r3, [r4]	@ zero_extendqisi2
  96:ioLIB/w5500_host_config.c ****         DHCP_run();
 255              		.loc 1 96 11 view .LVU48
 256 0062 002B     		cmp	r3, #0
 257 0064 FAD0     		beq	.L10
 258              	.L9:
 101:ioLIB/w5500_host_config.c ****     getGWfromDHCP(net_info.gw);
 259              		.loc 1 101 5 is_stmt 1 view .LVU49
 260 0066 0DF10600 		add	r0, sp, #6
 261 006a FFF7FEFF 		bl	getIPfromDHCP
 262              	.LVL14:
 102:ioLIB/w5500_host_config.c ****     getSNfromDHCP(net_info.sn);
 263              		.loc 1 102 5 view .LVU50
 264 006e 0DF10E00 		add	r0, sp, #14
 265 0072 FFF7FEFF 		bl	getGWfromDHCP
 266              	.LVL15:
 103:ioLIB/w5500_host_config.c ****     getDNSfromDHCP(net_info.dns);
 267              		.loc 1 103 5 view .LVU51
 268 0076 0DF10A00 		add	r0, sp, #10
 269 007a FFF7FEFF 		bl	getSNfromDHCP
 270              	.LVL16:
 104:ioLIB/w5500_host_config.c **** 
 271              		.loc 1 104 5 view .LVU52
 272 007e 0DF11200 		add	r0, sp, #18
 273 0082 FFF7FEFF 		bl	getDNSfromDHCP
 274              	.LVL17:
 107:ioLIB/w5500_host_config.c **** 
 275              		.loc 1 107 5 view .LVU53
 276 0086 6846     		mov	r0, sp
 277 0088 FFF7FEFF 		bl	wizchip_setnetinfo
 278              	.LVL18:
 110:ioLIB/w5500_host_config.c **** 
 279              		.loc 1 110 1 is_stmt 0 view .LVU54
 280 008c 0DF5836D 		add	sp, sp, #1048
 281              	.LCFI5:
 282              		.cfi_def_cfa_offset 8
 283              		@ sp needed
 284 0090 10BD     		pop	{r4, pc}
 285              	.L15:
 286 0092 00BF     		.align	2
 287              	.L14:
 288 0094 00000000 		.word	_impure_ptr
 289 0098 00000000 		.word	callback_ip_assigned
 290 009c 00000000 		.word	.LANCHOR0
 291 00a0 00000000 		.word	callback_ip_conflict
 292              		.cfi_endproc
 293              	.LFE136:
 295              		.section	.text.callback_ip_renewed,"ax",%progbits
 296              		.align	1
ARM GAS  C:\Users\clay0\AppData\Local\Temp\ccWe93NB.s 			page 9


 297              		.p2align 2,,3
 298              		.global	callback_ip_renewed
 299              		.syntax unified
 300              		.thumb
 301              		.thumb_func
 303              	callback_ip_renewed:
 304              	.LFB138:
 118:ioLIB/w5500_host_config.c **** 
 119:ioLIB/w5500_host_config.c **** void callback_ip_renewed()
 120:ioLIB/w5500_host_config.c **** {
 305              		.loc 1 120 1 is_stmt 1 view -0
 306              		.cfi_startproc
 307              		@ args = 0, pretend = 0, frame = 0
 308              		@ frame_needed = 0, uses_anonymous_args = 0
 309              		@ link register save eliminated.
 121:ioLIB/w5500_host_config.c ****     // printf("DHCP: IP renewed\n");
 122:ioLIB/w5500_host_config.c **** }
 310              		.loc 1 122 1 view .LVU56
 311 0000 7047     		bx	lr
 312              		.cfi_endproc
 313              	.LFE138:
 315              		.global	ip_assigned
 316 0002 00BF     		.section	.bss.ip_assigned,"aw",%nobits
 317              		.set	.LANCHOR0,. + 0
 320              	ip_assigned:
 321 0000 00       		.space	1
 322              		.text
 323              	.Letext0:
 324              		.file 2 "d:\\gcc arm\\10 2021.10\\arm-none-eabi\\include\\machine\\_default_types.h"
 325              		.file 3 "d:\\gcc arm\\10 2021.10\\lib\\gcc\\arm-none-eabi\\10.3.1\\include\\stddef.h"
 326              		.file 4 "d:\\gcc arm\\10 2021.10\\arm-none-eabi\\include\\sys\\_types.h"
 327              		.file 5 "d:\\gcc arm\\10 2021.10\\arm-none-eabi\\include\\sys\\reent.h"
 328              		.file 6 "d:\\gcc arm\\10 2021.10\\arm-none-eabi\\include\\sys\\lock.h"
 329              		.file 7 "d:\\gcc arm\\10 2021.10\\arm-none-eabi\\include\\sys\\_stdint.h"
 330              		.file 8 "ioLIB/wizchip_conf.h"
 331              		.file 9 "d:\\gcc arm\\10 2021.10\\arm-none-eabi\\include\\stdio.h"
 332              		.file 10 "ioLIB/W5500/w5500.h"
 333              		.file 11 "ioLIB/dhcp.h"
ARM GAS  C:\Users\clay0\AppData\Local\Temp\ccWe93NB.s 			page 10

