ARM GAS  C:\Users\clay0\AppData\Local\Temp\ccYT8U8W.s 			page 1


   1              		.cpu cortex-m4
   2              		.arch armv7e-m
   3              		.fpu fpv4-sp-d16
   4              		.eabi_attribute 27, 1
   5              		.eabi_attribute 28, 1
   6              		.eabi_attribute 20, 1
   7              		.eabi_attribute 21, 1
   8              		.eabi_attribute 23, 3
   9              		.eabi_attribute 24, 1
  10              		.eabi_attribute 25, 1
  11              		.eabi_attribute 26, 1
  12              		.eabi_attribute 30, 2
  13              		.eabi_attribute 34, 1
  14              		.eabi_attribute 18, 4
  15              		.file	"w5500_phy.c"
  16              		.text
  17              	.Ltext0:
  18              		.cfi_sections	.debug_frame
  19              		.section	.rodata.check_cable_presence.str1.4,"aMS",%progbits,1
  20              		.align	2
  21              	.LC0:
  22 0000 0D0A4368 		.ascii	"\015\012Checking ethernet cable presence ...\015\000"
  22      65636B69 
  22      6E672065 
  22      74686572 
  22      6E657420 
  23              		.align	2
  24              	.LC1:
  25 0028 4661696C 		.ascii	"Failed to get PHY link info.\015\012Trying again..."
  25      65642074 
  25      6F206765 
  25      74205048 
  25      59206C69 
  26 0055 0D00     		.ascii	"\015\000"
  27 0057 00       		.align	2
  28              	.LC2:
  29 0058 4361626C 		.ascii	"Cable is connected.\015\000"
  29      65206973 
  29      20636F6E 
  29      6E656374 
  29      65642E0D 
  30 006d 000000   		.align	2
  31              	.LC3:
  32 0070 4361626C 		.ascii	"Cable is not connected.\015\000"
  32      65206973 
  32      206E6F74 
  32      20636F6E 
  32      6E656374 
  33              		.section	.text.check_cable_presence,"ax",%progbits
  34              		.align	1
  35              		.p2align 2,,3
  36              		.global	check_cable_presence
  37              		.syntax unified
  38              		.thumb
  39              		.thumb_func
  41              	check_cable_presence:
  42              	.LFB3:
ARM GAS  C:\Users\clay0\AppData\Local\Temp\ccYT8U8W.s 			page 2


  43              		.file 1 "ioLIB/w5500_phy.c"
   1:ioLIB/w5500_phy.c **** /*
   2:ioLIB/w5500_phy.c ****  * w5500_phy.c
   3:ioLIB/w5500_phy.c ****  *
   4:ioLIB/w5500_phy.c ****  *  Created on: Jul 16, 2024
   5:ioLIB/w5500_phy.c ****  *      Author: mahyar
   6:ioLIB/w5500_phy.c ****  */
   7:ioLIB/w5500_phy.c **** #include <stdint.h>
   8:ioLIB/w5500_phy.c **** #include <stdio.h>
   9:ioLIB/w5500_phy.c **** #include "wizchip_conf.h"
  10:ioLIB/w5500_phy.c **** // #include "stm32f4xx_hal.h"
  11:ioLIB/w5500_phy.c **** #include "clock.h"
  12:ioLIB/w5500_phy.c **** #include "w5500_phy.h"
  13:ioLIB/w5500_phy.c **** 
  14:ioLIB/w5500_phy.c **** /**
  15:ioLIB/w5500_phy.c ****  * @brief Checks the presence of an Ethernet cable.
  16:ioLIB/w5500_phy.c ****  *
  17:ioLIB/w5500_phy.c ****  * This function continuously checks the status of the PHY link until the Ethernet cable is connect
  18:ioLIB/w5500_phy.c ****  *
  19:ioLIB/w5500_phy.c ****  * @return void
  20:ioLIB/w5500_phy.c ****  */
  21:ioLIB/w5500_phy.c **** void check_cable_presence() {
  44              		.loc 1 21 29 view -0
  45              		.cfi_startproc
  46              		@ args = 0, pretend = 0, frame = 8
  47              		@ frame_needed = 0, uses_anonymous_args = 0
  22:ioLIB/w5500_phy.c ****     uint8_t phy_status;
  48              		.loc 1 22 5 view .LVU1
  23:ioLIB/w5500_phy.c ****     int error_status;
  49              		.loc 1 23 5 view .LVU2
  24:ioLIB/w5500_phy.c **** 
  25:ioLIB/w5500_phy.c ****     printf("\r\nChecking ethernet cable presence ...\r\n");
  50              		.loc 1 25 5 view .LVU3
  21:ioLIB/w5500_phy.c ****     uint8_t phy_status;
  51              		.loc 1 21 29 is_stmt 0 view .LVU4
  52 0000 30B5     		push	{r4, r5, lr}
  53              	.LCFI0:
  54              		.cfi_def_cfa_offset 12
  55              		.cfi_offset 4, -12
  56              		.cfi_offset 5, -8
  57              		.cfi_offset 14, -4
  58              		.loc 1 25 5 view .LVU5
  59 0002 1248     		ldr	r0, .L14
  26:ioLIB/w5500_phy.c **** 
  27:ioLIB/w5500_phy.c ****     do {
  28:ioLIB/w5500_phy.c ****         // Get the PHY link status
  29:ioLIB/w5500_phy.c ****         error_status = ctlwizchip(CW_GET_PHYLINK, (void*)&phy_status);
  30:ioLIB/w5500_phy.c **** 
  31:ioLIB/w5500_phy.c ****         if (error_status == -1) {
  32:ioLIB/w5500_phy.c ****             printf("Failed to get PHY link info.\r\nTrying again...\r\n");
  33:ioLIB/w5500_phy.c ****             continue;
  34:ioLIB/w5500_phy.c ****         }
  35:ioLIB/w5500_phy.c **** 
  36:ioLIB/w5500_phy.c ****         // Check if the cable is not connected
  37:ioLIB/w5500_phy.c ****         if (phy_status == PHY_LINK_OFF) {
  38:ioLIB/w5500_phy.c ****             printf("Cable is not connected.\r\n");
  60              		.loc 1 38 13 view .LVU6
ARM GAS  C:\Users\clay0\AppData\Local\Temp\ccYT8U8W.s 			page 3


  61 0004 124C     		ldr	r4, .L14+4
  32:ioLIB/w5500_phy.c ****             continue;
  62              		.loc 1 32 13 view .LVU7
  63 0006 134D     		ldr	r5, .L14+8
  21:ioLIB/w5500_phy.c ****     uint8_t phy_status;
  64              		.loc 1 21 29 view .LVU8
  65 0008 83B0     		sub	sp, sp, #12
  66              	.LCFI1:
  67              		.cfi_def_cfa_offset 24
  25:ioLIB/w5500_phy.c **** 
  68              		.loc 1 25 5 view .LVU9
  69 000a FFF7FEFF 		bl	puts
  70              	.LVL0:
  71              	.L2:
  27:ioLIB/w5500_phy.c ****         // Get the PHY link status
  72              		.loc 1 27 5 is_stmt 1 view .LVU10
  29:ioLIB/w5500_phy.c **** 
  73              		.loc 1 29 9 view .LVU11
  29:ioLIB/w5500_phy.c **** 
  74              		.loc 1 29 24 is_stmt 0 view .LVU12
  75 000e 0DF10701 		add	r1, sp, #7
  76 0012 0F20     		movs	r0, #15
  77 0014 FFF7FEFF 		bl	ctlwizchip
  78              	.LVL1:
  37:ioLIB/w5500_phy.c ****             printf("Cable is not connected.\r\n");
  79              		.loc 1 37 9 is_stmt 1 view .LVU13
  31:ioLIB/w5500_phy.c ****             printf("Failed to get PHY link info.\r\nTrying again...\r\n");
  80              		.loc 1 31 9 view .LVU14
  31:ioLIB/w5500_phy.c ****             printf("Failed to get PHY link info.\r\nTrying again...\r\n");
  81              		.loc 1 31 12 is_stmt 0 view .LVU15
  82 0018 0130     		adds	r0, r0, #1
  83              	.LVL2:
  31:ioLIB/w5500_phy.c ****             printf("Failed to get PHY link info.\r\nTrying again...\r\n");
  84              		.loc 1 31 12 view .LVU16
  85 001a 13D0     		beq	.L13
  37:ioLIB/w5500_phy.c ****             printf("Cable is not connected.\r\n");
  86              		.loc 1 37 12 view .LVU17
  87 001c 9DF80730 		ldrb	r3, [sp, #7]	@ zero_extendqisi2
  88 0020 23B1     		cbz	r3, .L5
  89              	.L6:
  39:ioLIB/w5500_phy.c ****             delay_ms(1500);
  40:ioLIB/w5500_phy.c ****         }
  41:ioLIB/w5500_phy.c ****     } while (error_status == -1 || phy_status == PHY_LINK_OFF);
  42:ioLIB/w5500_phy.c **** 
  43:ioLIB/w5500_phy.c ****     printf("Cable is connected.\r\n");
  90              		.loc 1 43 5 is_stmt 1 view .LVU18
  91 0022 0D48     		ldr	r0, .L14+12
  92 0024 FFF7FEFF 		bl	puts
  93              	.LVL3:
  44:ioLIB/w5500_phy.c **** }
  94              		.loc 1 44 1 is_stmt 0 view .LVU19
  95 0028 03B0     		add	sp, sp, #12
  96              	.LCFI2:
  97              		.cfi_remember_state
  98              		.cfi_def_cfa_offset 12
  99              		@ sp needed
 100 002a 30BD     		pop	{r4, r5, pc}
ARM GAS  C:\Users\clay0\AppData\Local\Temp\ccYT8U8W.s 			page 4


 101              	.L5:
 102              	.LCFI3:
 103              		.cfi_restore_state
  38:ioLIB/w5500_phy.c ****             delay_ms(1500);
 104              		.loc 1 38 13 is_stmt 1 view .LVU20
 105 002c 2046     		mov	r0, r4
 106 002e FFF7FEFF 		bl	puts
 107              	.LVL4:
  39:ioLIB/w5500_phy.c ****             delay_ms(1500);
 108              		.loc 1 39 13 view .LVU21
 109 0032 40F2DC50 		movw	r0, #1500
 110 0036 FFF7FEFF 		bl	delay_ms
 111              	.LVL5:
  41:ioLIB/w5500_phy.c **** 
 112              		.loc 1 41 13 view .LVU22
  41:ioLIB/w5500_phy.c **** 
 113              		.loc 1 41 33 is_stmt 0 view .LVU23
 114 003a 9DF80730 		ldrb	r3, [sp, #7]	@ zero_extendqisi2
 115 003e 002B     		cmp	r3, #0
 116 0040 E5D0     		beq	.L2
 117 0042 EEE7     		b	.L6
 118              	.L13:
  32:ioLIB/w5500_phy.c ****             continue;
 119              		.loc 1 32 13 is_stmt 1 view .LVU24
 120 0044 2846     		mov	r0, r5
 121 0046 FFF7FEFF 		bl	puts
 122              	.LVL6:
  33:ioLIB/w5500_phy.c ****         }
 123              		.loc 1 33 13 view .LVU25
  41:ioLIB/w5500_phy.c **** 
 124              		.loc 1 41 13 view .LVU26
 125 004a E0E7     		b	.L2
 126              	.L15:
 127              		.align	2
 128              	.L14:
 129 004c 00000000 		.word	.LC0
 130 0050 70000000 		.word	.LC3
 131 0054 28000000 		.word	.LC1
 132 0058 58000000 		.word	.LC2
 133              		.cfi_endproc
 134              	.LFE3:
 136              		.section	.rodata.check_phy_status.str1.4,"aMS",%progbits,1
 137              		.align	2
 138              	.LC4:
 139 0000 4661696C 		.ascii	"Failed to get PHY link status.\015\000"
 139      65642074 
 139      6F206765 
 139      74205048 
 139      59206C69 
 140              		.align	2
 141              	.LC5:
 142 0020 50485920 		.ascii	"PHY Link is ON.\015\000"
 142      4C696E6B 
 142      20697320 
 142      4F4E2E0D 
 142      00
 143 0031 000000   		.align	2
ARM GAS  C:\Users\clay0\AppData\Local\Temp\ccYT8U8W.s 			page 5


 144              	.LC6:
 145 0034 50485920 		.ascii	"PHY Link is OFF.\015\000"
 145      4C696E6B 
 145      20697320 
 145      4F46462E 
 145      0D00
 146 0046 0000     		.align	2
 147              	.LC7:
 148 0048 4661696C 		.ascii	"Failed to get PHY configuration.\015\000"
 148      65642074 
 148      6F206765 
 148      74205048 
 148      5920636F 
 149 006a 0000     		.align	2
 150              	.LC8:
 151 006c 50485920 		.ascii	"PHY Mode: \000"
 151      4D6F6465 
 151      3A2000
 152 0077 00       		.align	2
 153              	.LC9:
 154 0078 436F6E66 		.ascii	"Configured by hardware.\015\000"
 154      69677572 
 154      65642062 
 154      79206861 
 154      72647761 
 155 0091 000000   		.align	2
 156              	.LC10:
 157 0094 436F6E66 		.ascii	"Configured by software.\015\000"
 157      69677572 
 157      65642062 
 157      7920736F 
 157      66747761 
 158 00ad 000000   		.align	2
 159              	.LC11:
 160 00b0 556E6B6E 		.ascii	"Unknown.\015\000"
 160      6F776E2E 
 160      0D00
 161 00ba 0000     		.align	2
 162              	.LC12:
 163 00bc 50485920 		.ascii	"PHY Speed: \000"
 163      53706565 
 163      643A2000 
 164              		.align	2
 165              	.LC13:
 166 00c8 3130204D 		.ascii	"10 Mbps.\015\000"
 166      6270732E 
 166      0D00
 167 00d2 0000     		.align	2
 168              	.LC14:
 169 00d4 31303020 		.ascii	"100 Mbps.\015\000"
 169      4D627073 
 169      2E0D00
 170 00df 00       		.align	2
 171              	.LC15:
 172 00e0 50485920 		.ascii	"PHY Duplex: \000"
 172      4475706C 
 172      65783A20 
ARM GAS  C:\Users\clay0\AppData\Local\Temp\ccYT8U8W.s 			page 6


 172      00
 173 00ed 000000   		.align	2
 174              	.LC16:
 175 00f0 48616C66 		.ascii	"Half duplex.\015\000"
 175      20647570 
 175      6C65782E 
 175      0D00
 176 00fe 0000     		.align	2
 177              	.LC17:
 178 0100 46756C6C 		.ascii	"Full duplex.\015\000"
 178      20647570 
 178      6C65782E 
 178      0D00
 179 010e 0000     		.align	2
 180              	.LC18:
 181 0110 50485920 		.ascii	"PHY Negotiation Mode: \000"
 181      4E65676F 
 181      74696174 
 181      696F6E20 
 181      4D6F6465 
 182 0127 00       		.align	2
 183              	.LC19:
 184 0128 4D616E75 		.ascii	"Manual.\015\000"
 184      616C2E0D 
 184      00
 185 0131 000000   		.align	2
 186              	.LC20:
 187 0134 4175746F 		.ascii	"Auto-negotiation.\015\000"
 187      2D6E6567 
 187      6F746961 
 187      74696F6E 
 187      2E0D00
 188              		.section	.text.check_phy_status,"ax",%progbits
 189              		.align	1
 190              		.p2align 2,,3
 191              		.global	check_phy_status
 192              		.syntax unified
 193              		.thumb
 194              		.thumb_func
 196              	check_phy_status:
 197              	.LFB4:
  45:ioLIB/w5500_phy.c **** 
  46:ioLIB/w5500_phy.c **** /**
  47:ioLIB/w5500_phy.c ****  * @brief Checks and prints the PHY status and configuration.
  48:ioLIB/w5500_phy.c ****  *
  49:ioLIB/w5500_phy.c ****  * This function retrieves and prints the PHY link status and configuration, including mode, speed,
  50:ioLIB/w5500_phy.c ****  *
  51:ioLIB/w5500_phy.c ****  * @return void
  52:ioLIB/w5500_phy.c ****  */
  53:ioLIB/w5500_phy.c **** void check_phy_status() {
 198              		.loc 1 53 25 view -0
 199              		.cfi_startproc
 200              		@ args = 0, pretend = 0, frame = 8
 201              		@ frame_needed = 0, uses_anonymous_args = 0
  54:ioLIB/w5500_phy.c ****     uint8_t phy_status;
 202              		.loc 1 54 5 view .LVU28
  55:ioLIB/w5500_phy.c **** 
ARM GAS  C:\Users\clay0\AppData\Local\Temp\ccYT8U8W.s 			page 7


  56:ioLIB/w5500_phy.c ****     // Get the PHY link status
  57:ioLIB/w5500_phy.c ****     if (ctlwizchip(CW_GET_PHYLINK, (void*)&phy_status) == -1) {
 203              		.loc 1 57 5 view .LVU29
  53:ioLIB/w5500_phy.c ****     uint8_t phy_status;
 204              		.loc 1 53 25 is_stmt 0 view .LVU30
 205 0000 00B5     		push	{lr}
 206              	.LCFI4:
 207              		.cfi_def_cfa_offset 4
 208              		.cfi_offset 14, -4
 209 0002 83B0     		sub	sp, sp, #12
 210              	.LCFI5:
 211              		.cfi_def_cfa_offset 16
 212              		.loc 1 57 9 view .LVU31
 213 0004 0DF10301 		add	r1, sp, #3
 214 0008 0F20     		movs	r0, #15
 215 000a FFF7FEFF 		bl	ctlwizchip
 216              	.LVL7:
 217              		.loc 1 57 8 view .LVU32
 218 000e 0130     		adds	r0, r0, #1
 219 0010 79D0     		beq	.L42
  58:ioLIB/w5500_phy.c ****         printf("Failed to get PHY link status.\r\n");
  59:ioLIB/w5500_phy.c ****         return;
  60:ioLIB/w5500_phy.c ****     }
  61:ioLIB/w5500_phy.c **** 
  62:ioLIB/w5500_phy.c ****     // Print the PHY link status
  63:ioLIB/w5500_phy.c ****     if (phy_status == PHY_LINK_ON) {
 220              		.loc 1 63 5 is_stmt 1 view .LVU33
 221              		.loc 1 63 8 is_stmt 0 view .LVU34
 222 0012 9DF80330 		ldrb	r3, [sp, #3]	@ zero_extendqisi2
 223 0016 012B     		cmp	r3, #1
  64:ioLIB/w5500_phy.c ****         printf("PHY Link is ON.\r\n");
 224              		.loc 1 64 9 is_stmt 1 view .LVU35
 225 0018 0CBF     		ite	eq
 226 001a 3E48     		ldreq	r0, .L48
  65:ioLIB/w5500_phy.c ****     } else {
  66:ioLIB/w5500_phy.c ****         printf("PHY Link is OFF.\r\n");
 227              		.loc 1 66 9 view .LVU36
 228 001c 3E48     		ldrne	r0, .L48+4
 229 001e FFF7FEFF 		bl	puts
 230              	.LVL8:
  67:ioLIB/w5500_phy.c ****     }
  68:ioLIB/w5500_phy.c **** 
  69:ioLIB/w5500_phy.c ****     // Get the PHY configuration (optional, for more detailed information)
  70:ioLIB/w5500_phy.c ****     wiz_PhyConf phy_conf;
 231              		.loc 1 70 5 view .LVU37
  71:ioLIB/w5500_phy.c ****     if (ctlwizchip(CW_GET_PHYCONF, (void*)&phy_conf) == -1) {
 232              		.loc 1 71 5 view .LVU38
 233              		.loc 1 71 9 is_stmt 0 view .LVU39
 234 0022 01A9     		add	r1, sp, #4
 235 0024 0B20     		movs	r0, #11
 236 0026 FFF7FEFF 		bl	ctlwizchip
 237              	.LVL9:
 238              		.loc 1 71 8 view .LVU40
 239 002a 0130     		adds	r0, r0, #1
 240 002c 65D0     		beq	.L43
  72:ioLIB/w5500_phy.c ****         printf("Failed to get PHY configuration.\r\n");
  73:ioLIB/w5500_phy.c ****         return;
ARM GAS  C:\Users\clay0\AppData\Local\Temp\ccYT8U8W.s 			page 8


  74:ioLIB/w5500_phy.c ****     }
  75:ioLIB/w5500_phy.c **** 
  76:ioLIB/w5500_phy.c ****     // Print the PHY configuration
  77:ioLIB/w5500_phy.c ****     printf("PHY Mode: ");
 241              		.loc 1 77 5 is_stmt 1 view .LVU41
 242 002e 3B48     		ldr	r0, .L48+8
 243 0030 FFF7FEFF 		bl	printf
 244              	.LVL10:
  78:ioLIB/w5500_phy.c ****     switch (phy_conf.by) {
 245              		.loc 1 78 5 view .LVU42
 246              		.loc 1 78 21 is_stmt 0 view .LVU43
 247 0034 9DF80430 		ldrb	r3, [sp, #4]	@ zero_extendqisi2
 248              		.loc 1 78 5 view .LVU44
 249 0038 002B     		cmp	r3, #0
 250 003a 4CD0     		beq	.L22
 251 003c 012B     		cmp	r3, #1
 252 003e 26D1     		bne	.L44
  79:ioLIB/w5500_phy.c ****         case PHY_CONFBY_HW:
  80:ioLIB/w5500_phy.c ****             printf("Configured by hardware.\r\n");
  81:ioLIB/w5500_phy.c ****             break;
  82:ioLIB/w5500_phy.c ****         case PHY_CONFBY_SW:
  83:ioLIB/w5500_phy.c ****             printf("Configured by software.\r\n");
 253              		.loc 1 83 13 is_stmt 1 view .LVU45
 254 0040 3748     		ldr	r0, .L48+12
 255 0042 FFF7FEFF 		bl	puts
 256              	.LVL11:
  84:ioLIB/w5500_phy.c ****             break;
 257              		.loc 1 84 13 view .LVU46
 258              	.L25:
  85:ioLIB/w5500_phy.c ****         default:
  86:ioLIB/w5500_phy.c ****             printf("Unknown.\r\n");
  87:ioLIB/w5500_phy.c ****             break;
  88:ioLIB/w5500_phy.c ****     }
  89:ioLIB/w5500_phy.c **** 
  90:ioLIB/w5500_phy.c ****     printf("PHY Speed: ");
 259              		.loc 1 90 5 view .LVU47
 260 0046 3748     		ldr	r0, .L48+16
 261 0048 FFF7FEFF 		bl	printf
 262              	.LVL12:
  91:ioLIB/w5500_phy.c ****     switch (phy_conf.speed) {
 263              		.loc 1 91 5 view .LVU48
 264              		.loc 1 91 21 is_stmt 0 view .LVU49
 265 004c 9DF80630 		ldrb	r3, [sp, #6]	@ zero_extendqisi2
 266              		.loc 1 91 5 view .LVU50
 267 0050 3BB3     		cbz	r3, .L26
 268              	.L45:
 269 0052 012B     		cmp	r3, #1
 270 0054 4DD0     		beq	.L27
  92:ioLIB/w5500_phy.c ****         case PHY_SPEED_10:
  93:ioLIB/w5500_phy.c ****             printf("10 Mbps.\r\n");
  94:ioLIB/w5500_phy.c ****             break;
  95:ioLIB/w5500_phy.c ****         case PHY_SPEED_100:
  96:ioLIB/w5500_phy.c ****             printf("100 Mbps.\r\n");
  97:ioLIB/w5500_phy.c ****             break;
  98:ioLIB/w5500_phy.c ****         default:
  99:ioLIB/w5500_phy.c ****             printf("Unknown.\r\n");
 271              		.loc 1 99 13 is_stmt 1 view .LVU51
ARM GAS  C:\Users\clay0\AppData\Local\Temp\ccYT8U8W.s 			page 9


 272 0056 3448     		ldr	r0, .L48+20
 273 0058 FFF7FEFF 		bl	puts
 274              	.LVL13:
 100:ioLIB/w5500_phy.c ****             break;
 275              		.loc 1 100 13 view .LVU52
 276              	.L29:
 101:ioLIB/w5500_phy.c ****     }
 102:ioLIB/w5500_phy.c **** 
 103:ioLIB/w5500_phy.c ****     printf("PHY Duplex: ");
 277              		.loc 1 103 5 view .LVU53
 278 005c 3348     		ldr	r0, .L48+24
 279 005e FFF7FEFF 		bl	printf
 280              	.LVL14:
 104:ioLIB/w5500_phy.c ****     switch (phy_conf.duplex) {
 281              		.loc 1 104 5 view .LVU54
 282              		.loc 1 104 21 is_stmt 0 view .LVU55
 283 0062 9DF80730 		ldrb	r3, [sp, #7]	@ zero_extendqisi2
 284              		.loc 1 104 5 view .LVU56
 285 0066 33B3     		cbz	r3, .L30
 286              	.L46:
 287 0068 012B     		cmp	r3, #1
 288 006a 3ED0     		beq	.L31
 105:ioLIB/w5500_phy.c ****         case PHY_DUPLEX_HALF:
 106:ioLIB/w5500_phy.c ****             printf("Half duplex.\r\n");
 107:ioLIB/w5500_phy.c ****             break;
 108:ioLIB/w5500_phy.c ****         case PHY_DUPLEX_FULL:
 109:ioLIB/w5500_phy.c ****             printf("Full duplex.\r\n");
 110:ioLIB/w5500_phy.c ****             break;
 111:ioLIB/w5500_phy.c ****         default:
 112:ioLIB/w5500_phy.c ****             printf("Unknown.\r\n");
 289              		.loc 1 112 13 is_stmt 1 view .LVU57
 290 006c 2E48     		ldr	r0, .L48+20
 291 006e FFF7FEFF 		bl	puts
 292              	.LVL15:
 113:ioLIB/w5500_phy.c ****             break;
 293              		.loc 1 113 13 view .LVU58
 294              	.L33:
 114:ioLIB/w5500_phy.c ****     }
 115:ioLIB/w5500_phy.c **** 
 116:ioLIB/w5500_phy.c ****     // Print the PHY negotiation mode
 117:ioLIB/w5500_phy.c ****     printf("PHY Negotiation Mode: ");
 295              		.loc 1 117 5 view .LVU59
 296 0072 2F48     		ldr	r0, .L48+28
 297 0074 FFF7FEFF 		bl	printf
 298              	.LVL16:
 118:ioLIB/w5500_phy.c ****     switch (phy_conf.mode) {
 299              		.loc 1 118 5 view .LVU60
 300              		.loc 1 118 21 is_stmt 0 view .LVU61
 301 0078 9DF80530 		ldrb	r3, [sp, #5]	@ zero_extendqisi2
 302              		.loc 1 118 5 view .LVU62
 303 007c 2BB3     		cbz	r3, .L34
 304              	.L47:
 305 007e 012B     		cmp	r3, #1
 306 0080 2DD0     		beq	.L35
 119:ioLIB/w5500_phy.c ****         case PHY_MODE_MANUAL:
 120:ioLIB/w5500_phy.c ****             printf("Manual.\r\n");
 121:ioLIB/w5500_phy.c ****             break;
ARM GAS  C:\Users\clay0\AppData\Local\Temp\ccYT8U8W.s 			page 10


 122:ioLIB/w5500_phy.c ****         case PHY_MODE_AUTONEGO:
 123:ioLIB/w5500_phy.c ****             printf("Auto-negotiation.\r\n");
 124:ioLIB/w5500_phy.c ****             break;
 125:ioLIB/w5500_phy.c ****         default:
 126:ioLIB/w5500_phy.c ****             printf("Unknown.\r\n");
 307              		.loc 1 126 13 is_stmt 1 view .LVU63
 308 0082 2948     		ldr	r0, .L48+20
 309 0084 FFF7FEFF 		bl	puts
 310              	.LVL17:
 127:ioLIB/w5500_phy.c ****             break;
 311              		.loc 1 127 13 view .LVU64
 128:ioLIB/w5500_phy.c ****     }
 129:ioLIB/w5500_phy.c **** }
 312              		.loc 1 129 1 is_stmt 0 view .LVU65
 313 0088 03B0     		add	sp, sp, #12
 314              	.LCFI6:
 315              		.cfi_remember_state
 316              		.cfi_def_cfa_offset 4
 317              		@ sp needed
 318 008a 5DF804FB 		ldr	pc, [sp], #4
 319              	.L44:
 320              	.LCFI7:
 321              		.cfi_restore_state
  86:ioLIB/w5500_phy.c ****             break;
 322              		.loc 1 86 13 is_stmt 1 view .LVU66
 323 008e 2648     		ldr	r0, .L48+20
 324 0090 FFF7FEFF 		bl	puts
 325              	.LVL18:
  87:ioLIB/w5500_phy.c ****     }
 326              		.loc 1 87 13 view .LVU67
  90:ioLIB/w5500_phy.c ****     switch (phy_conf.speed) {
 327              		.loc 1 90 5 view .LVU68
 328 0094 2348     		ldr	r0, .L48+16
 329 0096 FFF7FEFF 		bl	printf
 330              	.LVL19:
  91:ioLIB/w5500_phy.c ****         case PHY_SPEED_10:
 331              		.loc 1 91 5 view .LVU69
  91:ioLIB/w5500_phy.c ****         case PHY_SPEED_10:
 332              		.loc 1 91 21 is_stmt 0 view .LVU70
 333 009a 9DF80630 		ldrb	r3, [sp, #6]	@ zero_extendqisi2
  91:ioLIB/w5500_phy.c ****         case PHY_SPEED_10:
 334              		.loc 1 91 5 view .LVU71
 335 009e 002B     		cmp	r3, #0
 336 00a0 D7D1     		bne	.L45
 337              	.L26:
  93:ioLIB/w5500_phy.c ****             break;
 338              		.loc 1 93 13 is_stmt 1 view .LVU72
 339 00a2 2448     		ldr	r0, .L48+32
 340 00a4 FFF7FEFF 		bl	puts
 341              	.LVL20:
  94:ioLIB/w5500_phy.c ****         case PHY_SPEED_100:
 342              		.loc 1 94 13 view .LVU73
 103:ioLIB/w5500_phy.c ****     switch (phy_conf.duplex) {
 343              		.loc 1 103 5 view .LVU74
 344 00a8 2048     		ldr	r0, .L48+24
 345 00aa FFF7FEFF 		bl	printf
 346              	.LVL21:
ARM GAS  C:\Users\clay0\AppData\Local\Temp\ccYT8U8W.s 			page 11


 104:ioLIB/w5500_phy.c ****         case PHY_DUPLEX_HALF:
 347              		.loc 1 104 5 view .LVU75
 104:ioLIB/w5500_phy.c ****         case PHY_DUPLEX_HALF:
 348              		.loc 1 104 21 is_stmt 0 view .LVU76
 349 00ae 9DF80730 		ldrb	r3, [sp, #7]	@ zero_extendqisi2
 104:ioLIB/w5500_phy.c ****         case PHY_DUPLEX_HALF:
 350              		.loc 1 104 5 view .LVU77
 351 00b2 002B     		cmp	r3, #0
 352 00b4 D8D1     		bne	.L46
 353              	.L30:
 106:ioLIB/w5500_phy.c ****             break;
 354              		.loc 1 106 13 is_stmt 1 view .LVU78
 355 00b6 2048     		ldr	r0, .L48+36
 356 00b8 FFF7FEFF 		bl	puts
 357              	.LVL22:
 107:ioLIB/w5500_phy.c ****         case PHY_DUPLEX_FULL:
 358              		.loc 1 107 13 view .LVU79
 117:ioLIB/w5500_phy.c ****     switch (phy_conf.mode) {
 359              		.loc 1 117 5 view .LVU80
 360 00bc 1C48     		ldr	r0, .L48+28
 361 00be FFF7FEFF 		bl	printf
 362              	.LVL23:
 118:ioLIB/w5500_phy.c ****         case PHY_MODE_MANUAL:
 363              		.loc 1 118 5 view .LVU81
 118:ioLIB/w5500_phy.c ****         case PHY_MODE_MANUAL:
 364              		.loc 1 118 21 is_stmt 0 view .LVU82
 365 00c2 9DF80530 		ldrb	r3, [sp, #5]	@ zero_extendqisi2
 118:ioLIB/w5500_phy.c ****         case PHY_MODE_MANUAL:
 366              		.loc 1 118 5 view .LVU83
 367 00c6 002B     		cmp	r3, #0
 368 00c8 D9D1     		bne	.L47
 369              	.L34:
 120:ioLIB/w5500_phy.c ****             break;
 370              		.loc 1 120 13 is_stmt 1 view .LVU84
 371 00ca 1C48     		ldr	r0, .L48+40
 372 00cc FFF7FEFF 		bl	puts
 373              	.LVL24:
 121:ioLIB/w5500_phy.c ****         case PHY_MODE_AUTONEGO:
 374              		.loc 1 121 13 view .LVU85
 375              		.loc 1 129 1 is_stmt 0 view .LVU86
 376 00d0 03B0     		add	sp, sp, #12
 377              	.LCFI8:
 378              		.cfi_remember_state
 379              		.cfi_def_cfa_offset 4
 380              		@ sp needed
 381 00d2 5DF804FB 		ldr	pc, [sp], #4
 382              	.L22:
 383              	.LCFI9:
 384              		.cfi_restore_state
  80:ioLIB/w5500_phy.c ****             break;
 385              		.loc 1 80 13 is_stmt 1 view .LVU87
 386 00d6 1A48     		ldr	r0, .L48+44
 387 00d8 FFF7FEFF 		bl	puts
 388              	.LVL25:
  81:ioLIB/w5500_phy.c ****         case PHY_CONFBY_SW:
 389              		.loc 1 81 13 view .LVU88
 390 00dc B3E7     		b	.L25
ARM GAS  C:\Users\clay0\AppData\Local\Temp\ccYT8U8W.s 			page 12


 391              	.L35:
 123:ioLIB/w5500_phy.c ****             break;
 392              		.loc 1 123 13 view .LVU89
 393 00de 1948     		ldr	r0, .L48+48
 394 00e0 FFF7FEFF 		bl	puts
 395              	.LVL26:
 124:ioLIB/w5500_phy.c ****         default:
 396              		.loc 1 124 13 view .LVU90
 397              		.loc 1 129 1 is_stmt 0 view .LVU91
 398 00e4 03B0     		add	sp, sp, #12
 399              	.LCFI10:
 400              		.cfi_remember_state
 401              		.cfi_def_cfa_offset 4
 402              		@ sp needed
 403 00e6 5DF804FB 		ldr	pc, [sp], #4
 404              	.L31:
 405              	.LCFI11:
 406              		.cfi_restore_state
 109:ioLIB/w5500_phy.c ****             break;
 407              		.loc 1 109 13 is_stmt 1 view .LVU92
 408 00ea 1748     		ldr	r0, .L48+52
 409 00ec FFF7FEFF 		bl	puts
 410              	.LVL27:
 110:ioLIB/w5500_phy.c ****         default:
 411              		.loc 1 110 13 view .LVU93
 412 00f0 BFE7     		b	.L33
 413              	.L27:
  96:ioLIB/w5500_phy.c ****             break;
 414              		.loc 1 96 13 view .LVU94
 415 00f2 1648     		ldr	r0, .L48+56
 416 00f4 FFF7FEFF 		bl	puts
 417              	.LVL28:
  97:ioLIB/w5500_phy.c ****         default:
 418              		.loc 1 97 13 view .LVU95
 419 00f8 B0E7     		b	.L29
 420              	.L43:
  72:ioLIB/w5500_phy.c ****         return;
 421              		.loc 1 72 9 view .LVU96
 422 00fa 1548     		ldr	r0, .L48+60
 423 00fc FFF7FEFF 		bl	puts
 424              	.LVL29:
  73:ioLIB/w5500_phy.c ****     }
 425              		.loc 1 73 9 view .LVU97
 426              		.loc 1 129 1 is_stmt 0 view .LVU98
 427 0100 03B0     		add	sp, sp, #12
 428              	.LCFI12:
 429              		.cfi_remember_state
 430              		.cfi_def_cfa_offset 4
 431              		@ sp needed
 432 0102 5DF804FB 		ldr	pc, [sp], #4
 433              	.L42:
 434              	.LCFI13:
 435              		.cfi_restore_state
  58:ioLIB/w5500_phy.c ****         return;
 436              		.loc 1 58 9 is_stmt 1 view .LVU99
 437 0106 1348     		ldr	r0, .L48+64
 438 0108 FFF7FEFF 		bl	puts
ARM GAS  C:\Users\clay0\AppData\Local\Temp\ccYT8U8W.s 			page 13


 439              	.LVL30:
  59:ioLIB/w5500_phy.c ****     }
 440              		.loc 1 59 9 view .LVU100
 441              		.loc 1 129 1 is_stmt 0 view .LVU101
 442 010c 03B0     		add	sp, sp, #12
 443              	.LCFI14:
 444              		.cfi_def_cfa_offset 4
 445              		@ sp needed
 446 010e 5DF804FB 		ldr	pc, [sp], #4
 447              	.L49:
 448 0112 00BF     		.align	2
 449              	.L48:
 450 0114 20000000 		.word	.LC5
 451 0118 34000000 		.word	.LC6
 452 011c 6C000000 		.word	.LC8
 453 0120 94000000 		.word	.LC10
 454 0124 BC000000 		.word	.LC12
 455 0128 B0000000 		.word	.LC11
 456 012c E0000000 		.word	.LC15
 457 0130 10010000 		.word	.LC18
 458 0134 C8000000 		.word	.LC13
 459 0138 F0000000 		.word	.LC16
 460 013c 28010000 		.word	.LC19
 461 0140 78000000 		.word	.LC9
 462 0144 34010000 		.word	.LC20
 463 0148 00010000 		.word	.LC17
 464 014c D4000000 		.word	.LC14
 465 0150 48000000 		.word	.LC7
 466 0154 00000000 		.word	.LC4
 467              		.cfi_endproc
 468              	.LFE4:
 470              		.section	.rodata.print_current_host_configuration.str1.4,"aMS",%progbits,1
 471              		.align	2
 472              	.LC21:
 473 0000 4D41433A 		.ascii	"MAC: %02X:%02X:%02X:%02X:%02X:%02X\015\012\000"
 473      20253032 
 473      583A2530 
 473      32583A25 
 473      3032583A 
 474 0025 000000   		.align	2
 475              	.LC22:
 476 0028 49503A20 		.ascii	"IP: %d.%d.%d.%d\015\012\000"
 476      25642E25 
 476      642E2564 
 476      2E25640D 
 476      0A00
 477 003a 0000     		.align	2
 478              	.LC23:
 479 003c 534E3A20 		.ascii	"SN: %d.%d.%d.%d\015\012\000"
 479      25642E25 
 479      642E2564 
 479      2E25640D 
 479      0A00
 480 004e 0000     		.align	2
 481              	.LC24:
 482 0050 47573A20 		.ascii	"GW: %d.%d.%d.%d\015\012\000"
 482      25642E25 
ARM GAS  C:\Users\clay0\AppData\Local\Temp\ccYT8U8W.s 			page 14


 482      642E2564 
 482      2E25640D 
 482      0A00
 483 0062 0000     		.align	2
 484              	.LC25:
 485 0064 444E533A 		.ascii	"DNS: %d.%d.%d.%d\015\012\000"
 485      2025642E 
 485      25642E25 
 485      642E2564 
 485      0D0A00
 486              		.section	.text.print_current_host_configuration,"ax",%progbits
 487              		.align	1
 488              		.p2align 2,,3
 489              		.global	print_current_host_configuration
 490              		.syntax unified
 491              		.thumb
 492              		.thumb_func
 494              	print_current_host_configuration:
 495              	.LFB5:
 130:ioLIB/w5500_phy.c **** 
 131:ioLIB/w5500_phy.c **** /**
 132:ioLIB/w5500_phy.c ****  * @brief Prints the current network configuration.
 133:ioLIB/w5500_phy.c ****  *
 134:ioLIB/w5500_phy.c ****  * This function retrieves the current network configuration from the WIZnet chip
 135:ioLIB/w5500_phy.c ****  * and prints the MAC address, IP address, subnet mask, gateway, and DNS server.
 136:ioLIB/w5500_phy.c ****  *
 137:ioLIB/w5500_phy.c ****  * @return void
 138:ioLIB/w5500_phy.c ****  */
 139:ioLIB/w5500_phy.c **** void print_current_host_configuration() {
 496              		.loc 1 139 41 is_stmt 1 view -0
 497              		.cfi_startproc
 498              		@ args = 0, pretend = 0, frame = 24
 499              		@ frame_needed = 0, uses_anonymous_args = 0
 140:ioLIB/w5500_phy.c ****     wiz_NetInfo current_net_info;
 500              		.loc 1 140 5 view .LVU103
 141:ioLIB/w5500_phy.c **** 
 142:ioLIB/w5500_phy.c ****     // Retrieve the current network information from the WIZnet chip
 143:ioLIB/w5500_phy.c ****     ctlnetwork(CN_GET_NETINFO, (void*)&current_net_info);
 501              		.loc 1 143 5 view .LVU104
 139:ioLIB/w5500_phy.c ****     wiz_NetInfo current_net_info;
 502              		.loc 1 139 41 is_stmt 0 view .LVU105
 503 0000 10B5     		push	{r4, lr}
 504              	.LCFI15:
 505              		.cfi_def_cfa_offset 8
 506              		.cfi_offset 4, -8
 507              		.cfi_offset 14, -4
 508 0002 8AB0     		sub	sp, sp, #40
 509              	.LCFI16:
 510              		.cfi_def_cfa_offset 48
 511              		.loc 1 143 5 view .LVU106
 512 0004 04A9     		add	r1, sp, #16
 513 0006 0120     		movs	r0, #1
 514 0008 FFF7FEFF 		bl	ctlnetwork
 515              	.LVL31:
 144:ioLIB/w5500_phy.c **** 
 145:ioLIB/w5500_phy.c ****     // Print the MAC address
 146:ioLIB/w5500_phy.c ****     printf("MAC: %02X:%02X:%02X:%02X:%02X:%02X\r\n",
ARM GAS  C:\Users\clay0\AppData\Local\Temp\ccYT8U8W.s 			page 15


 516              		.loc 1 146 5 is_stmt 1 view .LVU107
 517 000c 9DF81500 		ldrb	r0, [sp, #21]	@ zero_extendqisi2
 518 0010 9DF81410 		ldrb	r1, [sp, #20]	@ zero_extendqisi2
 519 0014 9DF81340 		ldrb	r4, [sp, #19]	@ zero_extendqisi2
 520 0018 9DF81230 		ldrb	r3, [sp, #18]	@ zero_extendqisi2
 521 001c 9DF81120 		ldrb	r2, [sp, #17]	@ zero_extendqisi2
 522 0020 0094     		str	r4, [sp]
 523 0022 CDE90110 		strd	r1, r0, [sp, #4]
 524 0026 9DF81010 		ldrb	r1, [sp, #16]	@ zero_extendqisi2
 525 002a 1A48     		ldr	r0, .L52
 526 002c FFF7FEFF 		bl	printf
 527              	.LVL32:
 147:ioLIB/w5500_phy.c ****            current_net_info.mac[0], current_net_info.mac[1], current_net_info.mac[2],
 148:ioLIB/w5500_phy.c ****            current_net_info.mac[3], current_net_info.mac[4], current_net_info.mac[5]);
 149:ioLIB/w5500_phy.c **** 
 150:ioLIB/w5500_phy.c ****     // Print the IP address
 151:ioLIB/w5500_phy.c ****     printf("IP: %d.%d.%d.%d\r\n",
 528              		.loc 1 151 5 view .LVU108
 529 0030 9DF81940 		ldrb	r4, [sp, #25]	@ zero_extendqisi2
 530 0034 9DF81830 		ldrb	r3, [sp, #24]	@ zero_extendqisi2
 531 0038 9DF81720 		ldrb	r2, [sp, #23]	@ zero_extendqisi2
 532 003c 9DF81610 		ldrb	r1, [sp, #22]	@ zero_extendqisi2
 533 0040 0094     		str	r4, [sp]
 534 0042 1548     		ldr	r0, .L52+4
 535 0044 FFF7FEFF 		bl	printf
 536              	.LVL33:
 152:ioLIB/w5500_phy.c ****            current_net_info.ip[0], current_net_info.ip[1], current_net_info.ip[2], current_net_info
 153:ioLIB/w5500_phy.c **** 
 154:ioLIB/w5500_phy.c ****     // Print the subnet mask
 155:ioLIB/w5500_phy.c ****     printf("SN: %d.%d.%d.%d\r\n",
 537              		.loc 1 155 5 view .LVU109
 538 0048 9DF81D40 		ldrb	r4, [sp, #29]	@ zero_extendqisi2
 539 004c 9DF81C30 		ldrb	r3, [sp, #28]	@ zero_extendqisi2
 540 0050 9DF81B20 		ldrb	r2, [sp, #27]	@ zero_extendqisi2
 541 0054 9DF81A10 		ldrb	r1, [sp, #26]	@ zero_extendqisi2
 542 0058 0094     		str	r4, [sp]
 543 005a 1048     		ldr	r0, .L52+8
 544 005c FFF7FEFF 		bl	printf
 545              	.LVL34:
 156:ioLIB/w5500_phy.c ****            current_net_info.sn[0], current_net_info.sn[1], current_net_info.sn[2], current_net_info
 157:ioLIB/w5500_phy.c **** 
 158:ioLIB/w5500_phy.c ****     // Print the gateway address
 159:ioLIB/w5500_phy.c ****     printf("GW: %d.%d.%d.%d\r\n",
 546              		.loc 1 159 5 view .LVU110
 547 0060 9DF82140 		ldrb	r4, [sp, #33]	@ zero_extendqisi2
 548 0064 9DF82030 		ldrb	r3, [sp, #32]	@ zero_extendqisi2
 549 0068 9DF81F20 		ldrb	r2, [sp, #31]	@ zero_extendqisi2
 550 006c 9DF81E10 		ldrb	r1, [sp, #30]	@ zero_extendqisi2
 551 0070 0094     		str	r4, [sp]
 552 0072 0B48     		ldr	r0, .L52+12
 553 0074 FFF7FEFF 		bl	printf
 554              	.LVL35:
 160:ioLIB/w5500_phy.c ****            current_net_info.gw[0], current_net_info.gw[1], current_net_info.gw[2], current_net_info
 161:ioLIB/w5500_phy.c **** 
 162:ioLIB/w5500_phy.c ****     // Print the DNS server address
 163:ioLIB/w5500_phy.c ****     printf("DNS: %d.%d.%d.%d\r\n",
 555              		.loc 1 163 5 view .LVU111
ARM GAS  C:\Users\clay0\AppData\Local\Temp\ccYT8U8W.s 			page 16


 556 0078 9DF82540 		ldrb	r4, [sp, #37]	@ zero_extendqisi2
 557 007c 9DF82430 		ldrb	r3, [sp, #36]	@ zero_extendqisi2
 558 0080 9DF82320 		ldrb	r2, [sp, #35]	@ zero_extendqisi2
 559 0084 9DF82210 		ldrb	r1, [sp, #34]	@ zero_extendqisi2
 560 0088 0094     		str	r4, [sp]
 561 008a 0648     		ldr	r0, .L52+16
 562 008c FFF7FEFF 		bl	printf
 563              	.LVL36:
 164:ioLIB/w5500_phy.c ****            current_net_info.dns[0], current_net_info.dns[1], current_net_info.dns[2], current_net_i
 165:ioLIB/w5500_phy.c **** }
 564              		.loc 1 165 1 is_stmt 0 view .LVU112
 565 0090 0AB0     		add	sp, sp, #40
 566              	.LCFI17:
 567              		.cfi_def_cfa_offset 8
 568              		@ sp needed
 569 0092 10BD     		pop	{r4, pc}
 570              	.L53:
 571              		.align	2
 572              	.L52:
 573 0094 00000000 		.word	.LC21
 574 0098 28000000 		.word	.LC22
 575 009c 3C000000 		.word	.LC23
 576 00a0 50000000 		.word	.LC24
 577 00a4 64000000 		.word	.LC25
 578              		.cfi_endproc
 579              	.LFE5:
 581              		.text
 582              	.Letext0:
 583              		.file 2 "d:\\gcc arm\\10 2021.10\\arm-none-eabi\\include\\machine\\_default_types.h"
 584              		.file 3 "d:\\gcc arm\\10 2021.10\\arm-none-eabi\\include\\sys\\_stdint.h"
 585              		.file 4 "ioLIB/wizchip_conf.h"
 586              		.file 5 "d:\\gcc arm\\10 2021.10\\arm-none-eabi\\include\\stdio.h"
 587              		.file 6 "Core/clock.h"
 588              		.file 7 "<built-in>"
ARM GAS  C:\Users\clay0\AppData\Local\Temp\ccYT8U8W.s 			page 17


DEFINED SYMBOLS
                            *ABS*:00000000 w5500_phy.c
C:\Users\clay0\AppData\Local\Temp\ccYT8U8W.s:20     .rodata.check_cable_presence.str1.4:00000000 $d
C:\Users\clay0\AppData\Local\Temp\ccYT8U8W.s:34     .text.check_cable_presence:00000000 $t
C:\Users\clay0\AppData\Local\Temp\ccYT8U8W.s:41     .text.check_cable_presence:00000000 check_cable_presence
C:\Users\clay0\AppData\Local\Temp\ccYT8U8W.s:129    .text.check_cable_presence:0000004c $d
C:\Users\clay0\AppData\Local\Temp\ccYT8U8W.s:137    .rodata.check_phy_status.str1.4:00000000 $d
C:\Users\clay0\AppData\Local\Temp\ccYT8U8W.s:189    .text.check_phy_status:00000000 $t
C:\Users\clay0\AppData\Local\Temp\ccYT8U8W.s:196    .text.check_phy_status:00000000 check_phy_status
C:\Users\clay0\AppData\Local\Temp\ccYT8U8W.s:450    .text.check_phy_status:00000114 $d
C:\Users\clay0\AppData\Local\Temp\ccYT8U8W.s:471    .rodata.print_current_host_configuration.str1.4:00000000 $d
C:\Users\clay0\AppData\Local\Temp\ccYT8U8W.s:487    .text.print_current_host_configuration:00000000 $t
C:\Users\clay0\AppData\Local\Temp\ccYT8U8W.s:494    .text.print_current_host_configuration:00000000 print_current_host_configuration
C:\Users\clay0\AppData\Local\Temp\ccYT8U8W.s:573    .text.print_current_host_configuration:00000094 $d

UNDEFINED SYMBOLS
puts
ctlwizchip
delay_ms
printf
ctlnetwork
